
STU3_Test.elf:     file format elf32-littlearm

Sections:
Idx Name          Size      VMA       LMA       File off  Algn
  0 .isr_vector   000001d8  08000000  08000000  00001000  2**0
                  CONTENTS, ALLOC, LOAD, READONLY, DATA
  1 .text         00009a4c  080001d8  080001d8  000011d8  2**2
                  CONTENTS, ALLOC, LOAD, READONLY, CODE
  2 .rodata       00000040  08009c24  08009c24  0000ac24  2**2
                  CONTENTS, ALLOC, LOAD, READONLY, DATA
  3 .ARM.extab    00000000  08009c64  08009c64  0000b214  2**0
                  CONTENTS, READONLY
  4 .ARM          00000008  08009c64  08009c64  0000ac64  2**2
                  CONTENTS, ALLOC, LOAD, READONLY, DATA
  5 .preinit_array 00000000  08009c6c  08009c6c  0000b214  2**0
                  CONTENTS, ALLOC, LOAD, DATA
  6 .init_array   00000004  08009c6c  08009c6c  0000ac6c  2**2
                  CONTENTS, ALLOC, LOAD, READONLY, DATA
  7 .fini_array   00000004  08009c70  08009c70  0000ac70  2**2
                  CONTENTS, ALLOC, LOAD, READONLY, DATA
  8 .data         00000214  20000000  08009c74  0000b000  2**2
                  CONTENTS, ALLOC, LOAD, DATA
  9 .bss          00000e0c  20000214  08009e88  0000b214  2**2
                  ALLOC
 10 ._user_heap_stack 00000600  20001020  08009e88  0000c020  2**0
                  ALLOC
 11 .ARM.attributes 00000030  00000000  00000000  0000b214  2**0
                  CONTENTS, READONLY
 12 .debug_info   0001c5f5  00000000  00000000  0000b244  2**0
                  CONTENTS, READONLY, DEBUGGING, OCTETS
 13 .debug_abbrev 000032f7  00000000  00000000  00027839  2**0
                  CONTENTS, READONLY, DEBUGGING, OCTETS
 14 .debug_aranges 00001660  00000000  00000000  0002ab30  2**3
                  CONTENTS, READONLY, DEBUGGING, OCTETS
 15 .debug_rnglists 00001175  00000000  00000000  0002c190  2**0
                  CONTENTS, READONLY, DEBUGGING, OCTETS
 16 .debug_macro  000281a5  00000000  00000000  0002d305  2**0
                  CONTENTS, READONLY, DEBUGGING, OCTETS
 17 .debug_line   00019bef  00000000  00000000  000554aa  2**0
                  CONTENTS, READONLY, DEBUGGING, OCTETS
 18 .debug_str    0011398f  00000000  00000000  0006f099  2**0
                  CONTENTS, READONLY, DEBUGGING, OCTETS
 19 .comment      00000043  00000000  00000000  00182a28  2**0
                  CONTENTS, READONLY
 20 .debug_frame  00006110  00000000  00000000  00182a6c  2**2
                  CONTENTS, READONLY, DEBUGGING, OCTETS
 21 .debug_line_str 00000067  00000000  00000000  00188b7c  2**0
                  CONTENTS, READONLY, DEBUGGING, OCTETS

Disassembly of section .text:

080001d8 <__do_global_dtors_aux>:
 80001d8:	b510      	push	{r4, lr}
 80001da:	4c05      	ldr	r4, [pc, #20]	@ (80001f0 <__do_global_dtors_aux+0x18>)
 80001dc:	7823      	ldrb	r3, [r4, #0]
 80001de:	b933      	cbnz	r3, 80001ee <__do_global_dtors_aux+0x16>
 80001e0:	4b04      	ldr	r3, [pc, #16]	@ (80001f4 <__do_global_dtors_aux+0x1c>)
 80001e2:	b113      	cbz	r3, 80001ea <__do_global_dtors_aux+0x12>
 80001e4:	4804      	ldr	r0, [pc, #16]	@ (80001f8 <__do_global_dtors_aux+0x20>)
 80001e6:	f3af 8000 	nop.w
 80001ea:	2301      	movs	r3, #1
 80001ec:	7023      	strb	r3, [r4, #0]
 80001ee:	bd10      	pop	{r4, pc}
 80001f0:	20000214 	.word	0x20000214
 80001f4:	00000000 	.word	0x00000000
 80001f8:	08009c0c 	.word	0x08009c0c

080001fc <frame_dummy>:
 80001fc:	b508      	push	{r3, lr}
 80001fe:	4b03      	ldr	r3, [pc, #12]	@ (800020c <frame_dummy+0x10>)
 8000200:	b11b      	cbz	r3, 800020a <frame_dummy+0xe>
 8000202:	4903      	ldr	r1, [pc, #12]	@ (8000210 <frame_dummy+0x14>)
 8000204:	4803      	ldr	r0, [pc, #12]	@ (8000214 <frame_dummy+0x18>)
 8000206:	f3af 8000 	nop.w
 800020a:	bd08      	pop	{r3, pc}
 800020c:	00000000 	.word	0x00000000
 8000210:	20000218 	.word	0x20000218
 8000214:	08009c0c 	.word	0x08009c0c

08000218 <__aeabi_uldivmod>:
 8000218:	b953      	cbnz	r3, 8000230 <__aeabi_uldivmod+0x18>
 800021a:	b94a      	cbnz	r2, 8000230 <__aeabi_uldivmod+0x18>
 800021c:	2900      	cmp	r1, #0
 800021e:	bf08      	it	eq
 8000220:	2800      	cmpeq	r0, #0
 8000222:	bf1c      	itt	ne
 8000224:	f04f 31ff 	movne.w	r1, #4294967295
 8000228:	f04f 30ff 	movne.w	r0, #4294967295
 800022c:	f000 b988 	b.w	8000540 <__aeabi_idiv0>
 8000230:	f1ad 0c08 	sub.w	ip, sp, #8
 8000234:	e96d ce04 	strd	ip, lr, [sp, #-16]!
 8000238:	f000 f806 	bl	8000248 <__udivmoddi4>
 800023c:	f8dd e004 	ldr.w	lr, [sp, #4]
 8000240:	e9dd 2302 	ldrd	r2, r3, [sp, #8]
 8000244:	b004      	add	sp, #16
 8000246:	4770      	bx	lr

08000248 <__udivmoddi4>:
 8000248:	e92d 47f0 	stmdb	sp!, {r4, r5, r6, r7, r8, r9, sl, lr}
 800024c:	9d08      	ldr	r5, [sp, #32]
 800024e:	468e      	mov	lr, r1
 8000250:	4604      	mov	r4, r0
 8000252:	4688      	mov	r8, r1
 8000254:	2b00      	cmp	r3, #0
 8000256:	d14a      	bne.n	80002ee <__udivmoddi4+0xa6>
 8000258:	428a      	cmp	r2, r1
 800025a:	4617      	mov	r7, r2
 800025c:	d962      	bls.n	8000324 <__udivmoddi4+0xdc>
 800025e:	fab2 f682 	clz	r6, r2
 8000262:	b14e      	cbz	r6, 8000278 <__udivmoddi4+0x30>
 8000264:	f1c6 0320 	rsb	r3, r6, #32
 8000268:	fa01 f806 	lsl.w	r8, r1, r6
 800026c:	fa20 f303 	lsr.w	r3, r0, r3
 8000270:	40b7      	lsls	r7, r6
 8000272:	ea43 0808 	orr.w	r8, r3, r8
 8000276:	40b4      	lsls	r4, r6
 8000278:	ea4f 4e17 	mov.w	lr, r7, lsr #16
 800027c:	fa1f fc87 	uxth.w	ip, r7
 8000280:	fbb8 f1fe 	udiv	r1, r8, lr
 8000284:	0c23      	lsrs	r3, r4, #16
 8000286:	fb0e 8811 	mls	r8, lr, r1, r8
 800028a:	ea43 4308 	orr.w	r3, r3, r8, lsl #16
 800028e:	fb01 f20c 	mul.w	r2, r1, ip
 8000292:	429a      	cmp	r2, r3
 8000294:	d909      	bls.n	80002aa <__udivmoddi4+0x62>
 8000296:	18fb      	adds	r3, r7, r3
 8000298:	f101 30ff 	add.w	r0, r1, #4294967295
 800029c:	f080 80ea 	bcs.w	8000474 <__udivmoddi4+0x22c>
 80002a0:	429a      	cmp	r2, r3
 80002a2:	f240 80e7 	bls.w	8000474 <__udivmoddi4+0x22c>
 80002a6:	3902      	subs	r1, #2
 80002a8:	443b      	add	r3, r7
 80002aa:	1a9a      	subs	r2, r3, r2
 80002ac:	b2a3      	uxth	r3, r4
 80002ae:	fbb2 f0fe 	udiv	r0, r2, lr
 80002b2:	fb0e 2210 	mls	r2, lr, r0, r2
 80002b6:	ea43 4302 	orr.w	r3, r3, r2, lsl #16
 80002ba:	fb00 fc0c 	mul.w	ip, r0, ip
 80002be:	459c      	cmp	ip, r3
 80002c0:	d909      	bls.n	80002d6 <__udivmoddi4+0x8e>
 80002c2:	18fb      	adds	r3, r7, r3
 80002c4:	f100 32ff 	add.w	r2, r0, #4294967295
 80002c8:	f080 80d6 	bcs.w	8000478 <__udivmoddi4+0x230>
 80002cc:	459c      	cmp	ip, r3
 80002ce:	f240 80d3 	bls.w	8000478 <__udivmoddi4+0x230>
 80002d2:	443b      	add	r3, r7
 80002d4:	3802      	subs	r0, #2
 80002d6:	ea40 4001 	orr.w	r0, r0, r1, lsl #16
 80002da:	eba3 030c 	sub.w	r3, r3, ip
 80002de:	2100      	movs	r1, #0
 80002e0:	b11d      	cbz	r5, 80002ea <__udivmoddi4+0xa2>
 80002e2:	40f3      	lsrs	r3, r6
 80002e4:	2200      	movs	r2, #0
 80002e6:	e9c5 3200 	strd	r3, r2, [r5]
 80002ea:	e8bd 87f0 	ldmia.w	sp!, {r4, r5, r6, r7, r8, r9, sl, pc}
 80002ee:	428b      	cmp	r3, r1
 80002f0:	d905      	bls.n	80002fe <__udivmoddi4+0xb6>
 80002f2:	b10d      	cbz	r5, 80002f8 <__udivmoddi4+0xb0>
 80002f4:	e9c5 0100 	strd	r0, r1, [r5]
 80002f8:	2100      	movs	r1, #0
 80002fa:	4608      	mov	r0, r1
 80002fc:	e7f5      	b.n	80002ea <__udivmoddi4+0xa2>
 80002fe:	fab3 f183 	clz	r1, r3
 8000302:	2900      	cmp	r1, #0
 8000304:	d146      	bne.n	8000394 <__udivmoddi4+0x14c>
 8000306:	4573      	cmp	r3, lr
 8000308:	d302      	bcc.n	8000310 <__udivmoddi4+0xc8>
 800030a:	4282      	cmp	r2, r0
 800030c:	f200 8105 	bhi.w	800051a <__udivmoddi4+0x2d2>
 8000310:	1a84      	subs	r4, r0, r2
 8000312:	eb6e 0203 	sbc.w	r2, lr, r3
 8000316:	2001      	movs	r0, #1
 8000318:	4690      	mov	r8, r2
 800031a:	2d00      	cmp	r5, #0
 800031c:	d0e5      	beq.n	80002ea <__udivmoddi4+0xa2>
 800031e:	e9c5 4800 	strd	r4, r8, [r5]
 8000322:	e7e2      	b.n	80002ea <__udivmoddi4+0xa2>
 8000324:	2a00      	cmp	r2, #0
 8000326:	f000 8090 	beq.w	800044a <__udivmoddi4+0x202>
 800032a:	fab2 f682 	clz	r6, r2
 800032e:	2e00      	cmp	r6, #0
 8000330:	f040 80a4 	bne.w	800047c <__udivmoddi4+0x234>
 8000334:	1a8a      	subs	r2, r1, r2
 8000336:	0c03      	lsrs	r3, r0, #16
 8000338:	ea4f 4e17 	mov.w	lr, r7, lsr #16
 800033c:	b280      	uxth	r0, r0
 800033e:	b2bc      	uxth	r4, r7
 8000340:	2101      	movs	r1, #1
 8000342:	fbb2 fcfe 	udiv	ip, r2, lr
 8000346:	fb0e 221c 	mls	r2, lr, ip, r2
 800034a:	ea43 4302 	orr.w	r3, r3, r2, lsl #16
 800034e:	fb04 f20c 	mul.w	r2, r4, ip
 8000352:	429a      	cmp	r2, r3
 8000354:	d907      	bls.n	8000366 <__udivmoddi4+0x11e>
 8000356:	18fb      	adds	r3, r7, r3
 8000358:	f10c 38ff 	add.w	r8, ip, #4294967295
 800035c:	d202      	bcs.n	8000364 <__udivmoddi4+0x11c>
 800035e:	429a      	cmp	r2, r3
 8000360:	f200 80e0 	bhi.w	8000524 <__udivmoddi4+0x2dc>
 8000364:	46c4      	mov	ip, r8
 8000366:	1a9b      	subs	r3, r3, r2
 8000368:	fbb3 f2fe 	udiv	r2, r3, lr
 800036c:	fb0e 3312 	mls	r3, lr, r2, r3
 8000370:	ea40 4303 	orr.w	r3, r0, r3, lsl #16
 8000374:	fb02 f404 	mul.w	r4, r2, r4
 8000378:	429c      	cmp	r4, r3
 800037a:	d907      	bls.n	800038c <__udivmoddi4+0x144>
 800037c:	18fb      	adds	r3, r7, r3
 800037e:	f102 30ff 	add.w	r0, r2, #4294967295
 8000382:	d202      	bcs.n	800038a <__udivmoddi4+0x142>
 8000384:	429c      	cmp	r4, r3
 8000386:	f200 80ca 	bhi.w	800051e <__udivmoddi4+0x2d6>
 800038a:	4602      	mov	r2, r0
 800038c:	1b1b      	subs	r3, r3, r4
 800038e:	ea42 400c 	orr.w	r0, r2, ip, lsl #16
 8000392:	e7a5      	b.n	80002e0 <__udivmoddi4+0x98>
 8000394:	f1c1 0620 	rsb	r6, r1, #32
 8000398:	408b      	lsls	r3, r1
 800039a:	fa22 f706 	lsr.w	r7, r2, r6
 800039e:	431f      	orrs	r7, r3
 80003a0:	fa0e f401 	lsl.w	r4, lr, r1
 80003a4:	fa20 f306 	lsr.w	r3, r0, r6
 80003a8:	fa2e fe06 	lsr.w	lr, lr, r6
 80003ac:	ea4f 4917 	mov.w	r9, r7, lsr #16
 80003b0:	4323      	orrs	r3, r4
 80003b2:	fa00 f801 	lsl.w	r8, r0, r1
 80003b6:	fa1f fc87 	uxth.w	ip, r7
 80003ba:	fbbe f0f9 	udiv	r0, lr, r9
 80003be:	0c1c      	lsrs	r4, r3, #16
 80003c0:	fb09 ee10 	mls	lr, r9, r0, lr
 80003c4:	ea44 440e 	orr.w	r4, r4, lr, lsl #16
 80003c8:	fb00 fe0c 	mul.w	lr, r0, ip
 80003cc:	45a6      	cmp	lr, r4
 80003ce:	fa02 f201 	lsl.w	r2, r2, r1
 80003d2:	d909      	bls.n	80003e8 <__udivmoddi4+0x1a0>
 80003d4:	193c      	adds	r4, r7, r4
 80003d6:	f100 3aff 	add.w	sl, r0, #4294967295
 80003da:	f080 809c 	bcs.w	8000516 <__udivmoddi4+0x2ce>
 80003de:	45a6      	cmp	lr, r4
 80003e0:	f240 8099 	bls.w	8000516 <__udivmoddi4+0x2ce>
 80003e4:	3802      	subs	r0, #2
 80003e6:	443c      	add	r4, r7
 80003e8:	eba4 040e 	sub.w	r4, r4, lr
 80003ec:	fa1f fe83 	uxth.w	lr, r3
 80003f0:	fbb4 f3f9 	udiv	r3, r4, r9
 80003f4:	fb09 4413 	mls	r4, r9, r3, r4
 80003f8:	ea4e 4404 	orr.w	r4, lr, r4, lsl #16
 80003fc:	fb03 fc0c 	mul.w	ip, r3, ip
 8000400:	45a4      	cmp	ip, r4
 8000402:	d908      	bls.n	8000416 <__udivmoddi4+0x1ce>
 8000404:	193c      	adds	r4, r7, r4
 8000406:	f103 3eff 	add.w	lr, r3, #4294967295
 800040a:	f080 8082 	bcs.w	8000512 <__udivmoddi4+0x2ca>
 800040e:	45a4      	cmp	ip, r4
 8000410:	d97f      	bls.n	8000512 <__udivmoddi4+0x2ca>
 8000412:	3b02      	subs	r3, #2
 8000414:	443c      	add	r4, r7
 8000416:	ea43 4000 	orr.w	r0, r3, r0, lsl #16
 800041a:	eba4 040c 	sub.w	r4, r4, ip
 800041e:	fba0 ec02 	umull	lr, ip, r0, r2
 8000422:	4564      	cmp	r4, ip
 8000424:	4673      	mov	r3, lr
 8000426:	46e1      	mov	r9, ip
 8000428:	d362      	bcc.n	80004f0 <__udivmoddi4+0x2a8>
 800042a:	d05f      	beq.n	80004ec <__udivmoddi4+0x2a4>
 800042c:	b15d      	cbz	r5, 8000446 <__udivmoddi4+0x1fe>
 800042e:	ebb8 0203 	subs.w	r2, r8, r3
 8000432:	eb64 0409 	sbc.w	r4, r4, r9
 8000436:	fa04 f606 	lsl.w	r6, r4, r6
 800043a:	fa22 f301 	lsr.w	r3, r2, r1
 800043e:	431e      	orrs	r6, r3
 8000440:	40cc      	lsrs	r4, r1
 8000442:	e9c5 6400 	strd	r6, r4, [r5]
 8000446:	2100      	movs	r1, #0
 8000448:	e74f      	b.n	80002ea <__udivmoddi4+0xa2>
 800044a:	fbb1 fcf2 	udiv	ip, r1, r2
 800044e:	0c01      	lsrs	r1, r0, #16
 8000450:	ea41 410e 	orr.w	r1, r1, lr, lsl #16
 8000454:	b280      	uxth	r0, r0
 8000456:	ea40 4201 	orr.w	r2, r0, r1, lsl #16
 800045a:	463b      	mov	r3, r7
 800045c:	4638      	mov	r0, r7
 800045e:	463c      	mov	r4, r7
 8000460:	46b8      	mov	r8, r7
 8000462:	46be      	mov	lr, r7
 8000464:	2620      	movs	r6, #32
 8000466:	fbb1 f1f7 	udiv	r1, r1, r7
 800046a:	eba2 0208 	sub.w	r2, r2, r8
 800046e:	ea41 410c 	orr.w	r1, r1, ip, lsl #16
 8000472:	e766      	b.n	8000342 <__udivmoddi4+0xfa>
 8000474:	4601      	mov	r1, r0
 8000476:	e718      	b.n	80002aa <__udivmoddi4+0x62>
 8000478:	4610      	mov	r0, r2
 800047a:	e72c      	b.n	80002d6 <__udivmoddi4+0x8e>
 800047c:	f1c6 0220 	rsb	r2, r6, #32
 8000480:	fa2e f302 	lsr.w	r3, lr, r2
 8000484:	40b7      	lsls	r7, r6
 8000486:	40b1      	lsls	r1, r6
 8000488:	fa20 f202 	lsr.w	r2, r0, r2
 800048c:	ea4f 4e17 	mov.w	lr, r7, lsr #16
 8000490:	430a      	orrs	r2, r1
 8000492:	fbb3 f8fe 	udiv	r8, r3, lr
 8000496:	b2bc      	uxth	r4, r7
 8000498:	fb0e 3318 	mls	r3, lr, r8, r3
 800049c:	0c11      	lsrs	r1, r2, #16
 800049e:	ea41 4103 	orr.w	r1, r1, r3, lsl #16
 80004a2:	fb08 f904 	mul.w	r9, r8, r4
 80004a6:	40b0      	lsls	r0, r6
 80004a8:	4589      	cmp	r9, r1
 80004aa:	ea4f 4310 	mov.w	r3, r0, lsr #16
 80004ae:	b280      	uxth	r0, r0
 80004b0:	d93e      	bls.n	8000530 <__udivmoddi4+0x2e8>
 80004b2:	1879      	adds	r1, r7, r1
 80004b4:	f108 3cff 	add.w	ip, r8, #4294967295
 80004b8:	d201      	bcs.n	80004be <__udivmoddi4+0x276>
 80004ba:	4589      	cmp	r9, r1
 80004bc:	d81f      	bhi.n	80004fe <__udivmoddi4+0x2b6>
 80004be:	eba1 0109 	sub.w	r1, r1, r9
 80004c2:	fbb1 f9fe 	udiv	r9, r1, lr
 80004c6:	fb09 f804 	mul.w	r8, r9, r4
 80004ca:	fb0e 1119 	mls	r1, lr, r9, r1
 80004ce:	b292      	uxth	r2, r2
 80004d0:	ea42 4201 	orr.w	r2, r2, r1, lsl #16
 80004d4:	4542      	cmp	r2, r8
 80004d6:	d229      	bcs.n	800052c <__udivmoddi4+0x2e4>
 80004d8:	18ba      	adds	r2, r7, r2
 80004da:	f109 31ff 	add.w	r1, r9, #4294967295
 80004de:	d2c4      	bcs.n	800046a <__udivmoddi4+0x222>
 80004e0:	4542      	cmp	r2, r8
 80004e2:	d2c2      	bcs.n	800046a <__udivmoddi4+0x222>
 80004e4:	f1a9 0102 	sub.w	r1, r9, #2
 80004e8:	443a      	add	r2, r7
 80004ea:	e7be      	b.n	800046a <__udivmoddi4+0x222>
 80004ec:	45f0      	cmp	r8, lr
 80004ee:	d29d      	bcs.n	800042c <__udivmoddi4+0x1e4>
 80004f0:	ebbe 0302 	subs.w	r3, lr, r2
 80004f4:	eb6c 0c07 	sbc.w	ip, ip, r7
 80004f8:	3801      	subs	r0, #1
 80004fa:	46e1      	mov	r9, ip
 80004fc:	e796      	b.n	800042c <__udivmoddi4+0x1e4>
 80004fe:	eba7 0909 	sub.w	r9, r7, r9
 8000502:	4449      	add	r1, r9
 8000504:	f1a8 0c02 	sub.w	ip, r8, #2
 8000508:	fbb1 f9fe 	udiv	r9, r1, lr
 800050c:	fb09 f804 	mul.w	r8, r9, r4
 8000510:	e7db      	b.n	80004ca <__udivmoddi4+0x282>
 8000512:	4673      	mov	r3, lr
 8000514:	e77f      	b.n	8000416 <__udivmoddi4+0x1ce>
 8000516:	4650      	mov	r0, sl
 8000518:	e766      	b.n	80003e8 <__udivmoddi4+0x1a0>
 800051a:	4608      	mov	r0, r1
 800051c:	e6fd      	b.n	800031a <__udivmoddi4+0xd2>
 800051e:	443b      	add	r3, r7
 8000520:	3a02      	subs	r2, #2
 8000522:	e733      	b.n	800038c <__udivmoddi4+0x144>
 8000524:	f1ac 0c02 	sub.w	ip, ip, #2
 8000528:	443b      	add	r3, r7
 800052a:	e71c      	b.n	8000366 <__udivmoddi4+0x11e>
 800052c:	4649      	mov	r1, r9
 800052e:	e79c      	b.n	800046a <__udivmoddi4+0x222>
 8000530:	eba1 0109 	sub.w	r1, r1, r9
 8000534:	46c4      	mov	ip, r8
 8000536:	fbb1 f9fe 	udiv	r9, r1, lr
 800053a:	fb09 f804 	mul.w	r8, r9, r4
 800053e:	e7c4      	b.n	80004ca <__udivmoddi4+0x282>

08000540 <__aeabi_idiv0>:
 8000540:	4770      	bx	lr
 8000542:	bf00      	nop

08000544 <modbus_Update_All>:
 8000544:	b480      	push	{r7}
 8000546:	b089      	sub	sp, #36	@ 0x24
 8000548:	af00      	add	r7, sp, #0
 800054a:	61f8      	str	r0, [r7, #28]
 800054c:	ed87 0a06 	vstr	s0, [r7, #24]
 8000550:	edc7 0a05 	vstr	s1, [r7, #20]
 8000554:	ed87 1a04 	vstr	s2, [r7, #16]
 8000558:	edc7 1a03 	vstr	s3, [r7, #12]
 800055c:	ed87 2a02 	vstr	s4, [r7, #8]
 8000560:	edc7 2a01 	vstr	s5, [r7, #4]
 8000564:	69fb      	ldr	r3, [r7, #28]
 8000566:	685b      	ldr	r3, [r3, #4]
 8000568:	3322      	adds	r3, #34	@ 0x22
 800056a:	edd7 7a06 	vldr	s15, [r7, #24]
 800056e:	eefc 7ae7 	vcvt.u32.f32	s15, s15
 8000572:	ee17 2a90 	vmov	r2, s15
 8000576:	b292      	uxth	r2, r2
 8000578:	801a      	strh	r2, [r3, #0]
 800057a:	69fb      	ldr	r3, [r7, #28]
 800057c:	685b      	ldr	r3, [r3, #4]
 800057e:	3324      	adds	r3, #36	@ 0x24
 8000580:	edd7 7a05 	vldr	s15, [r7, #20]
 8000584:	eefc 7ae7 	vcvt.u32.f32	s15, s15
 8000588:	ee17 2a90 	vmov	r2, s15
 800058c:	b292      	uxth	r2, r2
 800058e:	801a      	strh	r2, [r3, #0]
 8000590:	69fb      	ldr	r3, [r7, #28]
 8000592:	685b      	ldr	r3, [r3, #4]
 8000594:	3326      	adds	r3, #38	@ 0x26
 8000596:	edd7 7a04 	vldr	s15, [r7, #16]
 800059a:	eefc 7ae7 	vcvt.u32.f32	s15, s15
 800059e:	ee17 2a90 	vmov	r2, s15
 80005a2:	b292      	uxth	r2, r2
 80005a4:	801a      	strh	r2, [r3, #0]
 80005a6:	69fb      	ldr	r3, [r7, #28]
 80005a8:	685b      	ldr	r3, [r3, #4]
 80005aa:	3328      	adds	r3, #40	@ 0x28
 80005ac:	edd7 7a03 	vldr	s15, [r7, #12]
 80005b0:	eefc 7ae7 	vcvt.u32.f32	s15, s15
 80005b4:	ee17 2a90 	vmov	r2, s15
 80005b8:	b292      	uxth	r2, r2
 80005ba:	801a      	strh	r2, [r3, #0]
 80005bc:	69fb      	ldr	r3, [r7, #28]
 80005be:	685b      	ldr	r3, [r3, #4]
 80005c0:	332a      	adds	r3, #42	@ 0x2a
 80005c2:	edd7 7a02 	vldr	s15, [r7, #8]
 80005c6:	eefc 7ae7 	vcvt.u32.f32	s15, s15
 80005ca:	ee17 2a90 	vmov	r2, s15
 80005ce:	b292      	uxth	r2, r2
 80005d0:	801a      	strh	r2, [r3, #0]
 80005d2:	69fb      	ldr	r3, [r7, #28]
 80005d4:	685b      	ldr	r3, [r3, #4]
 80005d6:	332c      	adds	r3, #44	@ 0x2c
 80005d8:	edd7 7a01 	vldr	s15, [r7, #4]
 80005dc:	eefc 7ae7 	vcvt.u32.f32	s15, s15
 80005e0:	ee17 2a90 	vmov	r2, s15
 80005e4:	b292      	uxth	r2, r2
 80005e6:	801a      	strh	r2, [r3, #0]
 80005e8:	bf00      	nop
 80005ea:	3724      	adds	r7, #36	@ 0x24
 80005ec:	46bd      	mov	sp, r7
 80005ee:	f85d 7b04 	ldr.w	r7, [sp], #4
 80005f2:	4770      	bx	lr

080005f4 <set_Target_Position_ten_points>:
 80005f4:	b480      	push	{r7}
 80005f6:	b085      	sub	sp, #20
 80005f8:	af00      	add	r7, sp, #0
 80005fa:	60f8      	str	r0, [r7, #12]
 80005fc:	ed87 0a02 	vstr	s0, [r7, #8]
 8000600:	460b      	mov	r3, r1
 8000602:	71fb      	strb	r3, [r7, #7]
 8000604:	68fb      	ldr	r3, [r7, #12]
 8000606:	685a      	ldr	r2, [r3, #4]
 8000608:	79fb      	ldrb	r3, [r7, #7]
 800060a:	3320      	adds	r3, #32
 800060c:	005b      	lsls	r3, r3, #1
 800060e:	4413      	add	r3, r2
 8000610:	edd7 7a02 	vldr	s15, [r7, #8]
 8000614:	eefc 7ae7 	vcvt.u32.f32	s15, s15
 8000618:	ee17 2a90 	vmov	r2, s15
 800061c:	b292      	uxth	r2, r2
 800061e:	801a      	strh	r2, [r3, #0]
 8000620:	bf00      	nop
 8000622:	3714      	adds	r7, #20
 8000624:	46bd      	mov	sp, r7
 8000626:	f85d 7b04 	ldr.w	r7, [sp], #4
 800062a:	4770      	bx	lr

0800062c <modbus_set_goal_r_position>:
 800062c:	b480      	push	{r7}
 800062e:	b085      	sub	sp, #20
 8000630:	af00      	add	r7, sp, #0
 8000632:	6078      	str	r0, [r7, #4]
 8000634:	687b      	ldr	r3, [r7, #4]
 8000636:	685b      	ldr	r3, [r3, #4]
 8000638:	3360      	adds	r3, #96	@ 0x60
 800063a:	881b      	ldrh	r3, [r3, #0]
 800063c:	81fb      	strh	r3, [r7, #14]
 800063e:	89fb      	ldrh	r3, [r7, #14]
 8000640:	4618      	mov	r0, r3
 8000642:	3714      	adds	r7, #20
 8000644:	46bd      	mov	sp, r7
 8000646:	f85d 7b04 	ldr.w	r7, [sp], #4
 800064a:	4770      	bx	lr

0800064c <modbus_set_goal_theta_position>:
 800064c:	b480      	push	{r7}
 800064e:	b085      	sub	sp, #20
 8000650:	af00      	add	r7, sp, #0
 8000652:	6078      	str	r0, [r7, #4]
 8000654:	687b      	ldr	r3, [r7, #4]
 8000656:	685b      	ldr	r3, [r3, #4]
 8000658:	3362      	adds	r3, #98	@ 0x62
 800065a:	881b      	ldrh	r3, [r3, #0]
 800065c:	81fb      	strh	r3, [r7, #14]
 800065e:	89fb      	ldrh	r3, [r7, #14]
 8000660:	4618      	mov	r0, r3
 8000662:	3714      	adds	r7, #20
 8000664:	46bd      	mov	sp, r7
 8000666:	f85d 7b04 	ldr.w	r7, [sp], #4
 800066a:	4770      	bx	lr

0800066c <Encoder_Init>:
 800066c:	b580      	push	{r7, lr}
 800066e:	b082      	sub	sp, #8
 8000670:	af00      	add	r7, sp, #0
 8000672:	6078      	str	r0, [r7, #4]
 8000674:	6039      	str	r1, [r7, #0]
 8000676:	687b      	ldr	r3, [r7, #4]
 8000678:	683a      	ldr	r2, [r7, #0]
 800067a:	601a      	str	r2, [r3, #0]
 800067c:	213c      	movs	r1, #60	@ 0x3c
 800067e:	6838      	ldr	r0, [r7, #0]
 8000680:	f005 f934 	bl	80058ec <HAL_TIM_Encoder_Start>
 8000684:	683b      	ldr	r3, [r7, #0]
 8000686:	681b      	ldr	r3, [r3, #0]
 8000688:	6a5b      	ldr	r3, [r3, #36]	@ 0x24
 800068a:	461a      	mov	r2, r3
 800068c:	687b      	ldr	r3, [r7, #4]
 800068e:	605a      	str	r2, [r3, #4]
 8000690:	687b      	ldr	r3, [r7, #4]
 8000692:	f04f 0200 	mov.w	r2, #0
 8000696:	609a      	str	r2, [r3, #8]
 8000698:	687b      	ldr	r3, [r7, #4]
 800069a:	f04f 0200 	mov.w	r2, #0
 800069e:	60da      	str	r2, [r3, #12]
 80006a0:	687b      	ldr	r3, [r7, #4]
 80006a2:	f04f 0200 	mov.w	r2, #0
 80006a6:	611a      	str	r2, [r3, #16]
 80006a8:	687b      	ldr	r3, [r7, #4]
 80006aa:	f04f 0200 	mov.w	r2, #0
 80006ae:	615a      	str	r2, [r3, #20]
 80006b0:	687b      	ldr	r3, [r7, #4]
 80006b2:	f04f 0200 	mov.w	r2, #0
 80006b6:	619a      	str	r2, [r3, #24]
 80006b8:	bf00      	nop
 80006ba:	3708      	adds	r7, #8
 80006bc:	46bd      	mov	sp, r7
 80006be:	bd80      	pop	{r7, pc}

080006c0 <Encoder_Update>:
 80006c0:	b480      	push	{r7}
 80006c2:	b085      	sub	sp, #20
 80006c4:	af00      	add	r7, sp, #0
 80006c6:	6078      	str	r0, [r7, #4]
 80006c8:	ed87 0a00 	vstr	s0, [r7]
 80006cc:	687b      	ldr	r3, [r7, #4]
 80006ce:	681b      	ldr	r3, [r3, #0]
 80006d0:	681b      	ldr	r3, [r3, #0]
 80006d2:	6a5b      	ldr	r3, [r3, #36]	@ 0x24
 80006d4:	60bb      	str	r3, [r7, #8]
 80006d6:	687b      	ldr	r3, [r7, #4]
 80006d8:	685b      	ldr	r3, [r3, #4]
 80006da:	68ba      	ldr	r2, [r7, #8]
 80006dc:	1ad3      	subs	r3, r2, r3
 80006de:	60fb      	str	r3, [r7, #12]
 80006e0:	68fb      	ldr	r3, [r7, #12]
 80006e2:	f247 5230 	movw	r2, #30000	@ 0x7530
 80006e6:	4293      	cmp	r3, r2
 80006e8:	dd05      	ble.n	80006f6 <Encoder_Update+0x36>
 80006ea:	68fb      	ldr	r3, [r7, #12]
 80006ec:	f5a3 436a 	sub.w	r3, r3, #59904	@ 0xea00
 80006f0:	3b60      	subs	r3, #96	@ 0x60
 80006f2:	60fb      	str	r3, [r7, #12]
 80006f4:	e008      	b.n	8000708 <Encoder_Update+0x48>
 80006f6:	68fb      	ldr	r3, [r7, #12]
 80006f8:	4a25      	ldr	r2, [pc, #148]	@ (8000790 <Encoder_Update+0xd0>)
 80006fa:	4293      	cmp	r3, r2
 80006fc:	da04      	bge.n	8000708 <Encoder_Update+0x48>
 80006fe:	68fb      	ldr	r3, [r7, #12]
 8000700:	f503 436a 	add.w	r3, r3, #59904	@ 0xea00
 8000704:	3360      	adds	r3, #96	@ 0x60
 8000706:	60fb      	str	r3, [r7, #12]
 8000708:	687b      	ldr	r3, [r7, #4]
 800070a:	ed93 7a02 	vldr	s14, [r3, #8]
 800070e:	68fb      	ldr	r3, [r7, #12]
 8000710:	ee07 3a90 	vmov	s15, r3
 8000714:	eef8 7ae7 	vcvt.f32.s32	s15, s15
 8000718:	eddf 6a1e 	vldr	s13, [pc, #120]	@ 8000794 <Encoder_Update+0xd4>
 800071c:	ee67 6aa6 	vmul.f32	s13, s15, s13
 8000720:	ed9f 6a1d 	vldr	s12, [pc, #116]	@ 8000798 <Encoder_Update+0xd8>
 8000724:	eec6 7a86 	vdiv.f32	s15, s13, s12
 8000728:	ee77 7a27 	vadd.f32	s15, s14, s15
 800072c:	687b      	ldr	r3, [r7, #4]
 800072e:	edc3 7a02 	vstr	s15, [r3, #8]
 8000732:	687b      	ldr	r3, [r7, #4]
 8000734:	ed93 7a02 	vldr	s14, [r3, #8]
 8000738:	687b      	ldr	r3, [r7, #4]
 800073a:	edd3 7a05 	vldr	s15, [r3, #20]
 800073e:	ee77 6a67 	vsub.f32	s13, s14, s15
 8000742:	ed97 7a00 	vldr	s14, [r7]
 8000746:	eec6 7a87 	vdiv.f32	s15, s13, s14
 800074a:	687b      	ldr	r3, [r7, #4]
 800074c:	edc3 7a03 	vstr	s15, [r3, #12]
 8000750:	687b      	ldr	r3, [r7, #4]
 8000752:	ed93 7a03 	vldr	s14, [r3, #12]
 8000756:	687b      	ldr	r3, [r7, #4]
 8000758:	edd3 7a06 	vldr	s15, [r3, #24]
 800075c:	ee77 6a67 	vsub.f32	s13, s14, s15
 8000760:	ed97 7a00 	vldr	s14, [r7]
 8000764:	eec6 7a87 	vdiv.f32	s15, s13, s14
 8000768:	687b      	ldr	r3, [r7, #4]
 800076a:	edc3 7a04 	vstr	s15, [r3, #16]
 800076e:	687b      	ldr	r3, [r7, #4]
 8000770:	68ba      	ldr	r2, [r7, #8]
 8000772:	605a      	str	r2, [r3, #4]
 8000774:	687b      	ldr	r3, [r7, #4]
 8000776:	689a      	ldr	r2, [r3, #8]
 8000778:	687b      	ldr	r3, [r7, #4]
 800077a:	615a      	str	r2, [r3, #20]
 800077c:	687b      	ldr	r3, [r7, #4]
 800077e:	68da      	ldr	r2, [r3, #12]
 8000780:	687b      	ldr	r3, [r7, #4]
 8000782:	619a      	str	r2, [r3, #24]
 8000784:	bf00      	nop
 8000786:	3714      	adds	r7, #20
 8000788:	46bd      	mov	sp, r7
 800078a:	f85d 7b04 	ldr.w	r7, [sp], #4
 800078e:	4770      	bx	lr
 8000790:	ffff8ad0 	.word	0xffff8ad0
 8000794:	40c90fda 	.word	0x40c90fda
 8000798:	463b8000 	.word	0x463b8000

0800079c <Encoder_setLimit>:
 800079c:	b480      	push	{r7}
 800079e:	b083      	sub	sp, #12
 80007a0:	af00      	add	r7, sp, #0
 80007a2:	6078      	str	r0, [r7, #4]
 80007a4:	ed87 0a00 	vstr	s0, [r7]
 80007a8:	687b      	ldr	r3, [r7, #4]
 80007aa:	683a      	ldr	r2, [r7, #0]
 80007ac:	609a      	str	r2, [r3, #8]
 80007ae:	bf00      	nop
 80007b0:	370c      	adds	r7, #12
 80007b2:	46bd      	mov	sp, r7
 80007b4:	f85d 7b04 	ldr.w	r7, [sp], #4
 80007b8:	4770      	bx	lr

080007ba <Encoder_GetPosition>:
 80007ba:	b480      	push	{r7}
 80007bc:	b083      	sub	sp, #12
 80007be:	af00      	add	r7, sp, #0
 80007c0:	6078      	str	r0, [r7, #4]
 80007c2:	687b      	ldr	r3, [r7, #4]
 80007c4:	689b      	ldr	r3, [r3, #8]
 80007c6:	ee07 3a90 	vmov	s15, r3
 80007ca:	eeb0 0a67 	vmov.f32	s0, s15
 80007ce:	370c      	adds	r7, #12
 80007d0:	46bd      	mov	sp, r7
 80007d2:	f85d 7b04 	ldr.w	r7, [sp], #4
 80007d6:	4770      	bx	lr

080007d8 <Encoder_GetVelocity>:
 80007d8:	b480      	push	{r7}
 80007da:	b083      	sub	sp, #12
 80007dc:	af00      	add	r7, sp, #0
 80007de:	6078      	str	r0, [r7, #4]
 80007e0:	687b      	ldr	r3, [r7, #4]
 80007e2:	68db      	ldr	r3, [r3, #12]
 80007e4:	ee07 3a90 	vmov	s15, r3
 80007e8:	eeb0 0a67 	vmov.f32	s0, s15
 80007ec:	370c      	adds	r7, #12
 80007ee:	46bd      	mov	sp, r7
 80007f0:	f85d 7b04 	ldr.w	r7, [sp], #4
 80007f4:	4770      	bx	lr

080007f6 <Encoder_GetAcceleration>:
 80007f6:	b480      	push	{r7}
 80007f8:	b083      	sub	sp, #12
 80007fa:	af00      	add	r7, sp, #0
 80007fc:	6078      	str	r0, [r7, #4]
 80007fe:	687b      	ldr	r3, [r7, #4]
 8000800:	691b      	ldr	r3, [r3, #16]
 8000802:	ee07 3a90 	vmov	s15, r3
 8000806:	eeb0 0a67 	vmov.f32	s0, s15
 800080a:	370c      	adds	r7, #12
 800080c:	46bd      	mov	sp, r7
 800080e:	f85d 7b04 	ldr.w	r7, [sp], #4
 8000812:	4770      	bx	lr

08000814 <modbus_1t5_Timeout>:
 8000814:	b480      	push	{r7}
 8000816:	b083      	sub	sp, #12
 8000818:	af00      	add	r7, sp, #0
 800081a:	6078      	str	r0, [r7, #4]
 800081c:	4b04      	ldr	r3, [pc, #16]	@ (8000830 <modbus_1t5_Timeout+0x1c>)
 800081e:	681b      	ldr	r3, [r3, #0]
 8000820:	2201      	movs	r2, #1
 8000822:	751a      	strb	r2, [r3, #20]
 8000824:	bf00      	nop
 8000826:	370c      	adds	r7, #12
 8000828:	46bd      	mov	sp, r7
 800082a:	f85d 7b04 	ldr.w	r7, [sp], #4
 800082e:	4770      	bx	lr
 8000830:	20000230 	.word	0x20000230

08000834 <modbus_3t5_Timeout>:
 8000834:	b480      	push	{r7}
 8000836:	b083      	sub	sp, #12
 8000838:	af00      	add	r7, sp, #0
 800083a:	6078      	str	r0, [r7, #4]
 800083c:	4b04      	ldr	r3, [pc, #16]	@ (8000850 <modbus_3t5_Timeout+0x1c>)
 800083e:	681b      	ldr	r3, [r3, #0]
 8000840:	2201      	movs	r2, #1
 8000842:	755a      	strb	r2, [r3, #21]
 8000844:	bf00      	nop
 8000846:	370c      	adds	r7, #12
 8000848:	46bd      	mov	sp, r7
 800084a:	f85d 7b04 	ldr.w	r7, [sp], #4
 800084e:	4770      	bx	lr
 8000850:	20000230 	.word	0x20000230

08000854 <modbus_UART_Recived>:
 8000854:	b580      	push	{r7, lr}
 8000856:	b082      	sub	sp, #8
 8000858:	af00      	add	r7, sp, #0
 800085a:	6078      	str	r0, [r7, #4]
 800085c:	6039      	str	r1, [r7, #0]
 800085e:	4b15      	ldr	r3, [pc, #84]	@ (80008b4 <modbus_UART_Recived+0x60>)
 8000860:	681b      	ldr	r3, [r3, #0]
 8000862:	2201      	movs	r2, #1
 8000864:	759a      	strb	r2, [r3, #22]
 8000866:	4b13      	ldr	r3, [pc, #76]	@ (80008b4 <modbus_UART_Recived+0x60>)
 8000868:	681a      	ldr	r2, [r3, #0]
 800086a:	f8b2 33a2 	ldrh.w	r3, [r2, #930]	@ 0x3a2
 800086e:	1c59      	adds	r1, r3, #1
 8000870:	b289      	uxth	r1, r1
 8000872:	f8a2 13a2 	strh.w	r1, [r2, #930]	@ 0x3a2
 8000876:	f5b3 7f96 	cmp.w	r3, #300	@ 0x12c
 800087a:	d210      	bcs.n	800089e <modbus_UART_Recived+0x4a>
 800087c:	4b0d      	ldr	r3, [pc, #52]	@ (80008b4 <modbus_UART_Recived+0x60>)
 800087e:	681b      	ldr	r3, [r3, #0]
 8000880:	68d8      	ldr	r0, [r3, #12]
 8000882:	4b0c      	ldr	r3, [pc, #48]	@ (80008b4 <modbus_UART_Recived+0x60>)
 8000884:	681a      	ldr	r2, [r3, #0]
 8000886:	4b0b      	ldr	r3, [pc, #44]	@ (80008b4 <modbus_UART_Recived+0x60>)
 8000888:	681b      	ldr	r3, [r3, #0]
 800088a:	f8b3 33a2 	ldrh.w	r3, [r3, #930]	@ 0x3a2
 800088e:	f503 731c 	add.w	r3, r3, #624	@ 0x270
 8000892:	4413      	add	r3, r2
 8000894:	3302      	adds	r3, #2
 8000896:	2201      	movs	r2, #1
 8000898:	4619      	mov	r1, r3
 800089a:	f006 fe41 	bl	8007520 <HAL_UART_Receive_IT>
 800089e:	4b05      	ldr	r3, [pc, #20]	@ (80008b4 <modbus_UART_Recived+0x60>)
 80008a0:	681b      	ldr	r3, [r3, #0]
 80008a2:	691b      	ldr	r3, [r3, #16]
 80008a4:	681b      	ldr	r3, [r3, #0]
 80008a6:	2200      	movs	r2, #0
 80008a8:	625a      	str	r2, [r3, #36]	@ 0x24
 80008aa:	bf00      	nop
 80008ac:	3708      	adds	r7, #8
 80008ae:	46bd      	mov	sp, r7
 80008b0:	bd80      	pop	{r7, pc}
 80008b2:	bf00      	nop
 80008b4:	20000230 	.word	0x20000230

080008b8 <Modbus_init>:
 80008b8:	b580      	push	{r7, lr}
 80008ba:	b082      	sub	sp, #8
 80008bc:	af00      	add	r7, sp, #0
 80008be:	6078      	str	r0, [r7, #4]
 80008c0:	6039      	str	r1, [r7, #0]
 80008c2:	4a24      	ldr	r2, [pc, #144]	@ (8000954 <Modbus_init+0x9c>)
 80008c4:	687b      	ldr	r3, [r7, #4]
 80008c6:	6013      	str	r3, [r2, #0]
 80008c8:	4b22      	ldr	r3, [pc, #136]	@ (8000954 <Modbus_init+0x9c>)
 80008ca:	681b      	ldr	r3, [r3, #0]
 80008cc:	683a      	ldr	r2, [r7, #0]
 80008ce:	605a      	str	r2, [r3, #4]
 80008d0:	4b20      	ldr	r3, [pc, #128]	@ (8000954 <Modbus_init+0x9c>)
 80008d2:	681b      	ldr	r3, [r3, #0]
 80008d4:	691b      	ldr	r3, [r3, #16]
 80008d6:	4a20      	ldr	r2, [pc, #128]	@ (8000958 <Modbus_init+0xa0>)
 80008d8:	2114      	movs	r1, #20
 80008da:	4618      	mov	r0, r3
 80008dc:	f005 fd16 	bl	800630c <HAL_TIM_RegisterCallback>
 80008e0:	4b1c      	ldr	r3, [pc, #112]	@ (8000954 <Modbus_init+0x9c>)
 80008e2:	681b      	ldr	r3, [r3, #0]
 80008e4:	691b      	ldr	r3, [r3, #16]
 80008e6:	4a1d      	ldr	r2, [pc, #116]	@ (800095c <Modbus_init+0xa4>)
 80008e8:	210e      	movs	r1, #14
 80008ea:	4618      	mov	r0, r3
 80008ec:	f005 fd0e 	bl	800630c <HAL_TIM_RegisterCallback>
 80008f0:	4b18      	ldr	r3, [pc, #96]	@ (8000954 <Modbus_init+0x9c>)
 80008f2:	681b      	ldr	r3, [r3, #0]
 80008f4:	68db      	ldr	r3, [r3, #12]
 80008f6:	4a1a      	ldr	r2, [pc, #104]	@ (8000960 <Modbus_init+0xa8>)
 80008f8:	2103      	movs	r1, #3
 80008fa:	4618      	mov	r0, r3
 80008fc:	f006 fd56 	bl	80073ac <HAL_UART_RegisterCallback>
 8000900:	4b14      	ldr	r3, [pc, #80]	@ (8000954 <Modbus_init+0x9c>)
 8000902:	681b      	ldr	r3, [r3, #0]
 8000904:	68d8      	ldr	r0, [r3, #12]
 8000906:	4b13      	ldr	r3, [pc, #76]	@ (8000954 <Modbus_init+0x9c>)
 8000908:	681a      	ldr	r2, [r3, #0]
 800090a:	4b12      	ldr	r3, [pc, #72]	@ (8000954 <Modbus_init+0x9c>)
 800090c:	681b      	ldr	r3, [r3, #0]
 800090e:	f8b3 33a2 	ldrh.w	r3, [r3, #930]	@ 0x3a2
 8000912:	f503 731c 	add.w	r3, r3, #624	@ 0x270
 8000916:	4413      	add	r3, r2
 8000918:	3302      	adds	r3, #2
 800091a:	2201      	movs	r2, #1
 800091c:	4619      	mov	r1, r3
 800091e:	f006 fdff 	bl	8007520 <HAL_UART_Receive_IT>
 8000922:	4b0c      	ldr	r3, [pc, #48]	@ (8000954 <Modbus_init+0x9c>)
 8000924:	681b      	ldr	r3, [r3, #0]
 8000926:	691b      	ldr	r3, [r3, #16]
 8000928:	f893 303d 	ldrb.w	r3, [r3, #61]	@ 0x3d
 800092c:	b2db      	uxtb	r3, r3
 800092e:	2b01      	cmp	r3, #1
 8000930:	d10c      	bne.n	800094c <Modbus_init+0x94>
 8000932:	4b08      	ldr	r3, [pc, #32]	@ (8000954 <Modbus_init+0x9c>)
 8000934:	681b      	ldr	r3, [r3, #0]
 8000936:	691b      	ldr	r3, [r3, #16]
 8000938:	4618      	mov	r0, r3
 800093a:	f004 fcd9 	bl	80052f0 <HAL_TIM_Base_Start_IT>
 800093e:	4b05      	ldr	r3, [pc, #20]	@ (8000954 <Modbus_init+0x9c>)
 8000940:	681b      	ldr	r3, [r3, #0]
 8000942:	691b      	ldr	r3, [r3, #16]
 8000944:	2100      	movs	r1, #0
 8000946:	4618      	mov	r0, r3
 8000948:	f004 fe8e 	bl	8005668 <HAL_TIM_OnePulse_Start_IT>
 800094c:	bf00      	nop
 800094e:	3708      	adds	r7, #8
 8000950:	46bd      	mov	sp, r7
 8000952:	bd80      	pop	{r7, pc}
 8000954:	20000230 	.word	0x20000230
 8000958:	08000815 	.word	0x08000815
 800095c:	08000835 	.word	0x08000835
 8000960:	08000855 	.word	0x08000855

08000964 <CRC16>:
 8000964:	b480      	push	{r7}
 8000966:	b085      	sub	sp, #20
 8000968:	af00      	add	r7, sp, #0
 800096a:	6078      	str	r0, [r7, #4]
 800096c:	460b      	mov	r3, r1
 800096e:	803b      	strh	r3, [r7, #0]
 8000970:	23ff      	movs	r3, #255	@ 0xff
 8000972:	73fb      	strb	r3, [r7, #15]
 8000974:	23ff      	movs	r3, #255	@ 0xff
 8000976:	73bb      	strb	r3, [r7, #14]
 8000978:	e013      	b.n	80009a2 <CRC16+0x3e>
 800097a:	687b      	ldr	r3, [r7, #4]
 800097c:	1c5a      	adds	r2, r3, #1
 800097e:	607a      	str	r2, [r7, #4]
 8000980:	781a      	ldrb	r2, [r3, #0]
 8000982:	7bbb      	ldrb	r3, [r7, #14]
 8000984:	4053      	eors	r3, r2
 8000986:	b2db      	uxtb	r3, r3
 8000988:	60bb      	str	r3, [r7, #8]
 800098a:	4a10      	ldr	r2, [pc, #64]	@ (80009cc <CRC16+0x68>)
 800098c:	68bb      	ldr	r3, [r7, #8]
 800098e:	4413      	add	r3, r2
 8000990:	781a      	ldrb	r2, [r3, #0]
 8000992:	7bfb      	ldrb	r3, [r7, #15]
 8000994:	4053      	eors	r3, r2
 8000996:	73bb      	strb	r3, [r7, #14]
 8000998:	4a0d      	ldr	r2, [pc, #52]	@ (80009d0 <CRC16+0x6c>)
 800099a:	68bb      	ldr	r3, [r7, #8]
 800099c:	4413      	add	r3, r2
 800099e:	781b      	ldrb	r3, [r3, #0]
 80009a0:	73fb      	strb	r3, [r7, #15]
 80009a2:	883b      	ldrh	r3, [r7, #0]
 80009a4:	1e5a      	subs	r2, r3, #1
 80009a6:	803a      	strh	r2, [r7, #0]
 80009a8:	2b00      	cmp	r3, #0
 80009aa:	d1e6      	bne.n	800097a <CRC16+0x16>
 80009ac:	7bfb      	ldrb	r3, [r7, #15]
 80009ae:	b21b      	sxth	r3, r3
 80009b0:	021b      	lsls	r3, r3, #8
 80009b2:	b21a      	sxth	r2, r3
 80009b4:	7bbb      	ldrb	r3, [r7, #14]
 80009b6:	b21b      	sxth	r3, r3
 80009b8:	4313      	orrs	r3, r2
 80009ba:	b21b      	sxth	r3, r3
 80009bc:	b29b      	uxth	r3, r3
 80009be:	4618      	mov	r0, r3
 80009c0:	3714      	adds	r7, #20
 80009c2:	46bd      	mov	sp, r7
 80009c4:	f85d 7b04 	ldr.w	r7, [sp], #4
 80009c8:	4770      	bx	lr
 80009ca:	bf00      	nop
 80009cc:	20000100 	.word	0x20000100
 80009d0:	20000000 	.word	0x20000000

080009d4 <Modbus_Protocal_Worker>:
 80009d4:	b580      	push	{r7, lr}
 80009d6:	b082      	sub	sp, #8
 80009d8:	af00      	add	r7, sp, #0
 80009da:	4b80      	ldr	r3, [pc, #512]	@ (8000bdc <Modbus_Protocal_Worker+0x208>)
 80009dc:	681b      	ldr	r3, [r3, #0]
 80009de:	7e1b      	ldrb	r3, [r3, #24]
 80009e0:	3b01      	subs	r3, #1
 80009e2:	2b03      	cmp	r3, #3
 80009e4:	d80a      	bhi.n	80009fc <Modbus_Protocal_Worker+0x28>
 80009e6:	a201      	add	r2, pc, #4	@ (adr r2, 80009ec <Modbus_Protocal_Worker+0x18>)
 80009e8:	f852 f023 	ldr.w	pc, [r2, r3, lsl #2]
 80009ec:	08000a07 	.word	0x08000a07
 80009f0:	08000ba5 	.word	0x08000ba5
 80009f4:	08000a91 	.word	0x08000a91
 80009f8:	08000ab7 	.word	0x08000ab7
 80009fc:	4b77      	ldr	r3, [pc, #476]	@ (8000bdc <Modbus_Protocal_Worker+0x208>)
 80009fe:	681b      	ldr	r3, [r3, #0]
 8000a00:	2201      	movs	r2, #1
 8000a02:	761a      	strb	r2, [r3, #24]
 8000a04:	e0e6      	b.n	8000bd4 <Modbus_Protocal_Worker+0x200>
 8000a06:	4b75      	ldr	r3, [pc, #468]	@ (8000bdc <Modbus_Protocal_Worker+0x208>)
 8000a08:	681b      	ldr	r3, [r3, #0]
 8000a0a:	f893 3271 	ldrb.w	r3, [r3, #625]	@ 0x271
 8000a0e:	2b00      	cmp	r3, #0
 8000a10:	d002      	beq.n	8000a18 <Modbus_Protocal_Worker+0x44>
 8000a12:	f000 f9d5 	bl	8000dc0 <Modbus_Emission>
 8000a16:	e01c      	b.n	8000a52 <Modbus_Protocal_Worker+0x7e>
 8000a18:	4b70      	ldr	r3, [pc, #448]	@ (8000bdc <Modbus_Protocal_Worker+0x208>)
 8000a1a:	681b      	ldr	r3, [r3, #0]
 8000a1c:	7d9b      	ldrb	r3, [r3, #22]
 8000a1e:	2b00      	cmp	r3, #0
 8000a20:	d017      	beq.n	8000a52 <Modbus_Protocal_Worker+0x7e>
 8000a22:	4b6e      	ldr	r3, [pc, #440]	@ (8000bdc <Modbus_Protocal_Worker+0x208>)
 8000a24:	681b      	ldr	r3, [r3, #0]
 8000a26:	2200      	movs	r2, #0
 8000a28:	751a      	strb	r2, [r3, #20]
 8000a2a:	4b6c      	ldr	r3, [pc, #432]	@ (8000bdc <Modbus_Protocal_Worker+0x208>)
 8000a2c:	681b      	ldr	r3, [r3, #0]
 8000a2e:	2200      	movs	r2, #0
 8000a30:	755a      	strb	r2, [r3, #21]
 8000a32:	4b6a      	ldr	r3, [pc, #424]	@ (8000bdc <Modbus_Protocal_Worker+0x208>)
 8000a34:	681b      	ldr	r3, [r3, #0]
 8000a36:	691b      	ldr	r3, [r3, #16]
 8000a38:	681b      	ldr	r3, [r3, #0]
 8000a3a:	681a      	ldr	r2, [r3, #0]
 8000a3c:	4b67      	ldr	r3, [pc, #412]	@ (8000bdc <Modbus_Protocal_Worker+0x208>)
 8000a3e:	681b      	ldr	r3, [r3, #0]
 8000a40:	691b      	ldr	r3, [r3, #16]
 8000a42:	681b      	ldr	r3, [r3, #0]
 8000a44:	f042 0201 	orr.w	r2, r2, #1
 8000a48:	601a      	str	r2, [r3, #0]
 8000a4a:	4b64      	ldr	r3, [pc, #400]	@ (8000bdc <Modbus_Protocal_Worker+0x208>)
 8000a4c:	681b      	ldr	r3, [r3, #0]
 8000a4e:	2203      	movs	r2, #3
 8000a50:	761a      	strb	r2, [r3, #24]
 8000a52:	4b62      	ldr	r3, [pc, #392]	@ (8000bdc <Modbus_Protocal_Worker+0x208>)
 8000a54:	681b      	ldr	r3, [r3, #0]
 8000a56:	68db      	ldr	r3, [r3, #12]
 8000a58:	f8d3 308c 	ldr.w	r3, [r3, #140]	@ 0x8c
 8000a5c:	2b20      	cmp	r3, #32
 8000a5e:	f040 80b2 	bne.w	8000bc6 <Modbus_Protocal_Worker+0x1f2>
 8000a62:	4b5e      	ldr	r3, [pc, #376]	@ (8000bdc <Modbus_Protocal_Worker+0x208>)
 8000a64:	681b      	ldr	r3, [r3, #0]
 8000a66:	2200      	movs	r2, #0
 8000a68:	f8a3 23a2 	strh.w	r2, [r3, #930]	@ 0x3a2
 8000a6c:	4b5b      	ldr	r3, [pc, #364]	@ (8000bdc <Modbus_Protocal_Worker+0x208>)
 8000a6e:	681b      	ldr	r3, [r3, #0]
 8000a70:	68d8      	ldr	r0, [r3, #12]
 8000a72:	4b5a      	ldr	r3, [pc, #360]	@ (8000bdc <Modbus_Protocal_Worker+0x208>)
 8000a74:	681a      	ldr	r2, [r3, #0]
 8000a76:	4b59      	ldr	r3, [pc, #356]	@ (8000bdc <Modbus_Protocal_Worker+0x208>)
 8000a78:	681b      	ldr	r3, [r3, #0]
 8000a7a:	f8b3 33a2 	ldrh.w	r3, [r3, #930]	@ 0x3a2
 8000a7e:	f503 731c 	add.w	r3, r3, #624	@ 0x270
 8000a82:	4413      	add	r3, r2
 8000a84:	3302      	adds	r3, #2
 8000a86:	2201      	movs	r2, #1
 8000a88:	4619      	mov	r1, r3
 8000a8a:	f006 fd49 	bl	8007520 <HAL_UART_Receive_IT>
 8000a8e:	e09a      	b.n	8000bc6 <Modbus_Protocal_Worker+0x1f2>
 8000a90:	4b52      	ldr	r3, [pc, #328]	@ (8000bdc <Modbus_Protocal_Worker+0x208>)
 8000a92:	681b      	ldr	r3, [r3, #0]
 8000a94:	7d1b      	ldrb	r3, [r3, #20]
 8000a96:	2b00      	cmp	r3, #0
 8000a98:	f000 8097 	beq.w	8000bca <Modbus_Protocal_Worker+0x1f6>
 8000a9c:	4b4f      	ldr	r3, [pc, #316]	@ (8000bdc <Modbus_Protocal_Worker+0x208>)
 8000a9e:	681b      	ldr	r3, [r3, #0]
 8000aa0:	2200      	movs	r2, #0
 8000aa2:	759a      	strb	r2, [r3, #22]
 8000aa4:	4b4d      	ldr	r3, [pc, #308]	@ (8000bdc <Modbus_Protocal_Worker+0x208>)
 8000aa6:	681b      	ldr	r3, [r3, #0]
 8000aa8:	22fe      	movs	r2, #254	@ 0xfe
 8000aaa:	75da      	strb	r2, [r3, #23]
 8000aac:	4b4b      	ldr	r3, [pc, #300]	@ (8000bdc <Modbus_Protocal_Worker+0x208>)
 8000aae:	681b      	ldr	r3, [r3, #0]
 8000ab0:	2204      	movs	r2, #4
 8000ab2:	761a      	strb	r2, [r3, #24]
 8000ab4:	e089      	b.n	8000bca <Modbus_Protocal_Worker+0x1f6>
 8000ab6:	4b49      	ldr	r3, [pc, #292]	@ (8000bdc <Modbus_Protocal_Worker+0x208>)
 8000ab8:	681b      	ldr	r3, [r3, #0]
 8000aba:	7d9b      	ldrb	r3, [r3, #22]
 8000abc:	2b00      	cmp	r3, #0
 8000abe:	d009      	beq.n	8000ad4 <Modbus_Protocal_Worker+0x100>
 8000ac0:	4b46      	ldr	r3, [pc, #280]	@ (8000bdc <Modbus_Protocal_Worker+0x208>)
 8000ac2:	681b      	ldr	r3, [r3, #0]
 8000ac4:	f993 3017 	ldrsb.w	r3, [r3, #23]
 8000ac8:	2b00      	cmp	r3, #0
 8000aca:	d103      	bne.n	8000ad4 <Modbus_Protocal_Worker+0x100>
 8000acc:	4b43      	ldr	r3, [pc, #268]	@ (8000bdc <Modbus_Protocal_Worker+0x208>)
 8000ace:	681b      	ldr	r3, [r3, #0]
 8000ad0:	22ff      	movs	r2, #255	@ 0xff
 8000ad2:	75da      	strb	r2, [r3, #23]
 8000ad4:	4b41      	ldr	r3, [pc, #260]	@ (8000bdc <Modbus_Protocal_Worker+0x208>)
 8000ad6:	681b      	ldr	r3, [r3, #0]
 8000ad8:	f993 3017 	ldrsb.w	r3, [r3, #23]
 8000adc:	f113 0f02 	cmn.w	r3, #2
 8000ae0:	d150      	bne.n	8000b84 <Modbus_Protocal_Worker+0x1b0>
 8000ae2:	4b3e      	ldr	r3, [pc, #248]	@ (8000bdc <Modbus_Protocal_Worker+0x208>)
 8000ae4:	681b      	ldr	r3, [r3, #0]
 8000ae6:	2200      	movs	r2, #0
 8000ae8:	75da      	strb	r2, [r3, #23]
 8000aea:	4b3c      	ldr	r3, [pc, #240]	@ (8000bdc <Modbus_Protocal_Worker+0x208>)
 8000aec:	681b      	ldr	r3, [r3, #0]
 8000aee:	f203 2272 	addw	r2, r3, #626	@ 0x272
 8000af2:	4b3a      	ldr	r3, [pc, #232]	@ (8000bdc <Modbus_Protocal_Worker+0x208>)
 8000af4:	681b      	ldr	r3, [r3, #0]
 8000af6:	f8b3 33a2 	ldrh.w	r3, [r3, #930]	@ 0x3a2
 8000afa:	3b02      	subs	r3, #2
 8000afc:	4619      	mov	r1, r3
 8000afe:	4610      	mov	r0, r2
 8000b00:	f7ff ff30 	bl	8000964 <CRC16>
 8000b04:	4603      	mov	r3, r0
 8000b06:	80bb      	strh	r3, [r7, #4]
 8000b08:	793a      	ldrb	r2, [r7, #4]
 8000b0a:	4b34      	ldr	r3, [pc, #208]	@ (8000bdc <Modbus_Protocal_Worker+0x208>)
 8000b0c:	6819      	ldr	r1, [r3, #0]
 8000b0e:	4b33      	ldr	r3, [pc, #204]	@ (8000bdc <Modbus_Protocal_Worker+0x208>)
 8000b10:	681b      	ldr	r3, [r3, #0]
 8000b12:	f8b3 33a2 	ldrh.w	r3, [r3, #930]	@ 0x3a2
 8000b16:	3b02      	subs	r3, #2
 8000b18:	440b      	add	r3, r1
 8000b1a:	f893 3272 	ldrb.w	r3, [r3, #626]	@ 0x272
 8000b1e:	429a      	cmp	r2, r3
 8000b20:	d10c      	bne.n	8000b3c <Modbus_Protocal_Worker+0x168>
 8000b22:	797a      	ldrb	r2, [r7, #5]
 8000b24:	4b2d      	ldr	r3, [pc, #180]	@ (8000bdc <Modbus_Protocal_Worker+0x208>)
 8000b26:	6819      	ldr	r1, [r3, #0]
 8000b28:	4b2c      	ldr	r3, [pc, #176]	@ (8000bdc <Modbus_Protocal_Worker+0x208>)
 8000b2a:	681b      	ldr	r3, [r3, #0]
 8000b2c:	f8b3 33a2 	ldrh.w	r3, [r3, #930]	@ 0x3a2
 8000b30:	3b01      	subs	r3, #1
 8000b32:	440b      	add	r3, r1
 8000b34:	f893 3272 	ldrb.w	r3, [r3, #626]	@ 0x272
 8000b38:	429a      	cmp	r2, r3
 8000b3a:	d004      	beq.n	8000b46 <Modbus_Protocal_Worker+0x172>
 8000b3c:	4b27      	ldr	r3, [pc, #156]	@ (8000bdc <Modbus_Protocal_Worker+0x208>)
 8000b3e:	681b      	ldr	r3, [r3, #0]
 8000b40:	22ff      	movs	r2, #255	@ 0xff
 8000b42:	75da      	strb	r2, [r3, #23]
 8000b44:	e046      	b.n	8000bd4 <Modbus_Protocal_Worker+0x200>
 8000b46:	4b25      	ldr	r3, [pc, #148]	@ (8000bdc <Modbus_Protocal_Worker+0x208>)
 8000b48:	681b      	ldr	r3, [r3, #0]
 8000b4a:	f893 2272 	ldrb.w	r2, [r3, #626]	@ 0x272
 8000b4e:	4b23      	ldr	r3, [pc, #140]	@ (8000bdc <Modbus_Protocal_Worker+0x208>)
 8000b50:	681b      	ldr	r3, [r3, #0]
 8000b52:	781b      	ldrb	r3, [r3, #0]
 8000b54:	429a      	cmp	r2, r3
 8000b56:	d113      	bne.n	8000b80 <Modbus_Protocal_Worker+0x1ac>
 8000b58:	4b20      	ldr	r3, [pc, #128]	@ (8000bdc <Modbus_Protocal_Worker+0x208>)
 8000b5a:	681b      	ldr	r3, [r3, #0]
 8000b5c:	f103 0019 	add.w	r0, r3, #25
 8000b60:	4b1e      	ldr	r3, [pc, #120]	@ (8000bdc <Modbus_Protocal_Worker+0x208>)
 8000b62:	681b      	ldr	r3, [r3, #0]
 8000b64:	f203 2372 	addw	r3, r3, #626	@ 0x272
 8000b68:	1c59      	adds	r1, r3, #1
 8000b6a:	4b1c      	ldr	r3, [pc, #112]	@ (8000bdc <Modbus_Protocal_Worker+0x208>)
 8000b6c:	681b      	ldr	r3, [r3, #0]
 8000b6e:	f8b3 33a2 	ldrh.w	r3, [r3, #930]	@ 0x3a2
 8000b72:	3b03      	subs	r3, #3
 8000b74:	461a      	mov	r2, r3
 8000b76:	f009 f83b 	bl	8009bf0 <memcpy>
 8000b7a:	f000 f909 	bl	8000d90 <Modbus_frame_response>
 8000b7e:	e001      	b.n	8000b84 <Modbus_Protocal_Worker+0x1b0>
 8000b80:	bf00      	nop
 8000b82:	e027      	b.n	8000bd4 <Modbus_Protocal_Worker+0x200>
 8000b84:	4b15      	ldr	r3, [pc, #84]	@ (8000bdc <Modbus_Protocal_Worker+0x208>)
 8000b86:	681b      	ldr	r3, [r3, #0]
 8000b88:	7d5b      	ldrb	r3, [r3, #21]
 8000b8a:	2b00      	cmp	r3, #0
 8000b8c:	d01f      	beq.n	8000bce <Modbus_Protocal_Worker+0x1fa>
 8000b8e:	4b13      	ldr	r3, [pc, #76]	@ (8000bdc <Modbus_Protocal_Worker+0x208>)
 8000b90:	681b      	ldr	r3, [r3, #0]
 8000b92:	2201      	movs	r2, #1
 8000b94:	761a      	strb	r2, [r3, #24]
 8000b96:	4b11      	ldr	r3, [pc, #68]	@ (8000bdc <Modbus_Protocal_Worker+0x208>)
 8000b98:	681b      	ldr	r3, [r3, #0]
 8000b9a:	68db      	ldr	r3, [r3, #12]
 8000b9c:	4618      	mov	r0, r3
 8000b9e:	f006 fd8b 	bl	80076b8 <HAL_UART_AbortReceive>
 8000ba2:	e014      	b.n	8000bce <Modbus_Protocal_Worker+0x1fa>
 8000ba4:	4b0d      	ldr	r3, [pc, #52]	@ (8000bdc <Modbus_Protocal_Worker+0x208>)
 8000ba6:	681b      	ldr	r3, [r3, #0]
 8000ba8:	68db      	ldr	r3, [r3, #12]
 8000baa:	f8d3 3088 	ldr.w	r3, [r3, #136]	@ 0x88
 8000bae:	2b20      	cmp	r3, #32
 8000bb0:	d10f      	bne.n	8000bd2 <Modbus_Protocal_Worker+0x1fe>
 8000bb2:	4b0a      	ldr	r3, [pc, #40]	@ (8000bdc <Modbus_Protocal_Worker+0x208>)
 8000bb4:	681b      	ldr	r3, [r3, #0]
 8000bb6:	2200      	movs	r2, #0
 8000bb8:	f883 2271 	strb.w	r2, [r3, #625]	@ 0x271
 8000bbc:	4b07      	ldr	r3, [pc, #28]	@ (8000bdc <Modbus_Protocal_Worker+0x208>)
 8000bbe:	681b      	ldr	r3, [r3, #0]
 8000bc0:	2201      	movs	r2, #1
 8000bc2:	761a      	strb	r2, [r3, #24]
 8000bc4:	e005      	b.n	8000bd2 <Modbus_Protocal_Worker+0x1fe>
 8000bc6:	bf00      	nop
 8000bc8:	e004      	b.n	8000bd4 <Modbus_Protocal_Worker+0x200>
 8000bca:	bf00      	nop
 8000bcc:	e002      	b.n	8000bd4 <Modbus_Protocal_Worker+0x200>
 8000bce:	bf00      	nop
 8000bd0:	e000      	b.n	8000bd4 <Modbus_Protocal_Worker+0x200>
 8000bd2:	bf00      	nop
 8000bd4:	bf00      	nop
 8000bd6:	3708      	adds	r7, #8
 8000bd8:	46bd      	mov	sp, r7
 8000bda:	bd80      	pop	{r7, pc}
 8000bdc:	20000230 	.word	0x20000230

08000be0 <modbusWrite1Register>:
 8000be0:	b580      	push	{r7, lr}
 8000be2:	b082      	sub	sp, #8
 8000be4:	af00      	add	r7, sp, #0
 8000be6:	4b1d      	ldr	r3, [pc, #116]	@ (8000c5c <modbusWrite1Register+0x7c>)
 8000be8:	681b      	ldr	r3, [r3, #0]
 8000bea:	7e9b      	ldrb	r3, [r3, #26]
 8000bec:	021b      	lsls	r3, r3, #8
 8000bee:	b29b      	uxth	r3, r3
 8000bf0:	4a1a      	ldr	r2, [pc, #104]	@ (8000c5c <modbusWrite1Register+0x7c>)
 8000bf2:	6812      	ldr	r2, [r2, #0]
 8000bf4:	7ed2      	ldrb	r2, [r2, #27]
 8000bf6:	4413      	add	r3, r2
 8000bf8:	80fb      	strh	r3, [r7, #6]
 8000bfa:	88fa      	ldrh	r2, [r7, #6]
 8000bfc:	4b17      	ldr	r3, [pc, #92]	@ (8000c5c <modbusWrite1Register+0x7c>)
 8000bfe:	681b      	ldr	r3, [r3, #0]
 8000c00:	689b      	ldr	r3, [r3, #8]
 8000c02:	429a      	cmp	r2, r3
 8000c04:	d903      	bls.n	8000c0e <modbusWrite1Register+0x2e>
 8000c06:	2002      	movs	r0, #2
 8000c08:	f000 f8a0 	bl	8000d4c <ModbusErrorReply>
 8000c0c:	e023      	b.n	8000c56 <modbusWrite1Register+0x76>
 8000c0e:	4b13      	ldr	r3, [pc, #76]	@ (8000c5c <modbusWrite1Register+0x7c>)
 8000c10:	681a      	ldr	r2, [r3, #0]
 8000c12:	4b12      	ldr	r3, [pc, #72]	@ (8000c5c <modbusWrite1Register+0x7c>)
 8000c14:	681b      	ldr	r3, [r3, #0]
 8000c16:	6859      	ldr	r1, [r3, #4]
 8000c18:	88fb      	ldrh	r3, [r7, #6]
 8000c1a:	005b      	lsls	r3, r3, #1
 8000c1c:	440b      	add	r3, r1
 8000c1e:	7f12      	ldrb	r2, [r2, #28]
 8000c20:	705a      	strb	r2, [r3, #1]
 8000c22:	4b0e      	ldr	r3, [pc, #56]	@ (8000c5c <modbusWrite1Register+0x7c>)
 8000c24:	681a      	ldr	r2, [r3, #0]
 8000c26:	4b0d      	ldr	r3, [pc, #52]	@ (8000c5c <modbusWrite1Register+0x7c>)
 8000c28:	681b      	ldr	r3, [r3, #0]
 8000c2a:	6859      	ldr	r1, [r3, #4]
 8000c2c:	88fb      	ldrh	r3, [r7, #6]
 8000c2e:	005b      	lsls	r3, r3, #1
 8000c30:	440b      	add	r3, r1
 8000c32:	7f52      	ldrb	r2, [r2, #29]
 8000c34:	701a      	strb	r2, [r3, #0]
 8000c36:	4b09      	ldr	r3, [pc, #36]	@ (8000c5c <modbusWrite1Register+0x7c>)
 8000c38:	681b      	ldr	r3, [r3, #0]
 8000c3a:	f203 1045 	addw	r0, r3, #325	@ 0x145
 8000c3e:	4b07      	ldr	r3, [pc, #28]	@ (8000c5c <modbusWrite1Register+0x7c>)
 8000c40:	681b      	ldr	r3, [r3, #0]
 8000c42:	3319      	adds	r3, #25
 8000c44:	2208      	movs	r2, #8
 8000c46:	4619      	mov	r1, r3
 8000c48:	f008 ffd2 	bl	8009bf0 <memcpy>
 8000c4c:	4b03      	ldr	r3, [pc, #12]	@ (8000c5c <modbusWrite1Register+0x7c>)
 8000c4e:	681b      	ldr	r3, [r3, #0]
 8000c50:	2205      	movs	r2, #5
 8000c52:	f883 2271 	strb.w	r2, [r3, #625]	@ 0x271
 8000c56:	3708      	adds	r7, #8
 8000c58:	46bd      	mov	sp, r7
 8000c5a:	bd80      	pop	{r7, pc}
 8000c5c:	20000230 	.word	0x20000230

08000c60 <modbusRead1Register>:
 8000c60:	b590      	push	{r4, r7, lr}
 8000c62:	b083      	sub	sp, #12
 8000c64:	af00      	add	r7, sp, #0
 8000c66:	4b38      	ldr	r3, [pc, #224]	@ (8000d48 <modbusRead1Register+0xe8>)
 8000c68:	681b      	ldr	r3, [r3, #0]
 8000c6a:	7f1b      	ldrb	r3, [r3, #28]
 8000c6c:	021b      	lsls	r3, r3, #8
 8000c6e:	b29b      	uxth	r3, r3
 8000c70:	4a35      	ldr	r2, [pc, #212]	@ (8000d48 <modbusRead1Register+0xe8>)
 8000c72:	6812      	ldr	r2, [r2, #0]
 8000c74:	7f52      	ldrb	r2, [r2, #29]
 8000c76:	4413      	add	r3, r2
 8000c78:	80fb      	strh	r3, [r7, #6]
 8000c7a:	4b33      	ldr	r3, [pc, #204]	@ (8000d48 <modbusRead1Register+0xe8>)
 8000c7c:	681b      	ldr	r3, [r3, #0]
 8000c7e:	7e9b      	ldrb	r3, [r3, #26]
 8000c80:	021b      	lsls	r3, r3, #8
 8000c82:	b29b      	uxth	r3, r3
 8000c84:	4a30      	ldr	r2, [pc, #192]	@ (8000d48 <modbusRead1Register+0xe8>)
 8000c86:	6812      	ldr	r2, [r2, #0]
 8000c88:	7ed2      	ldrb	r2, [r2, #27]
 8000c8a:	4413      	add	r3, r2
 8000c8c:	80bb      	strh	r3, [r7, #4]
 8000c8e:	88fb      	ldrh	r3, [r7, #6]
 8000c90:	2b00      	cmp	r3, #0
 8000c92:	d002      	beq.n	8000c9a <modbusRead1Register+0x3a>
 8000c94:	88fb      	ldrh	r3, [r7, #6]
 8000c96:	2b7d      	cmp	r3, #125	@ 0x7d
 8000c98:	d903      	bls.n	8000ca2 <modbusRead1Register+0x42>
 8000c9a:	2003      	movs	r0, #3
 8000c9c:	f000 f856 	bl	8000d4c <ModbusErrorReply>
 8000ca0:	e04e      	b.n	8000d40 <modbusRead1Register+0xe0>
 8000ca2:	88ba      	ldrh	r2, [r7, #4]
 8000ca4:	4b28      	ldr	r3, [pc, #160]	@ (8000d48 <modbusRead1Register+0xe8>)
 8000ca6:	681b      	ldr	r3, [r3, #0]
 8000ca8:	689b      	ldr	r3, [r3, #8]
 8000caa:	429a      	cmp	r2, r3
 8000cac:	d808      	bhi.n	8000cc0 <modbusRead1Register+0x60>
 8000cae:	88ba      	ldrh	r2, [r7, #4]
 8000cb0:	88fb      	ldrh	r3, [r7, #6]
 8000cb2:	4413      	add	r3, r2
 8000cb4:	461a      	mov	r2, r3
 8000cb6:	4b24      	ldr	r3, [pc, #144]	@ (8000d48 <modbusRead1Register+0xe8>)
 8000cb8:	681b      	ldr	r3, [r3, #0]
 8000cba:	689b      	ldr	r3, [r3, #8]
 8000cbc:	429a      	cmp	r2, r3
 8000cbe:	d903      	bls.n	8000cc8 <modbusRead1Register+0x68>
 8000cc0:	2002      	movs	r0, #2
 8000cc2:	f000 f843 	bl	8000d4c <ModbusErrorReply>
 8000cc6:	e03b      	b.n	8000d40 <modbusRead1Register+0xe0>
 8000cc8:	4b1f      	ldr	r3, [pc, #124]	@ (8000d48 <modbusRead1Register+0xe8>)
 8000cca:	681b      	ldr	r3, [r3, #0]
 8000ccc:	2203      	movs	r2, #3
 8000cce:	f883 2145 	strb.w	r2, [r3, #325]	@ 0x145
 8000cd2:	88fb      	ldrh	r3, [r7, #6]
 8000cd4:	b2da      	uxtb	r2, r3
 8000cd6:	4b1c      	ldr	r3, [pc, #112]	@ (8000d48 <modbusRead1Register+0xe8>)
 8000cd8:	681b      	ldr	r3, [r3, #0]
 8000cda:	0052      	lsls	r2, r2, #1
 8000cdc:	b2d2      	uxtb	r2, r2
 8000cde:	f883 2146 	strb.w	r2, [r3, #326]	@ 0x146
 8000ce2:	2400      	movs	r4, #0
 8000ce4:	e020      	b.n	8000d28 <modbusRead1Register+0xc8>
 8000ce6:	4b18      	ldr	r3, [pc, #96]	@ (8000d48 <modbusRead1Register+0xe8>)
 8000ce8:	681b      	ldr	r3, [r3, #0]
 8000cea:	685a      	ldr	r2, [r3, #4]
 8000cec:	88bb      	ldrh	r3, [r7, #4]
 8000cee:	4423      	add	r3, r4
 8000cf0:	005b      	lsls	r3, r3, #1
 8000cf2:	18d1      	adds	r1, r2, r3
 8000cf4:	4b14      	ldr	r3, [pc, #80]	@ (8000d48 <modbusRead1Register+0xe8>)
 8000cf6:	681a      	ldr	r2, [r3, #0]
 8000cf8:	1c63      	adds	r3, r4, #1
 8000cfa:	005b      	lsls	r3, r3, #1
 8000cfc:	7849      	ldrb	r1, [r1, #1]
 8000cfe:	4413      	add	r3, r2
 8000d00:	460a      	mov	r2, r1
 8000d02:	f883 2145 	strb.w	r2, [r3, #325]	@ 0x145
 8000d06:	4b10      	ldr	r3, [pc, #64]	@ (8000d48 <modbusRead1Register+0xe8>)
 8000d08:	681b      	ldr	r3, [r3, #0]
 8000d0a:	685a      	ldr	r2, [r3, #4]
 8000d0c:	88bb      	ldrh	r3, [r7, #4]
 8000d0e:	4423      	add	r3, r4
 8000d10:	005b      	lsls	r3, r3, #1
 8000d12:	18d1      	adds	r1, r2, r3
 8000d14:	4b0c      	ldr	r3, [pc, #48]	@ (8000d48 <modbusRead1Register+0xe8>)
 8000d16:	681a      	ldr	r2, [r3, #0]
 8000d18:	0063      	lsls	r3, r4, #1
 8000d1a:	3303      	adds	r3, #3
 8000d1c:	7809      	ldrb	r1, [r1, #0]
 8000d1e:	4413      	add	r3, r2
 8000d20:	460a      	mov	r2, r1
 8000d22:	f883 2145 	strb.w	r2, [r3, #325]	@ 0x145
 8000d26:	3401      	adds	r4, #1
 8000d28:	88fb      	ldrh	r3, [r7, #6]
 8000d2a:	429c      	cmp	r4, r3
 8000d2c:	dbdb      	blt.n	8000ce6 <modbusRead1Register+0x86>
 8000d2e:	88fb      	ldrh	r3, [r7, #6]
 8000d30:	3301      	adds	r3, #1
 8000d32:	b2da      	uxtb	r2, r3
 8000d34:	4b04      	ldr	r3, [pc, #16]	@ (8000d48 <modbusRead1Register+0xe8>)
 8000d36:	681b      	ldr	r3, [r3, #0]
 8000d38:	0052      	lsls	r2, r2, #1
 8000d3a:	b2d2      	uxtb	r2, r2
 8000d3c:	f883 2271 	strb.w	r2, [r3, #625]	@ 0x271
 8000d40:	370c      	adds	r7, #12
 8000d42:	46bd      	mov	sp, r7
 8000d44:	bd90      	pop	{r4, r7, pc}
 8000d46:	bf00      	nop
 8000d48:	20000230 	.word	0x20000230

08000d4c <ModbusErrorReply>:
 8000d4c:	b480      	push	{r7}
 8000d4e:	b083      	sub	sp, #12
 8000d50:	af00      	add	r7, sp, #0
 8000d52:	4603      	mov	r3, r0
 8000d54:	71fb      	strb	r3, [r7, #7]
 8000d56:	4b0d      	ldr	r3, [pc, #52]	@ (8000d8c <ModbusErrorReply+0x40>)
 8000d58:	681b      	ldr	r3, [r3, #0]
 8000d5a:	7e5a      	ldrb	r2, [r3, #25]
 8000d5c:	4b0b      	ldr	r3, [pc, #44]	@ (8000d8c <ModbusErrorReply+0x40>)
 8000d5e:	681b      	ldr	r3, [r3, #0]
 8000d60:	f062 027f 	orn	r2, r2, #127	@ 0x7f
 8000d64:	b2d2      	uxtb	r2, r2
 8000d66:	f883 2145 	strb.w	r2, [r3, #325]	@ 0x145
 8000d6a:	4b08      	ldr	r3, [pc, #32]	@ (8000d8c <ModbusErrorReply+0x40>)
 8000d6c:	681b      	ldr	r3, [r3, #0]
 8000d6e:	79fa      	ldrb	r2, [r7, #7]
 8000d70:	f883 2146 	strb.w	r2, [r3, #326]	@ 0x146
 8000d74:	4b05      	ldr	r3, [pc, #20]	@ (8000d8c <ModbusErrorReply+0x40>)
 8000d76:	681b      	ldr	r3, [r3, #0]
 8000d78:	2202      	movs	r2, #2
 8000d7a:	f883 2271 	strb.w	r2, [r3, #625]	@ 0x271
 8000d7e:	bf00      	nop
 8000d80:	370c      	adds	r7, #12
 8000d82:	46bd      	mov	sp, r7
 8000d84:	f85d 7b04 	ldr.w	r7, [sp], #4
 8000d88:	4770      	bx	lr
 8000d8a:	bf00      	nop
 8000d8c:	20000230 	.word	0x20000230

08000d90 <Modbus_frame_response>:
 8000d90:	b580      	push	{r7, lr}
 8000d92:	af00      	add	r7, sp, #0
 8000d94:	4b09      	ldr	r3, [pc, #36]	@ (8000dbc <Modbus_frame_response+0x2c>)
 8000d96:	681b      	ldr	r3, [r3, #0]
 8000d98:	7e5b      	ldrb	r3, [r3, #25]
 8000d9a:	2b03      	cmp	r3, #3
 8000d9c:	d004      	beq.n	8000da8 <Modbus_frame_response+0x18>
 8000d9e:	2b06      	cmp	r3, #6
 8000da0:	d105      	bne.n	8000dae <Modbus_frame_response+0x1e>
 8000da2:	f7ff ff1d 	bl	8000be0 <modbusWrite1Register>
 8000da6:	e006      	b.n	8000db6 <Modbus_frame_response+0x26>
 8000da8:	f7ff ff5a 	bl	8000c60 <modbusRead1Register>
 8000dac:	e003      	b.n	8000db6 <Modbus_frame_response+0x26>
 8000dae:	2001      	movs	r0, #1
 8000db0:	f7ff ffcc 	bl	8000d4c <ModbusErrorReply>
 8000db4:	bf00      	nop
 8000db6:	bf00      	nop
 8000db8:	bd80      	pop	{r7, pc}
 8000dba:	bf00      	nop
 8000dbc:	20000230 	.word	0x20000230

08000dc0 <Modbus_Emission>:
 8000dc0:	b580      	push	{r7, lr}
 8000dc2:	b082      	sub	sp, #8
 8000dc4:	af00      	add	r7, sp, #0
 8000dc6:	4b3c      	ldr	r3, [pc, #240]	@ (8000eb8 <Modbus_Emission+0xf8>)
 8000dc8:	681b      	ldr	r3, [r3, #0]
 8000dca:	68db      	ldr	r3, [r3, #12]
 8000dcc:	f8d3 3088 	ldr.w	r3, [r3, #136]	@ 0x88
 8000dd0:	2b20      	cmp	r3, #32
 8000dd2:	d15d      	bne.n	8000e90 <Modbus_Emission+0xd0>
 8000dd4:	4b38      	ldr	r3, [pc, #224]	@ (8000eb8 <Modbus_Emission+0xf8>)
 8000dd6:	681a      	ldr	r2, [r3, #0]
 8000dd8:	4b37      	ldr	r3, [pc, #220]	@ (8000eb8 <Modbus_Emission+0xf8>)
 8000dda:	681b      	ldr	r3, [r3, #0]
 8000ddc:	7812      	ldrb	r2, [r2, #0]
 8000dde:	f883 23a4 	strb.w	r2, [r3, #932]	@ 0x3a4
 8000de2:	4b35      	ldr	r3, [pc, #212]	@ (8000eb8 <Modbus_Emission+0xf8>)
 8000de4:	681b      	ldr	r3, [r3, #0]
 8000de6:	f503 7369 	add.w	r3, r3, #932	@ 0x3a4
 8000dea:	1c58      	adds	r0, r3, #1
 8000dec:	4b32      	ldr	r3, [pc, #200]	@ (8000eb8 <Modbus_Emission+0xf8>)
 8000dee:	681b      	ldr	r3, [r3, #0]
 8000df0:	f203 1145 	addw	r1, r3, #325	@ 0x145
 8000df4:	4b30      	ldr	r3, [pc, #192]	@ (8000eb8 <Modbus_Emission+0xf8>)
 8000df6:	681b      	ldr	r3, [r3, #0]
 8000df8:	f893 3271 	ldrb.w	r3, [r3, #625]	@ 0x271
 8000dfc:	461a      	mov	r2, r3
 8000dfe:	f008 fef7 	bl	8009bf0 <memcpy>
 8000e02:	4b2d      	ldr	r3, [pc, #180]	@ (8000eb8 <Modbus_Emission+0xf8>)
 8000e04:	681b      	ldr	r3, [r3, #0]
 8000e06:	f893 3271 	ldrb.w	r3, [r3, #625]	@ 0x271
 8000e0a:	461a      	mov	r2, r3
 8000e0c:	4b2a      	ldr	r3, [pc, #168]	@ (8000eb8 <Modbus_Emission+0xf8>)
 8000e0e:	681b      	ldr	r3, [r3, #0]
 8000e10:	3203      	adds	r2, #3
 8000e12:	b292      	uxth	r2, r2
 8000e14:	f8a3 24d4 	strh.w	r2, [r3, #1236]	@ 0x4d4
 8000e18:	4b27      	ldr	r3, [pc, #156]	@ (8000eb8 <Modbus_Emission+0xf8>)
 8000e1a:	681b      	ldr	r3, [r3, #0]
 8000e1c:	f503 7269 	add.w	r2, r3, #932	@ 0x3a4
 8000e20:	4b25      	ldr	r3, [pc, #148]	@ (8000eb8 <Modbus_Emission+0xf8>)
 8000e22:	681b      	ldr	r3, [r3, #0]
 8000e24:	f8b3 34d4 	ldrh.w	r3, [r3, #1236]	@ 0x4d4
 8000e28:	3b02      	subs	r3, #2
 8000e2a:	4619      	mov	r1, r3
 8000e2c:	4610      	mov	r0, r2
 8000e2e:	f7ff fd99 	bl	8000964 <CRC16>
 8000e32:	4603      	mov	r3, r0
 8000e34:	80bb      	strh	r3, [r7, #4]
 8000e36:	4b20      	ldr	r3, [pc, #128]	@ (8000eb8 <Modbus_Emission+0xf8>)
 8000e38:	681a      	ldr	r2, [r3, #0]
 8000e3a:	4b1f      	ldr	r3, [pc, #124]	@ (8000eb8 <Modbus_Emission+0xf8>)
 8000e3c:	681b      	ldr	r3, [r3, #0]
 8000e3e:	f8b3 34d4 	ldrh.w	r3, [r3, #1236]	@ 0x4d4
 8000e42:	3b02      	subs	r3, #2
 8000e44:	7939      	ldrb	r1, [r7, #4]
 8000e46:	4413      	add	r3, r2
 8000e48:	460a      	mov	r2, r1
 8000e4a:	f883 23a4 	strb.w	r2, [r3, #932]	@ 0x3a4
 8000e4e:	4b1a      	ldr	r3, [pc, #104]	@ (8000eb8 <Modbus_Emission+0xf8>)
 8000e50:	681a      	ldr	r2, [r3, #0]
 8000e52:	4b19      	ldr	r3, [pc, #100]	@ (8000eb8 <Modbus_Emission+0xf8>)
 8000e54:	681b      	ldr	r3, [r3, #0]
 8000e56:	f8b3 34d4 	ldrh.w	r3, [r3, #1236]	@ 0x4d4
 8000e5a:	3b01      	subs	r3, #1
 8000e5c:	7979      	ldrb	r1, [r7, #5]
 8000e5e:	4413      	add	r3, r2
 8000e60:	460a      	mov	r2, r1
 8000e62:	f883 23a4 	strb.w	r2, [r3, #932]	@ 0x3a4
 8000e66:	4b14      	ldr	r3, [pc, #80]	@ (8000eb8 <Modbus_Emission+0xf8>)
 8000e68:	681b      	ldr	r3, [r3, #0]
 8000e6a:	68db      	ldr	r3, [r3, #12]
 8000e6c:	f8d3 3088 	ldr.w	r3, [r3, #136]	@ 0x88
 8000e70:	2b20      	cmp	r3, #32
 8000e72:	d10d      	bne.n	8000e90 <Modbus_Emission+0xd0>
 8000e74:	4b10      	ldr	r3, [pc, #64]	@ (8000eb8 <Modbus_Emission+0xf8>)
 8000e76:	681b      	ldr	r3, [r3, #0]
 8000e78:	68d8      	ldr	r0, [r3, #12]
 8000e7a:	4b0f      	ldr	r3, [pc, #60]	@ (8000eb8 <Modbus_Emission+0xf8>)
 8000e7c:	681b      	ldr	r3, [r3, #0]
 8000e7e:	f503 7169 	add.w	r1, r3, #932	@ 0x3a4
 8000e82:	4b0d      	ldr	r3, [pc, #52]	@ (8000eb8 <Modbus_Emission+0xf8>)
 8000e84:	681b      	ldr	r3, [r3, #0]
 8000e86:	f8b3 34d4 	ldrh.w	r3, [r3, #1236]	@ 0x4d4
 8000e8a:	461a      	mov	r2, r3
 8000e8c:	f006 fb94 	bl	80075b8 <HAL_UART_Transmit_DMA>
 8000e90:	4b09      	ldr	r3, [pc, #36]	@ (8000eb8 <Modbus_Emission+0xf8>)
 8000e92:	681b      	ldr	r3, [r3, #0]
 8000e94:	2200      	movs	r2, #0
 8000e96:	751a      	strb	r2, [r3, #20]
 8000e98:	4b07      	ldr	r3, [pc, #28]	@ (8000eb8 <Modbus_Emission+0xf8>)
 8000e9a:	681b      	ldr	r3, [r3, #0]
 8000e9c:	2200      	movs	r2, #0
 8000e9e:	755a      	strb	r2, [r3, #21]
 8000ea0:	4b05      	ldr	r3, [pc, #20]	@ (8000eb8 <Modbus_Emission+0xf8>)
 8000ea2:	681b      	ldr	r3, [r3, #0]
 8000ea4:	2200      	movs	r2, #0
 8000ea6:	759a      	strb	r2, [r3, #22]
 8000ea8:	4b03      	ldr	r3, [pc, #12]	@ (8000eb8 <Modbus_Emission+0xf8>)
 8000eaa:	681b      	ldr	r3, [r3, #0]
 8000eac:	2202      	movs	r2, #2
 8000eae:	761a      	strb	r2, [r3, #24]
 8000eb0:	bf00      	nop
 8000eb2:	3708      	adds	r7, #8
 8000eb4:	46bd      	mov	sp, r7
 8000eb6:	bd80      	pop	{r7, pc}
 8000eb8:	20000230 	.word	0x20000230

08000ebc <main>:

/**
 * @brief  The application entry point.
 * @retval int
 */
int main(void) {
 8000ebc:	b580      	push	{r7, lr}
 8000ebe:	b08a      	sub	sp, #40	@ 0x28
 8000ec0:	af00      	add	r7, sp, #0
	/* USER CODE END 1 */

	/* MCU Configuration--------------------------------------------------------*/

	/* Reset of all peripherals, Initializes the Flash interface and the Systick. */
	HAL_Init();
 8000ec2:	f001 fa10 	bl	80022e6 <HAL_Init>

	/* USER CODE BEGIN Init */
	/* USER CODE END Init */

	/* Configure the system clock */
	SystemClock_Config();
 8000ec6:	f000 f92b 	bl	8001120 <SystemClock_Config>
	/* USER CODE BEGIN SysInit */

	/* USER CODE END SysInit */

	/* Initialize all configured peripherals */
	MX_GPIO_Init();
 8000eca:	f000 fda1 	bl	8001a10 <MX_GPIO_Init>
	MX_DMA_Init();
 8000ece:	f000 fd75 	bl	80019bc <MX_DMA_Init>
	MX_TIM3_Init();
 8000ed2:	f000 fa8d 	bl	80013f0 <MX_TIM3_Init>
	MX_ADC1_Init();
 8000ed6:	f000 f96f 	bl	80011b8 <MX_ADC1_Init>
	MX_TIM1_Init();
 8000eda:	f000 f9e7 	bl	80012ac <MX_TIM1_Init>
	MX_TIM2_Init();
 8000ede:	f000 fa39 	bl	8001354 <MX_TIM2_Init>
	MX_TIM4_Init();
 8000ee2:	f000 fadb 	bl	800149c <MX_TIM4_Init>
	MX_TIM20_Init();
 8000ee6:	f000 fc5f 	bl	80017a8 <MX_TIM20_Init>
	MX_TIM8_Init();
 8000eea:	f000 fb2d 	bl	8001548 <MX_TIM8_Init>
	MX_TIM16_Init();
 8000eee:	f000 fbdb 	bl	80016a8 <MX_TIM16_Init>
	MX_USART2_UART_Init();
 8000ef2:	f000 fd15 	bl	8001920 <MX_USART2_UART_Init>
	/* USER CODE BEGIN 2 */
	Encoder_Init(&encoder1, &htim4);
 8000ef6:	4978      	ldr	r1, [pc, #480]	@ (80010d8 <main+0x21c>)
 8000ef8:	4878      	ldr	r0, [pc, #480]	@ (80010dc <main+0x220>)
 8000efa:	f7ff fbb7 	bl	800066c <Encoder_Init>
	Encoder_Init(&encoder2, &htim3);
 8000efe:	4978      	ldr	r1, [pc, #480]	@ (80010e0 <main+0x224>)
 8000f00:	4878      	ldr	r0, [pc, #480]	@ (80010e4 <main+0x228>)
 8000f02:	f7ff fbb3 	bl	800066c <Encoder_Init>
	int lastTick = 0;
 8000f06:	2300      	movs	r3, #0
 8000f08:	627b      	str	r3, [r7, #36]	@ 0x24
	HAL_TIM_Encoder_Start(&htim3, TIM_CHANNEL_ALL);
 8000f0a:	213c      	movs	r1, #60	@ 0x3c
 8000f0c:	4874      	ldr	r0, [pc, #464]	@ (80010e0 <main+0x224>)
 8000f0e:	f004 fced 	bl	80058ec <HAL_TIM_Encoder_Start>
	HAL_TIM_Encoder_Start(&htim4, TIM_CHANNEL_ALL);
 8000f12:	213c      	movs	r1, #60	@ 0x3c
 8000f14:	4870      	ldr	r0, [pc, #448]	@ (80010d8 <main+0x21c>)
 8000f16:	f004 fce9 	bl	80058ec <HAL_TIM_Encoder_Start>

	hmodbus.huart = &huart2;
 8000f1a:	4b73      	ldr	r3, [pc, #460]	@ (80010e8 <main+0x22c>)
 8000f1c:	4a73      	ldr	r2, [pc, #460]	@ (80010ec <main+0x230>)
 8000f1e:	60da      	str	r2, [r3, #12]
	hmodbus.htim = &htim16;
 8000f20:	4b71      	ldr	r3, [pc, #452]	@ (80010e8 <main+0x22c>)
 8000f22:	4a73      	ldr	r2, [pc, #460]	@ (80010f0 <main+0x234>)
 8000f24:	611a      	str	r2, [r3, #16]
	hmodbus.slaveAddress = 0x15;
 8000f26:	4b70      	ldr	r3, [pc, #448]	@ (80010e8 <main+0x22c>)
 8000f28:	2215      	movs	r2, #21
 8000f2a:	701a      	strb	r2, [r3, #0]
	hmodbus.RegisterSize = 200;
 8000f2c:	4b6e      	ldr	r3, [pc, #440]	@ (80010e8 <main+0x22c>)
 8000f2e:	22c8      	movs	r2, #200	@ 0xc8
 8000f30:	609a      	str	r2, [r3, #8]
	Modbus_init(&hmodbus, registerFrame);
 8000f32:	4970      	ldr	r1, [pc, #448]	@ (80010f4 <main+0x238>)
 8000f34:	486c      	ldr	r0, [pc, #432]	@ (80010e8 <main+0x22c>)
 8000f36:	f7ff fcbf 	bl	80008b8 <Modbus_init>
//		float theta_pos = p2;
//		float r_Velo = v2;
//		float theta_Velo = v2;
//		float r_accel = a2;
//		float theta_accel = a2;
		Modbus_Protocal_Worker();
 8000f3a:	f7ff fd4b 	bl	80009d4 <Modbus_Protocal_Worker>
		//modbus_r_position(&hmodbus,7);
		hmodbus.RegisterAddress[0x00].U16 = 22881;
 8000f3e:	4b6a      	ldr	r3, [pc, #424]	@ (80010e8 <main+0x22c>)
 8000f40:	685b      	ldr	r3, [r3, #4]
 8000f42:	f645 1261 	movw	r2, #22881	@ 0x5961
 8000f46:	801a      	strh	r2, [r3, #0]
//		modbus_theta_velocity(&hmodbus,5);
//		modbus_r_acceleration(&hmodbus,5);
//		modbus_theta_acceleration(&hmodbus,5);
//		modbus_Update_All(&hmodbus, r_pos, theta_pos, r_Velo, theta_Velo,
//				r_accel, theta_accel);
		for (int i = 0; i < 10; i++) {
 8000f48:	2300      	movs	r3, #0
 8000f4a:	623b      	str	r3, [r7, #32]
 8000f4c:	e00f      	b.n	8000f6e <main+0xb2>
			set_Target_Position_ten_points(&hmodbus, i, i);
 8000f4e:	6a3b      	ldr	r3, [r7, #32]
 8000f50:	ee07 3a90 	vmov	s15, r3
 8000f54:	eef8 7ae7 	vcvt.f32.s32	s15, s15
 8000f58:	6a3b      	ldr	r3, [r7, #32]
 8000f5a:	b2db      	uxtb	r3, r3
 8000f5c:	4619      	mov	r1, r3
 8000f5e:	eeb0 0a67 	vmov.f32	s0, s15
 8000f62:	4861      	ldr	r0, [pc, #388]	@ (80010e8 <main+0x22c>)
 8000f64:	f7ff fb46 	bl	80005f4 <set_Target_Position_ten_points>
		for (int i = 0; i < 10; i++) {
 8000f68:	6a3b      	ldr	r3, [r7, #32]
 8000f6a:	3301      	adds	r3, #1
 8000f6c:	623b      	str	r3, [r7, #32]
 8000f6e:	6a3b      	ldr	r3, [r7, #32]
 8000f70:	2b09      	cmp	r3, #9
 8000f72:	ddec      	ble.n	8000f4e <main+0x92>
		}
		Goal_r_position = modbus_set_goal_r_position(&hmodbus);
 8000f74:	485c      	ldr	r0, [pc, #368]	@ (80010e8 <main+0x22c>)
 8000f76:	f7ff fb59 	bl	800062c <modbus_set_goal_r_position>
 8000f7a:	4603      	mov	r3, r0
 8000f7c:	ee07 3a90 	vmov	s15, r3
 8000f80:	eef8 7a67 	vcvt.f32.u32	s15, s15
 8000f84:	4b5c      	ldr	r3, [pc, #368]	@ (80010f8 <main+0x23c>)
 8000f86:	edc3 7a00 	vstr	s15, [r3]
		Goal_theta_position = modbus_set_goal_theta_position(&hmodbus);
 8000f8a:	4857      	ldr	r0, [pc, #348]	@ (80010e8 <main+0x22c>)
 8000f8c:	f7ff fb5e 	bl	800064c <modbus_set_goal_theta_position>
 8000f90:	4603      	mov	r3, r0
 8000f92:	ee07 3a90 	vmov	s15, r3
 8000f96:	eef8 7a67 	vcvt.f32.u32	s15, s15
 8000f9a:	4b58      	ldr	r3, [pc, #352]	@ (80010fc <main+0x240>)
 8000f9c:	edc3 7a00 	vstr	s15, [r3]
//		registerFrame[0x06].U16 = 7;
//		registerFrame[0x07].U16 = 8;
//		registerFrame[0x08].U16 = 9;
		//registerFrame[0x15].U16 = 10;
		//}
		uint32_t currentTick = HAL_GetTick();
 8000fa0:	f001 fa06 	bl	80023b0 <HAL_GetTick>
 8000fa4:	61f8      	str	r0, [r7, #28]
		float dt = (currentTick - lastTick) / 1000.0f;
 8000fa6:	6a7b      	ldr	r3, [r7, #36]	@ 0x24
 8000fa8:	69fa      	ldr	r2, [r7, #28]
 8000faa:	1ad3      	subs	r3, r2, r3
 8000fac:	ee07 3a90 	vmov	s15, r3
 8000fb0:	eeb8 7a67 	vcvt.f32.u32	s14, s15
 8000fb4:	eddf 6a52 	vldr	s13, [pc, #328]	@ 8001100 <main+0x244>
 8000fb8:	eec7 7a26 	vdiv.f32	s15, s14, s13
 8000fbc:	edc7 7a06 	vstr	s15, [r7, #24]
		//QEIReadRaw = __HAL_TIM_GET_COUNTER(&htim3);
		if (dt >= 0.01f) {
 8000fc0:	edd7 7a06 	vldr	s15, [r7, #24]
 8000fc4:	ed9f 7a4f 	vldr	s14, [pc, #316]	@ 8001104 <main+0x248>
 8000fc8:	eef4 7ac7 	vcmpe.f32	s15, s14
 8000fcc:	eef1 fa10 	vmrs	APSR_nzcv, fpscr
 8000fd0:	f2c0 8081 	blt.w	80010d6 <main+0x21a>
			Encoder_Update(&encoder1, dt);
 8000fd4:	ed97 0a06 	vldr	s0, [r7, #24]
 8000fd8:	4840      	ldr	r0, [pc, #256]	@ (80010dc <main+0x220>)
 8000fda:	f7ff fb71 	bl	80006c0 <Encoder_Update>
			Encoder_Update(&encoder2, dt);
 8000fde:	ed97 0a06 	vldr	s0, [r7, #24]
 8000fe2:	4840      	ldr	r0, [pc, #256]	@ (80010e4 <main+0x228>)
 8000fe4:	f7ff fb6c 	bl	80006c0 <Encoder_Update>
			lastTick = currentTick;
 8000fe8:	69fb      	ldr	r3, [r7, #28]
 8000fea:	627b      	str	r3, [r7, #36]	@ 0x24

			p1 = Encoder_GetPosition(&encoder1);
 8000fec:	483b      	ldr	r0, [pc, #236]	@ (80010dc <main+0x220>)
 8000fee:	f7ff fbe4 	bl	80007ba <Encoder_GetPosition>
 8000ff2:	eef0 7a40 	vmov.f32	s15, s0
 8000ff6:	4b44      	ldr	r3, [pc, #272]	@ (8001108 <main+0x24c>)
 8000ff8:	edc3 7a00 	vstr	s15, [r3]
			v1 = Encoder_GetVelocity(&encoder1);
 8000ffc:	4837      	ldr	r0, [pc, #220]	@ (80010dc <main+0x220>)
 8000ffe:	f7ff fbeb 	bl	80007d8 <Encoder_GetVelocity>
 8001002:	eef0 7a40 	vmov.f32	s15, s0
 8001006:	4b41      	ldr	r3, [pc, #260]	@ (800110c <main+0x250>)
 8001008:	edc3 7a00 	vstr	s15, [r3]
			a1 = Encoder_GetAcceleration(&encoder1);
 800100c:	4833      	ldr	r0, [pc, #204]	@ (80010dc <main+0x220>)
 800100e:	f7ff fbf2 	bl	80007f6 <Encoder_GetAcceleration>
 8001012:	eef0 7a40 	vmov.f32	s15, s0
 8001016:	4b3e      	ldr	r3, [pc, #248]	@ (8001110 <main+0x254>)
 8001018:	edc3 7a00 	vstr	s15, [r3]

			p2 = Encoder_GetPosition(&encoder2);
 800101c:	4831      	ldr	r0, [pc, #196]	@ (80010e4 <main+0x228>)
 800101e:	f7ff fbcc 	bl	80007ba <Encoder_GetPosition>
 8001022:	eef0 7a40 	vmov.f32	s15, s0
 8001026:	4b3b      	ldr	r3, [pc, #236]	@ (8001114 <main+0x258>)
 8001028:	edc3 7a00 	vstr	s15, [r3]
			v2 = Encoder_GetVelocity(&encoder2);
 800102c:	482d      	ldr	r0, [pc, #180]	@ (80010e4 <main+0x228>)
 800102e:	f7ff fbd3 	bl	80007d8 <Encoder_GetVelocity>
 8001032:	eef0 7a40 	vmov.f32	s15, s0
 8001036:	4b38      	ldr	r3, [pc, #224]	@ (8001118 <main+0x25c>)
 8001038:	edc3 7a00 	vstr	s15, [r3]
			a2 = Encoder_GetAcceleration(&encoder2);
 800103c:	4829      	ldr	r0, [pc, #164]	@ (80010e4 <main+0x228>)
 800103e:	f7ff fbda 	bl	80007f6 <Encoder_GetAcceleration>
 8001042:	eef0 7a40 	vmov.f32	s15, s0
 8001046:	4b35      	ldr	r3, [pc, #212]	@ (800111c <main+0x260>)
 8001048:	edc3 7a00 	vstr	s15, [r3]
			float r_pos = p2*10;
 800104c:	4b31      	ldr	r3, [pc, #196]	@ (8001114 <main+0x258>)
 800104e:	edd3 7a00 	vldr	s15, [r3]
 8001052:	eeb2 7a04 	vmov.f32	s14, #36	@ 0x41200000  10.0
 8001056:	ee67 7a87 	vmul.f32	s15, s15, s14
 800105a:	edc7 7a05 	vstr	s15, [r7, #20]
			float theta_pos = p2*10;
 800105e:	4b2d      	ldr	r3, [pc, #180]	@ (8001114 <main+0x258>)
 8001060:	edd3 7a00 	vldr	s15, [r3]
 8001064:	eeb2 7a04 	vmov.f32	s14, #36	@ 0x41200000  10.0
 8001068:	ee67 7a87 	vmul.f32	s15, s15, s14
 800106c:	edc7 7a04 	vstr	s15, [r7, #16]
			float r_Velo = v2*10;
 8001070:	4b29      	ldr	r3, [pc, #164]	@ (8001118 <main+0x25c>)
 8001072:	edd3 7a00 	vldr	s15, [r3]
 8001076:	eeb2 7a04 	vmov.f32	s14, #36	@ 0x41200000  10.0
 800107a:	ee67 7a87 	vmul.f32	s15, s15, s14
 800107e:	edc7 7a03 	vstr	s15, [r7, #12]
			float theta_Velo = v2*10;
 8001082:	4b25      	ldr	r3, [pc, #148]	@ (8001118 <main+0x25c>)
 8001084:	edd3 7a00 	vldr	s15, [r3]
 8001088:	eeb2 7a04 	vmov.f32	s14, #36	@ 0x41200000  10.0
 800108c:	ee67 7a87 	vmul.f32	s15, s15, s14
 8001090:	edc7 7a02 	vstr	s15, [r7, #8]
			float r_accel = a2*10;
 8001094:	4b21      	ldr	r3, [pc, #132]	@ (800111c <main+0x260>)
 8001096:	edd3 7a00 	vldr	s15, [r3]
 800109a:	eeb2 7a04 	vmov.f32	s14, #36	@ 0x41200000  10.0
 800109e:	ee67 7a87 	vmul.f32	s15, s15, s14
 80010a2:	edc7 7a01 	vstr	s15, [r7, #4]
			float theta_accel = a2*10;
 80010a6:	4b1d      	ldr	r3, [pc, #116]	@ (800111c <main+0x260>)
 80010a8:	edd3 7a00 	vldr	s15, [r3]
 80010ac:	eeb2 7a04 	vmov.f32	s14, #36	@ 0x41200000  10.0
 80010b0:	ee67 7a87 	vmul.f32	s15, s15, s14
 80010b4:	edc7 7a00 	vstr	s15, [r7]
			modbus_Update_All(&hmodbus, r_pos, theta_pos, r_Velo, theta_Velo,
 80010b8:	edd7 2a00 	vldr	s5, [r7]
 80010bc:	ed97 2a01 	vldr	s4, [r7, #4]
 80010c0:	edd7 1a02 	vldr	s3, [r7, #8]
 80010c4:	ed97 1a03 	vldr	s2, [r7, #12]
 80010c8:	edd7 0a04 	vldr	s1, [r7, #16]
 80010cc:	ed97 0a05 	vldr	s0, [r7, #20]
 80010d0:	4805      	ldr	r0, [pc, #20]	@ (80010e8 <main+0x22c>)
 80010d2:	f7ff fa37 	bl	8000544 <modbus_Update_All>
	while (1) {
 80010d6:	e730      	b.n	8000f3a <main+0x7e>
 80010d8:	20000504 	.word	0x20000504
 80010dc:	20000960 	.word	0x20000960
 80010e0:	20000438 	.word	0x20000438
 80010e4:	2000097c 	.word	0x2000097c
 80010e8:	200009b4 	.word	0x200009b4
 80010ec:	20000834 	.word	0x20000834
 80010f0:	2000069c 	.word	0x2000069c
 80010f4:	20000e8c 	.word	0x20000e8c
 80010f8:	20000200 	.word	0x20000200
 80010fc:	20000204 	.word	0x20000204
 8001100:	447a0000 	.word	0x447a0000
 8001104:	3c23d70a 	.word	0x3c23d70a
 8001108:	20000998 	.word	0x20000998
 800110c:	2000099c 	.word	0x2000099c
 8001110:	200009a0 	.word	0x200009a0
 8001114:	200009a4 	.word	0x200009a4
 8001118:	200009a8 	.word	0x200009a8
 800111c:	200009ac 	.word	0x200009ac

08001120 <SystemClock_Config>:

/**
 * @brief System Clock Configuration
 * @retval None
 */
void SystemClock_Config(void) {
 8001120:	b580      	push	{r7, lr}
 8001122:	b094      	sub	sp, #80	@ 0x50
 8001124:	af00      	add	r7, sp, #0
	RCC_OscInitTypeDef RCC_OscInitStruct = { 0 };
 8001126:	f107 0318 	add.w	r3, r7, #24
 800112a:	2238      	movs	r2, #56	@ 0x38
 800112c:	2100      	movs	r1, #0
 800112e:	4618      	mov	r0, r3
 8001130:	f008 fd32 	bl	8009b98 <memset>
	RCC_ClkInitTypeDef RCC_ClkInitStruct = { 0 };
 8001134:	1d3b      	adds	r3, r7, #4
 8001136:	2200      	movs	r2, #0
 8001138:	601a      	str	r2, [r3, #0]
 800113a:	605a      	str	r2, [r3, #4]
 800113c:	609a      	str	r2, [r3, #8]
 800113e:	60da      	str	r2, [r3, #12]
 8001140:	611a      	str	r2, [r3, #16]

	/** Configure the main internal regulator output voltage
	 */
	HAL_PWREx_ControlVoltageScaling(PWR_REGULATOR_VOLTAGE_SCALE1_BOOST);
 8001142:	2000      	movs	r0, #0
 8001144:	f003 f840 	bl	80041c8 <HAL_PWREx_ControlVoltageScaling>

	/** Initializes the RCC Oscillators according to the specified parameters
	 * in the RCC_OscInitTypeDef structure.
	 */
	RCC_OscInitStruct.OscillatorType = RCC_OSCILLATORTYPE_HSI;
 8001148:	2302      	movs	r3, #2
 800114a:	61bb      	str	r3, [r7, #24]
	RCC_OscInitStruct.HSIState = RCC_HSI_ON;
 800114c:	f44f 7380 	mov.w	r3, #256	@ 0x100
 8001150:	627b      	str	r3, [r7, #36]	@ 0x24
	RCC_OscInitStruct.HSICalibrationValue = RCC_HSICALIBRATION_DEFAULT;
 8001152:	2340      	movs	r3, #64	@ 0x40
 8001154:	62bb      	str	r3, [r7, #40]	@ 0x28
	RCC_OscInitStruct.PLL.PLLState = RCC_PLL_ON;
 8001156:	2302      	movs	r3, #2
 8001158:	637b      	str	r3, [r7, #52]	@ 0x34
	RCC_OscInitStruct.PLL.PLLSource = RCC_PLLSOURCE_HSI;
 800115a:	2302      	movs	r3, #2
 800115c:	63bb      	str	r3, [r7, #56]	@ 0x38
	RCC_OscInitStruct.PLL.PLLM = RCC_PLLM_DIV4;
 800115e:	2304      	movs	r3, #4
 8001160:	63fb      	str	r3, [r7, #60]	@ 0x3c
	RCC_OscInitStruct.PLL.PLLN = 85;
 8001162:	2355      	movs	r3, #85	@ 0x55
 8001164:	643b      	str	r3, [r7, #64]	@ 0x40
	RCC_OscInitStruct.PLL.PLLP = RCC_PLLP_DIV2;
 8001166:	2302      	movs	r3, #2
 8001168:	647b      	str	r3, [r7, #68]	@ 0x44
	RCC_OscInitStruct.PLL.PLLQ = RCC_PLLQ_DIV2;
 800116a:	2302      	movs	r3, #2
 800116c:	64bb      	str	r3, [r7, #72]	@ 0x48
	RCC_OscInitStruct.PLL.PLLR = RCC_PLLR_DIV2;
 800116e:	2302      	movs	r3, #2
 8001170:	64fb      	str	r3, [r7, #76]	@ 0x4c
	if (HAL_RCC_OscConfig(&RCC_OscInitStruct) != HAL_OK) {
 8001172:	f107 0318 	add.w	r3, r7, #24
 8001176:	4618      	mov	r0, r3
 8001178:	f003 f8da 	bl	8004330 <HAL_RCC_OscConfig>
 800117c:	4603      	mov	r3, r0
 800117e:	2b00      	cmp	r3, #0
 8001180:	d001      	beq.n	8001186 <SystemClock_Config+0x66>
		Error_Handler();
 8001182:	f000 fd3b 	bl	8001bfc <Error_Handler>
	}

	/** Initializes the CPU, AHB and APB buses clocks
	 */
	RCC_ClkInitStruct.ClockType = RCC_CLOCKTYPE_HCLK | RCC_CLOCKTYPE_SYSCLK
 8001186:	230f      	movs	r3, #15
 8001188:	607b      	str	r3, [r7, #4]
			| RCC_CLOCKTYPE_PCLK1 | RCC_CLOCKTYPE_PCLK2;
	RCC_ClkInitStruct.SYSCLKSource = RCC_SYSCLKSOURCE_PLLCLK;
 800118a:	2303      	movs	r3, #3
 800118c:	60bb      	str	r3, [r7, #8]
	RCC_ClkInitStruct.AHBCLKDivider = RCC_SYSCLK_DIV1;
 800118e:	2300      	movs	r3, #0
 8001190:	60fb      	str	r3, [r7, #12]
	RCC_ClkInitStruct.APB1CLKDivider = RCC_HCLK_DIV1;
 8001192:	2300      	movs	r3, #0
 8001194:	613b      	str	r3, [r7, #16]
	RCC_ClkInitStruct.APB2CLKDivider = RCC_HCLK_DIV1;
 8001196:	2300      	movs	r3, #0
 8001198:	617b      	str	r3, [r7, #20]

	if (HAL_RCC_ClockConfig(&RCC_ClkInitStruct, FLASH_LATENCY_4) != HAL_OK) {
 800119a:	1d3b      	adds	r3, r7, #4
 800119c:	2104      	movs	r1, #4
 800119e:	4618      	mov	r0, r3
 80011a0:	f003 fbd8 	bl	8004954 <HAL_RCC_ClockConfig>
 80011a4:	4603      	mov	r3, r0
 80011a6:	2b00      	cmp	r3, #0
 80011a8:	d001      	beq.n	80011ae <SystemClock_Config+0x8e>
		Error_Handler();
 80011aa:	f000 fd27 	bl	8001bfc <Error_Handler>
	}
}
 80011ae:	bf00      	nop
 80011b0:	3750      	adds	r7, #80	@ 0x50
 80011b2:	46bd      	mov	sp, r7
 80011b4:	bd80      	pop	{r7, pc}
	...

080011b8 <MX_ADC1_Init>:
/**
 * @brief ADC1 Initialization Function
 * @param None
 * @retval None
 */
static void MX_ADC1_Init(void) {
 80011b8:	b580      	push	{r7, lr}
 80011ba:	b08c      	sub	sp, #48	@ 0x30
 80011bc:	af00      	add	r7, sp, #0

	/* USER CODE BEGIN ADC1_Init 0 */

	/* USER CODE END ADC1_Init 0 */

	ADC_MultiModeTypeDef multimode = { 0 };
 80011be:	f107 0324 	add.w	r3, r7, #36	@ 0x24
 80011c2:	2200      	movs	r2, #0
 80011c4:	601a      	str	r2, [r3, #0]
 80011c6:	605a      	str	r2, [r3, #4]
 80011c8:	609a      	str	r2, [r3, #8]
	ADC_ChannelConfTypeDef sConfig = { 0 };
 80011ca:	1d3b      	adds	r3, r7, #4
 80011cc:	2220      	movs	r2, #32
 80011ce:	2100      	movs	r1, #0
 80011d0:	4618      	mov	r0, r3
 80011d2:	f008 fce1 	bl	8009b98 <memset>

	/* USER CODE END ADC1_Init 1 */

	/** Common config
	 */
	hadc1.Instance = ADC1;
 80011d6:	4b32      	ldr	r3, [pc, #200]	@ (80012a0 <MX_ADC1_Init+0xe8>)
 80011d8:	f04f 42a0 	mov.w	r2, #1342177280	@ 0x50000000
 80011dc:	601a      	str	r2, [r3, #0]
	hadc1.Init.ClockPrescaler = ADC_CLOCK_SYNC_PCLK_DIV4;
 80011de:	4b30      	ldr	r3, [pc, #192]	@ (80012a0 <MX_ADC1_Init+0xe8>)
 80011e0:	f44f 3240 	mov.w	r2, #196608	@ 0x30000
 80011e4:	605a      	str	r2, [r3, #4]
	hadc1.Init.Resolution = ADC_RESOLUTION_12B;
 80011e6:	4b2e      	ldr	r3, [pc, #184]	@ (80012a0 <MX_ADC1_Init+0xe8>)
 80011e8:	2200      	movs	r2, #0
 80011ea:	609a      	str	r2, [r3, #8]
	hadc1.Init.DataAlign = ADC_DATAALIGN_RIGHT;
 80011ec:	4b2c      	ldr	r3, [pc, #176]	@ (80012a0 <MX_ADC1_Init+0xe8>)
 80011ee:	2200      	movs	r2, #0
 80011f0:	60da      	str	r2, [r3, #12]
	hadc1.Init.GainCompensation = 0;
 80011f2:	4b2b      	ldr	r3, [pc, #172]	@ (80012a0 <MX_ADC1_Init+0xe8>)
 80011f4:	2200      	movs	r2, #0
 80011f6:	611a      	str	r2, [r3, #16]
	hadc1.Init.ScanConvMode = ADC_SCAN_DISABLE;
 80011f8:	4b29      	ldr	r3, [pc, #164]	@ (80012a0 <MX_ADC1_Init+0xe8>)
 80011fa:	2200      	movs	r2, #0
 80011fc:	615a      	str	r2, [r3, #20]
	hadc1.Init.EOCSelection = ADC_EOC_SINGLE_CONV;
 80011fe:	4b28      	ldr	r3, [pc, #160]	@ (80012a0 <MX_ADC1_Init+0xe8>)
 8001200:	2204      	movs	r2, #4
 8001202:	619a      	str	r2, [r3, #24]
	hadc1.Init.LowPowerAutoWait = DISABLE;
 8001204:	4b26      	ldr	r3, [pc, #152]	@ (80012a0 <MX_ADC1_Init+0xe8>)
 8001206:	2200      	movs	r2, #0
 8001208:	771a      	strb	r2, [r3, #28]
	hadc1.Init.ContinuousConvMode = DISABLE;
 800120a:	4b25      	ldr	r3, [pc, #148]	@ (80012a0 <MX_ADC1_Init+0xe8>)
 800120c:	2200      	movs	r2, #0
 800120e:	775a      	strb	r2, [r3, #29]
	hadc1.Init.NbrOfConversion = 1;
 8001210:	4b23      	ldr	r3, [pc, #140]	@ (80012a0 <MX_ADC1_Init+0xe8>)
 8001212:	2201      	movs	r2, #1
 8001214:	621a      	str	r2, [r3, #32]
	hadc1.Init.DiscontinuousConvMode = DISABLE;
 8001216:	4b22      	ldr	r3, [pc, #136]	@ (80012a0 <MX_ADC1_Init+0xe8>)
 8001218:	2200      	movs	r2, #0
 800121a:	f883 2024 	strb.w	r2, [r3, #36]	@ 0x24
	hadc1.Init.ExternalTrigConv = ADC_SOFTWARE_START;
 800121e:	4b20      	ldr	r3, [pc, #128]	@ (80012a0 <MX_ADC1_Init+0xe8>)
 8001220:	2200      	movs	r2, #0
 8001222:	62da      	str	r2, [r3, #44]	@ 0x2c
	hadc1.Init.ExternalTrigConvEdge = ADC_EXTERNALTRIGCONVEDGE_NONE;
 8001224:	4b1e      	ldr	r3, [pc, #120]	@ (80012a0 <MX_ADC1_Init+0xe8>)
 8001226:	2200      	movs	r2, #0
 8001228:	631a      	str	r2, [r3, #48]	@ 0x30
	hadc1.Init.DMAContinuousRequests = DISABLE;
 800122a:	4b1d      	ldr	r3, [pc, #116]	@ (80012a0 <MX_ADC1_Init+0xe8>)
 800122c:	2200      	movs	r2, #0
 800122e:	f883 2038 	strb.w	r2, [r3, #56]	@ 0x38
	hadc1.Init.Overrun = ADC_OVR_DATA_PRESERVED;
 8001232:	4b1b      	ldr	r3, [pc, #108]	@ (80012a0 <MX_ADC1_Init+0xe8>)
 8001234:	2200      	movs	r2, #0
 8001236:	63da      	str	r2, [r3, #60]	@ 0x3c
	hadc1.Init.OversamplingMode = DISABLE;
 8001238:	4b19      	ldr	r3, [pc, #100]	@ (80012a0 <MX_ADC1_Init+0xe8>)
 800123a:	2200      	movs	r2, #0
 800123c:	f883 2040 	strb.w	r2, [r3, #64]	@ 0x40
	if (HAL_ADC_Init(&hadc1) != HAL_OK) {
 8001240:	4817      	ldr	r0, [pc, #92]	@ (80012a0 <MX_ADC1_Init+0xe8>)
 8001242:	f001 fa97 	bl	8002774 <HAL_ADC_Init>
 8001246:	4603      	mov	r3, r0
 8001248:	2b00      	cmp	r3, #0
 800124a:	d001      	beq.n	8001250 <MX_ADC1_Init+0x98>
		Error_Handler();
 800124c:	f000 fcd6 	bl	8001bfc <Error_Handler>
	}

	/** Configure the ADC multi-mode
	 */
	multimode.Mode = ADC_MODE_INDEPENDENT;
 8001250:	2300      	movs	r3, #0
 8001252:	627b      	str	r3, [r7, #36]	@ 0x24
	if (HAL_ADCEx_MultiModeConfigChannel(&hadc1, &multimode) != HAL_OK) {
 8001254:	f107 0324 	add.w	r3, r7, #36	@ 0x24
 8001258:	4619      	mov	r1, r3
 800125a:	4811      	ldr	r0, [pc, #68]	@ (80012a0 <MX_ADC1_Init+0xe8>)
 800125c:	f002 f8ac 	bl	80033b8 <HAL_ADCEx_MultiModeConfigChannel>
 8001260:	4603      	mov	r3, r0
 8001262:	2b00      	cmp	r3, #0
 8001264:	d001      	beq.n	800126a <MX_ADC1_Init+0xb2>
		Error_Handler();
 8001266:	f000 fcc9 	bl	8001bfc <Error_Handler>
	}

	/** Configure Regular Channel
	 */
	sConfig.Channel = ADC_CHANNEL_1;
 800126a:	4b0e      	ldr	r3, [pc, #56]	@ (80012a4 <MX_ADC1_Init+0xec>)
 800126c:	607b      	str	r3, [r7, #4]
	sConfig.Rank = ADC_REGULAR_RANK_1;
 800126e:	2306      	movs	r3, #6
 8001270:	60bb      	str	r3, [r7, #8]
	sConfig.SamplingTime = ADC_SAMPLETIME_2CYCLES_5;
 8001272:	2300      	movs	r3, #0
 8001274:	60fb      	str	r3, [r7, #12]
	sConfig.SingleDiff = ADC_DIFFERENTIAL_ENDED;
 8001276:	4b0c      	ldr	r3, [pc, #48]	@ (80012a8 <MX_ADC1_Init+0xf0>)
 8001278:	613b      	str	r3, [r7, #16]
	sConfig.OffsetNumber = ADC_OFFSET_NONE;
 800127a:	2304      	movs	r3, #4
 800127c:	617b      	str	r3, [r7, #20]
	sConfig.Offset = 0;
 800127e:	2300      	movs	r3, #0
 8001280:	61bb      	str	r3, [r7, #24]
	if (HAL_ADC_ConfigChannel(&hadc1, &sConfig) != HAL_OK) {
 8001282:	1d3b      	adds	r3, r7, #4
 8001284:	4619      	mov	r1, r3
 8001286:	4806      	ldr	r0, [pc, #24]	@ (80012a0 <MX_ADC1_Init+0xe8>)
 8001288:	f001 fc30 	bl	8002aec <HAL_ADC_ConfigChannel>
 800128c:	4603      	mov	r3, r0
 800128e:	2b00      	cmp	r3, #0
 8001290:	d001      	beq.n	8001296 <MX_ADC1_Init+0xde>
		Error_Handler();
 8001292:	f000 fcb3 	bl	8001bfc <Error_Handler>
	}
	/* USER CODE BEGIN ADC1_Init 2 */

	/* USER CODE END ADC1_Init 2 */

}
 8001296:	bf00      	nop
 8001298:	3730      	adds	r7, #48	@ 0x30
 800129a:	46bd      	mov	sp, r7
 800129c:	bd80      	pop	{r7, pc}
 800129e:	bf00      	nop
 80012a0:	20000234 	.word	0x20000234
 80012a4:	04300002 	.word	0x04300002
 80012a8:	407f0000 	.word	0x407f0000

080012ac <MX_TIM1_Init>:
/**
 * @brief TIM1 Initialization Function
 * @param None
 * @retval None
 */
static void MX_TIM1_Init(void) {
 80012ac:	b580      	push	{r7, lr}
 80012ae:	b088      	sub	sp, #32
 80012b0:	af00      	add	r7, sp, #0

	/* USER CODE BEGIN TIM1_Init 0 */

	/* USER CODE END TIM1_Init 0 */

	TIM_ClockConfigTypeDef sClockSourceConfig = { 0 };
 80012b2:	f107 0310 	add.w	r3, r7, #16
 80012b6:	2200      	movs	r2, #0
 80012b8:	601a      	str	r2, [r3, #0]
 80012ba:	605a      	str	r2, [r3, #4]
 80012bc:	609a      	str	r2, [r3, #8]
 80012be:	60da      	str	r2, [r3, #12]
	TIM_MasterConfigTypeDef sMasterConfig = { 0 };
 80012c0:	1d3b      	adds	r3, r7, #4
 80012c2:	2200      	movs	r2, #0
 80012c4:	601a      	str	r2, [r3, #0]
 80012c6:	605a      	str	r2, [r3, #4]
 80012c8:	609a      	str	r2, [r3, #8]

	/* USER CODE BEGIN TIM1_Init 1 */

	/* USER CODE END TIM1_Init 1 */
	htim1.Instance = TIM1;
 80012ca:	4b20      	ldr	r3, [pc, #128]	@ (800134c <MX_TIM1_Init+0xa0>)
 80012cc:	4a20      	ldr	r2, [pc, #128]	@ (8001350 <MX_TIM1_Init+0xa4>)
 80012ce:	601a      	str	r2, [r3, #0]
	htim1.Init.Prescaler = 0;
 80012d0:	4b1e      	ldr	r3, [pc, #120]	@ (800134c <MX_TIM1_Init+0xa0>)
 80012d2:	2200      	movs	r2, #0
 80012d4:	605a      	str	r2, [r3, #4]
	htim1.Init.CounterMode = TIM_COUNTERMODE_UP;
 80012d6:	4b1d      	ldr	r3, [pc, #116]	@ (800134c <MX_TIM1_Init+0xa0>)
 80012d8:	2200      	movs	r2, #0
 80012da:	609a      	str	r2, [r3, #8]
	htim1.Init.Period = 60000;
 80012dc:	4b1b      	ldr	r3, [pc, #108]	@ (800134c <MX_TIM1_Init+0xa0>)
 80012de:	f64e 2260 	movw	r2, #60000	@ 0xea60
 80012e2:	60da      	str	r2, [r3, #12]
	htim1.Init.ClockDivision = TIM_CLOCKDIVISION_DIV1;
 80012e4:	4b19      	ldr	r3, [pc, #100]	@ (800134c <MX_TIM1_Init+0xa0>)
 80012e6:	2200      	movs	r2, #0
 80012e8:	611a      	str	r2, [r3, #16]
	htim1.Init.RepetitionCounter = 0;
 80012ea:	4b18      	ldr	r3, [pc, #96]	@ (800134c <MX_TIM1_Init+0xa0>)
 80012ec:	2200      	movs	r2, #0
 80012ee:	615a      	str	r2, [r3, #20]
	htim1.Init.AutoReloadPreload = TIM_AUTORELOAD_PRELOAD_DISABLE;
 80012f0:	4b16      	ldr	r3, [pc, #88]	@ (800134c <MX_TIM1_Init+0xa0>)
 80012f2:	2200      	movs	r2, #0
 80012f4:	619a      	str	r2, [r3, #24]
	if (HAL_TIM_Base_Init(&htim1) != HAL_OK) {
 80012f6:	4815      	ldr	r0, [pc, #84]	@ (800134c <MX_TIM1_Init+0xa0>)
 80012f8:	f003 ff96 	bl	8005228 <HAL_TIM_Base_Init>
 80012fc:	4603      	mov	r3, r0
 80012fe:	2b00      	cmp	r3, #0
 8001300:	d001      	beq.n	8001306 <MX_TIM1_Init+0x5a>
		Error_Handler();
 8001302:	f000 fc7b 	bl	8001bfc <Error_Handler>
	}
	sClockSourceConfig.ClockSource = TIM_CLOCKSOURCE_INTERNAL;
 8001306:	f44f 5380 	mov.w	r3, #4096	@ 0x1000
 800130a:	613b      	str	r3, [r7, #16]
	if (HAL_TIM_ConfigClockSource(&htim1, &sClockSourceConfig) != HAL_OK) {
 800130c:	f107 0310 	add.w	r3, r7, #16
 8001310:	4619      	mov	r1, r3
 8001312:	480e      	ldr	r0, [pc, #56]	@ (800134c <MX_TIM1_Init+0xa0>)
 8001314:	f004 fe80 	bl	8006018 <HAL_TIM_ConfigClockSource>
 8001318:	4603      	mov	r3, r0
 800131a:	2b00      	cmp	r3, #0
 800131c:	d001      	beq.n	8001322 <MX_TIM1_Init+0x76>
		Error_Handler();
 800131e:	f000 fc6d 	bl	8001bfc <Error_Handler>
	}
	sMasterConfig.MasterOutputTrigger = TIM_TRGO_RESET;
 8001322:	2300      	movs	r3, #0
 8001324:	607b      	str	r3, [r7, #4]
	sMasterConfig.MasterOutputTrigger2 = TIM_TRGO2_RESET;
 8001326:	2300      	movs	r3, #0
 8001328:	60bb      	str	r3, [r7, #8]
	sMasterConfig.MasterSlaveMode = TIM_MASTERSLAVEMODE_DISABLE;
 800132a:	2300      	movs	r3, #0
 800132c:	60fb      	str	r3, [r7, #12]
	if (HAL_TIMEx_MasterConfigSynchronization(&htim1, &sMasterConfig)
 800132e:	1d3b      	adds	r3, r7, #4
 8001330:	4619      	mov	r1, r3
 8001332:	4806      	ldr	r0, [pc, #24]	@ (800134c <MX_TIM1_Init+0xa0>)
 8001334:	f005 fe60 	bl	8006ff8 <HAL_TIMEx_MasterConfigSynchronization>
 8001338:	4603      	mov	r3, r0
 800133a:	2b00      	cmp	r3, #0
 800133c:	d001      	beq.n	8001342 <MX_TIM1_Init+0x96>
			!= HAL_OK) {
		Error_Handler();
 800133e:	f000 fc5d 	bl	8001bfc <Error_Handler>
	}
	/* USER CODE BEGIN TIM1_Init 2 */

	/* USER CODE END TIM1_Init 2 */

}
 8001342:	bf00      	nop
 8001344:	3720      	adds	r7, #32
 8001346:	46bd      	mov	sp, r7
 8001348:	bd80      	pop	{r7, pc}
 800134a:	bf00      	nop
 800134c:	200002a0 	.word	0x200002a0
 8001350:	40012c00 	.word	0x40012c00

08001354 <MX_TIM2_Init>:
/**
 * @brief TIM2 Initialization Function
 * @param None
 * @retval None
 */
static void MX_TIM2_Init(void) {
 8001354:	b580      	push	{r7, lr}
 8001356:	b088      	sub	sp, #32
 8001358:	af00      	add	r7, sp, #0

	/* USER CODE BEGIN TIM2_Init 0 */

	/* USER CODE END TIM2_Init 0 */

	TIM_ClockConfigTypeDef sClockSourceConfig = { 0 };
 800135a:	f107 0310 	add.w	r3, r7, #16
 800135e:	2200      	movs	r2, #0
 8001360:	601a      	str	r2, [r3, #0]
 8001362:	605a      	str	r2, [r3, #4]
 8001364:	609a      	str	r2, [r3, #8]
 8001366:	60da      	str	r2, [r3, #12]
	TIM_MasterConfigTypeDef sMasterConfig = { 0 };
 8001368:	1d3b      	adds	r3, r7, #4
 800136a:	2200      	movs	r2, #0
 800136c:	601a      	str	r2, [r3, #0]
 800136e:	605a      	str	r2, [r3, #4]
 8001370:	609a      	str	r2, [r3, #8]

	/* USER CODE BEGIN TIM2_Init 1 */

	/* USER CODE END TIM2_Init 1 */
	htim2.Instance = TIM2;
 8001372:	4b1e      	ldr	r3, [pc, #120]	@ (80013ec <MX_TIM2_Init+0x98>)
 8001374:	f04f 4280 	mov.w	r2, #1073741824	@ 0x40000000
 8001378:	601a      	str	r2, [r3, #0]
	htim2.Init.Prescaler = 0;
 800137a:	4b1c      	ldr	r3, [pc, #112]	@ (80013ec <MX_TIM2_Init+0x98>)
 800137c:	2200      	movs	r2, #0
 800137e:	605a      	str	r2, [r3, #4]
	htim2.Init.CounterMode = TIM_COUNTERMODE_UP;
 8001380:	4b1a      	ldr	r3, [pc, #104]	@ (80013ec <MX_TIM2_Init+0x98>)
 8001382:	2200      	movs	r2, #0
 8001384:	609a      	str	r2, [r3, #8]
	htim2.Init.Period = 4294967295;
 8001386:	4b19      	ldr	r3, [pc, #100]	@ (80013ec <MX_TIM2_Init+0x98>)
 8001388:	f04f 32ff 	mov.w	r2, #4294967295
 800138c:	60da      	str	r2, [r3, #12]
	htim2.Init.ClockDivision = TIM_CLOCKDIVISION_DIV1;
 800138e:	4b17      	ldr	r3, [pc, #92]	@ (80013ec <MX_TIM2_Init+0x98>)
 8001390:	2200      	movs	r2, #0
 8001392:	611a      	str	r2, [r3, #16]
	htim2.Init.AutoReloadPreload = TIM_AUTORELOAD_PRELOAD_DISABLE;
 8001394:	4b15      	ldr	r3, [pc, #84]	@ (80013ec <MX_TIM2_Init+0x98>)
 8001396:	2200      	movs	r2, #0
 8001398:	619a      	str	r2, [r3, #24]
	if (HAL_TIM_Base_Init(&htim2) != HAL_OK) {
 800139a:	4814      	ldr	r0, [pc, #80]	@ (80013ec <MX_TIM2_Init+0x98>)
 800139c:	f003 ff44 	bl	8005228 <HAL_TIM_Base_Init>
 80013a0:	4603      	mov	r3, r0
 80013a2:	2b00      	cmp	r3, #0
 80013a4:	d001      	beq.n	80013aa <MX_TIM2_Init+0x56>
		Error_Handler();
 80013a6:	f000 fc29 	bl	8001bfc <Error_Handler>
	}
	sClockSourceConfig.ClockSource = TIM_CLOCKSOURCE_INTERNAL;
 80013aa:	f44f 5380 	mov.w	r3, #4096	@ 0x1000
 80013ae:	613b      	str	r3, [r7, #16]
	if (HAL_TIM_ConfigClockSource(&htim2, &sClockSourceConfig) != HAL_OK) {
 80013b0:	f107 0310 	add.w	r3, r7, #16
 80013b4:	4619      	mov	r1, r3
 80013b6:	480d      	ldr	r0, [pc, #52]	@ (80013ec <MX_TIM2_Init+0x98>)
 80013b8:	f004 fe2e 	bl	8006018 <HAL_TIM_ConfigClockSource>
 80013bc:	4603      	mov	r3, r0
 80013be:	2b00      	cmp	r3, #0
 80013c0:	d001      	beq.n	80013c6 <MX_TIM2_Init+0x72>
		Error_Handler();
 80013c2:	f000 fc1b 	bl	8001bfc <Error_Handler>
	}
	sMasterConfig.MasterOutputTrigger = TIM_TRGO_RESET;
 80013c6:	2300      	movs	r3, #0
 80013c8:	607b      	str	r3, [r7, #4]
	sMasterConfig.MasterSlaveMode = TIM_MASTERSLAVEMODE_DISABLE;
 80013ca:	2300      	movs	r3, #0
 80013cc:	60fb      	str	r3, [r7, #12]
	if (HAL_TIMEx_MasterConfigSynchronization(&htim2, &sMasterConfig)
 80013ce:	1d3b      	adds	r3, r7, #4
 80013d0:	4619      	mov	r1, r3
 80013d2:	4806      	ldr	r0, [pc, #24]	@ (80013ec <MX_TIM2_Init+0x98>)
 80013d4:	f005 fe10 	bl	8006ff8 <HAL_TIMEx_MasterConfigSynchronization>
 80013d8:	4603      	mov	r3, r0
 80013da:	2b00      	cmp	r3, #0
 80013dc:	d001      	beq.n	80013e2 <MX_TIM2_Init+0x8e>
			!= HAL_OK) {
		Error_Handler();
 80013de:	f000 fc0d 	bl	8001bfc <Error_Handler>
	}
	/* USER CODE BEGIN TIM2_Init 2 */

	/* USER CODE END TIM2_Init 2 */

}
 80013e2:	bf00      	nop
 80013e4:	3720      	adds	r7, #32
 80013e6:	46bd      	mov	sp, r7
 80013e8:	bd80      	pop	{r7, pc}
 80013ea:	bf00      	nop
 80013ec:	2000036c 	.word	0x2000036c

080013f0 <MX_TIM3_Init>:
/**
 * @brief TIM3 Initialization Function
 * @param None
 * @retval None
 */
static void MX_TIM3_Init(void) {
 80013f0:	b580      	push	{r7, lr}
 80013f2:	b08c      	sub	sp, #48	@ 0x30
 80013f4:	af00      	add	r7, sp, #0

	/* USER CODE BEGIN TIM3_Init 0 */

	/* USER CODE END TIM3_Init 0 */

	TIM_Encoder_InitTypeDef sConfig = { 0 };
 80013f6:	f107 030c 	add.w	r3, r7, #12
 80013fa:	2224      	movs	r2, #36	@ 0x24
 80013fc:	2100      	movs	r1, #0
 80013fe:	4618      	mov	r0, r3
 8001400:	f008 fbca 	bl	8009b98 <memset>
	TIM_MasterConfigTypeDef sMasterConfig = { 0 };
 8001404:	463b      	mov	r3, r7
 8001406:	2200      	movs	r2, #0
 8001408:	601a      	str	r2, [r3, #0]
 800140a:	605a      	str	r2, [r3, #4]
 800140c:	609a      	str	r2, [r3, #8]

	/* USER CODE BEGIN TIM3_Init 1 */

	/* USER CODE END TIM3_Init 1 */
	htim3.Instance = TIM3;
 800140e:	4b21      	ldr	r3, [pc, #132]	@ (8001494 <MX_TIM3_Init+0xa4>)
 8001410:	4a21      	ldr	r2, [pc, #132]	@ (8001498 <MX_TIM3_Init+0xa8>)
 8001412:	601a      	str	r2, [r3, #0]
	htim3.Init.Prescaler = 0;
 8001414:	4b1f      	ldr	r3, [pc, #124]	@ (8001494 <MX_TIM3_Init+0xa4>)
 8001416:	2200      	movs	r2, #0
 8001418:	605a      	str	r2, [r3, #4]
	htim3.Init.CounterMode = TIM_COUNTERMODE_UP;
 800141a:	4b1e      	ldr	r3, [pc, #120]	@ (8001494 <MX_TIM3_Init+0xa4>)
 800141c:	2200      	movs	r2, #0
 800141e:	609a      	str	r2, [r3, #8]
	htim3.Init.Period = 59999;
 8001420:	4b1c      	ldr	r3, [pc, #112]	@ (8001494 <MX_TIM3_Init+0xa4>)
 8001422:	f64e 225f 	movw	r2, #59999	@ 0xea5f
 8001426:	60da      	str	r2, [r3, #12]
	htim3.Init.ClockDivision = TIM_CLOCKDIVISION_DIV1;
 8001428:	4b1a      	ldr	r3, [pc, #104]	@ (8001494 <MX_TIM3_Init+0xa4>)
 800142a:	2200      	movs	r2, #0
 800142c:	611a      	str	r2, [r3, #16]
	htim3.Init.AutoReloadPreload = TIM_AUTORELOAD_PRELOAD_DISABLE;
 800142e:	4b19      	ldr	r3, [pc, #100]	@ (8001494 <MX_TIM3_Init+0xa4>)
 8001430:	2200      	movs	r2, #0
 8001432:	619a      	str	r2, [r3, #24]
	sConfig.EncoderMode = TIM_ENCODERMODE_TI12;
 8001434:	2303      	movs	r3, #3
 8001436:	60fb      	str	r3, [r7, #12]
	sConfig.IC1Polarity = TIM_ICPOLARITY_RISING;
 8001438:	2300      	movs	r3, #0
 800143a:	613b      	str	r3, [r7, #16]
	sConfig.IC1Selection = TIM_ICSELECTION_DIRECTTI;
 800143c:	2301      	movs	r3, #1
 800143e:	617b      	str	r3, [r7, #20]
	sConfig.IC1Prescaler = TIM_ICPSC_DIV1;
 8001440:	2300      	movs	r3, #0
 8001442:	61bb      	str	r3, [r7, #24]
	sConfig.IC1Filter = 0;
 8001444:	2300      	movs	r3, #0
 8001446:	61fb      	str	r3, [r7, #28]
	sConfig.IC2Polarity = TIM_ICPOLARITY_RISING;
 8001448:	2300      	movs	r3, #0
 800144a:	623b      	str	r3, [r7, #32]
	sConfig.IC2Selection = TIM_ICSELECTION_DIRECTTI;
 800144c:	2301      	movs	r3, #1
 800144e:	627b      	str	r3, [r7, #36]	@ 0x24
	sConfig.IC2Prescaler = TIM_ICPSC_DIV1;
 8001450:	2300      	movs	r3, #0
 8001452:	62bb      	str	r3, [r7, #40]	@ 0x28
	sConfig.IC2Filter = 0;
 8001454:	2300      	movs	r3, #0
 8001456:	62fb      	str	r3, [r7, #44]	@ 0x2c
	if (HAL_TIM_Encoder_Init(&htim3, &sConfig) != HAL_OK) {
 8001458:	f107 030c 	add.w	r3, r7, #12
 800145c:	4619      	mov	r1, r3
 800145e:	480d      	ldr	r0, [pc, #52]	@ (8001494 <MX_TIM3_Init+0xa4>)
 8001460:	f004 f990 	bl	8005784 <HAL_TIM_Encoder_Init>
 8001464:	4603      	mov	r3, r0
 8001466:	2b00      	cmp	r3, #0
 8001468:	d001      	beq.n	800146e <MX_TIM3_Init+0x7e>
		Error_Handler();
 800146a:	f000 fbc7 	bl	8001bfc <Error_Handler>
	}
	sMasterConfig.MasterOutputTrigger = TIM_TRGO_RESET;
 800146e:	2300      	movs	r3, #0
 8001470:	603b      	str	r3, [r7, #0]
	sMasterConfig.MasterSlaveMode = TIM_MASTERSLAVEMODE_DISABLE;
 8001472:	2300      	movs	r3, #0
 8001474:	60bb      	str	r3, [r7, #8]
	if (HAL_TIMEx_MasterConfigSynchronization(&htim3, &sMasterConfig)
 8001476:	463b      	mov	r3, r7
 8001478:	4619      	mov	r1, r3
 800147a:	4806      	ldr	r0, [pc, #24]	@ (8001494 <MX_TIM3_Init+0xa4>)
 800147c:	f005 fdbc 	bl	8006ff8 <HAL_TIMEx_MasterConfigSynchronization>
 8001480:	4603      	mov	r3, r0
 8001482:	2b00      	cmp	r3, #0
 8001484:	d001      	beq.n	800148a <MX_TIM3_Init+0x9a>
			!= HAL_OK) {
		Error_Handler();
 8001486:	f000 fbb9 	bl	8001bfc <Error_Handler>
	}
	/* USER CODE BEGIN TIM3_Init 2 */

	/* USER CODE END TIM3_Init 2 */

}
 800148a:	bf00      	nop
 800148c:	3730      	adds	r7, #48	@ 0x30
 800148e:	46bd      	mov	sp, r7
 8001490:	bd80      	pop	{r7, pc}
 8001492:	bf00      	nop
 8001494:	20000438 	.word	0x20000438
 8001498:	40000400 	.word	0x40000400

0800149c <MX_TIM4_Init>:
/**
 * @brief TIM4 Initialization Function
 * @param None
 * @retval None
 */
static void MX_TIM4_Init(void) {
 800149c:	b580      	push	{r7, lr}
 800149e:	b08c      	sub	sp, #48	@ 0x30
 80014a0:	af00      	add	r7, sp, #0

	/* USER CODE BEGIN TIM4_Init 0 */

	/* USER CODE END TIM4_Init 0 */

	TIM_Encoder_InitTypeDef sConfig = { 0 };
 80014a2:	f107 030c 	add.w	r3, r7, #12
 80014a6:	2224      	movs	r2, #36	@ 0x24
 80014a8:	2100      	movs	r1, #0
 80014aa:	4618      	mov	r0, r3
 80014ac:	f008 fb74 	bl	8009b98 <memset>
	TIM_MasterConfigTypeDef sMasterConfig = { 0 };
 80014b0:	463b      	mov	r3, r7
 80014b2:	2200      	movs	r2, #0
 80014b4:	601a      	str	r2, [r3, #0]
 80014b6:	605a      	str	r2, [r3, #4]
 80014b8:	609a      	str	r2, [r3, #8]

	/* USER CODE BEGIN TIM4_Init 1 */

	/* USER CODE END TIM4_Init 1 */
	htim4.Instance = TIM4;
 80014ba:	4b21      	ldr	r3, [pc, #132]	@ (8001540 <MX_TIM4_Init+0xa4>)
 80014bc:	4a21      	ldr	r2, [pc, #132]	@ (8001544 <MX_TIM4_Init+0xa8>)
 80014be:	601a      	str	r2, [r3, #0]
	htim4.Init.Prescaler = 0;
 80014c0:	4b1f      	ldr	r3, [pc, #124]	@ (8001540 <MX_TIM4_Init+0xa4>)
 80014c2:	2200      	movs	r2, #0
 80014c4:	605a      	str	r2, [r3, #4]
	htim4.Init.CounterMode = TIM_COUNTERMODE_UP;
 80014c6:	4b1e      	ldr	r3, [pc, #120]	@ (8001540 <MX_TIM4_Init+0xa4>)
 80014c8:	2200      	movs	r2, #0
 80014ca:	609a      	str	r2, [r3, #8]
	htim4.Init.Period = 59999;
 80014cc:	4b1c      	ldr	r3, [pc, #112]	@ (8001540 <MX_TIM4_Init+0xa4>)
 80014ce:	f64e 225f 	movw	r2, #59999	@ 0xea5f
 80014d2:	60da      	str	r2, [r3, #12]
	htim4.Init.ClockDivision = TIM_CLOCKDIVISION_DIV1;
 80014d4:	4b1a      	ldr	r3, [pc, #104]	@ (8001540 <MX_TIM4_Init+0xa4>)
 80014d6:	2200      	movs	r2, #0
 80014d8:	611a      	str	r2, [r3, #16]
	htim4.Init.AutoReloadPreload = TIM_AUTORELOAD_PRELOAD_DISABLE;
 80014da:	4b19      	ldr	r3, [pc, #100]	@ (8001540 <MX_TIM4_Init+0xa4>)
 80014dc:	2200      	movs	r2, #0
 80014de:	619a      	str	r2, [r3, #24]
	sConfig.EncoderMode = TIM_ENCODERMODE_TI12;
 80014e0:	2303      	movs	r3, #3
 80014e2:	60fb      	str	r3, [r7, #12]
	sConfig.IC1Polarity = TIM_ICPOLARITY_RISING;
 80014e4:	2300      	movs	r3, #0
 80014e6:	613b      	str	r3, [r7, #16]
	sConfig.IC1Selection = TIM_ICSELECTION_DIRECTTI;
 80014e8:	2301      	movs	r3, #1
 80014ea:	617b      	str	r3, [r7, #20]
	sConfig.IC1Prescaler = TIM_ICPSC_DIV1;
 80014ec:	2300      	movs	r3, #0
 80014ee:	61bb      	str	r3, [r7, #24]
	sConfig.IC1Filter = 0;
 80014f0:	2300      	movs	r3, #0
 80014f2:	61fb      	str	r3, [r7, #28]
	sConfig.IC2Polarity = TIM_ICPOLARITY_RISING;
 80014f4:	2300      	movs	r3, #0
 80014f6:	623b      	str	r3, [r7, #32]
	sConfig.IC2Selection = TIM_ICSELECTION_DIRECTTI;
 80014f8:	2301      	movs	r3, #1
 80014fa:	627b      	str	r3, [r7, #36]	@ 0x24
	sConfig.IC2Prescaler = TIM_ICPSC_DIV1;
 80014fc:	2300      	movs	r3, #0
 80014fe:	62bb      	str	r3, [r7, #40]	@ 0x28
	sConfig.IC2Filter = 0;
 8001500:	2300      	movs	r3, #0
 8001502:	62fb      	str	r3, [r7, #44]	@ 0x2c
	if (HAL_TIM_Encoder_Init(&htim4, &sConfig) != HAL_OK) {
 8001504:	f107 030c 	add.w	r3, r7, #12
 8001508:	4619      	mov	r1, r3
 800150a:	480d      	ldr	r0, [pc, #52]	@ (8001540 <MX_TIM4_Init+0xa4>)
 800150c:	f004 f93a 	bl	8005784 <HAL_TIM_Encoder_Init>
 8001510:	4603      	mov	r3, r0
 8001512:	2b00      	cmp	r3, #0
 8001514:	d001      	beq.n	800151a <MX_TIM4_Init+0x7e>
		Error_Handler();
 8001516:	f000 fb71 	bl	8001bfc <Error_Handler>
	}
	sMasterConfig.MasterOutputTrigger = TIM_TRGO_RESET;
 800151a:	2300      	movs	r3, #0
 800151c:	603b      	str	r3, [r7, #0]
	sMasterConfig.MasterSlaveMode = TIM_MASTERSLAVEMODE_DISABLE;
 800151e:	2300      	movs	r3, #0
 8001520:	60bb      	str	r3, [r7, #8]
	if (HAL_TIMEx_MasterConfigSynchronization(&htim4, &sMasterConfig)
 8001522:	463b      	mov	r3, r7
 8001524:	4619      	mov	r1, r3
 8001526:	4806      	ldr	r0, [pc, #24]	@ (8001540 <MX_TIM4_Init+0xa4>)
 8001528:	f005 fd66 	bl	8006ff8 <HAL_TIMEx_MasterConfigSynchronization>
 800152c:	4603      	mov	r3, r0
 800152e:	2b00      	cmp	r3, #0
 8001530:	d001      	beq.n	8001536 <MX_TIM4_Init+0x9a>
			!= HAL_OK) {
		Error_Handler();
 8001532:	f000 fb63 	bl	8001bfc <Error_Handler>
	}
	/* USER CODE BEGIN TIM4_Init 2 */

	/* USER CODE END TIM4_Init 2 */

}
 8001536:	bf00      	nop
 8001538:	3730      	adds	r7, #48	@ 0x30
 800153a:	46bd      	mov	sp, r7
 800153c:	bd80      	pop	{r7, pc}
 800153e:	bf00      	nop
 8001540:	20000504 	.word	0x20000504
 8001544:	40000800 	.word	0x40000800

08001548 <MX_TIM8_Init>:
/**
 * @brief TIM8 Initialization Function
 * @param None
 * @retval None
 */
static void MX_TIM8_Init(void) {
 8001548:	b580      	push	{r7, lr}
 800154a:	b09c      	sub	sp, #112	@ 0x70
 800154c:	af00      	add	r7, sp, #0

	/* USER CODE BEGIN TIM8_Init 0 */

	/* USER CODE END TIM8_Init 0 */

	TIM_ClockConfigTypeDef sClockSourceConfig = { 0 };
 800154e:	f107 0360 	add.w	r3, r7, #96	@ 0x60
 8001552:	2200      	movs	r2, #0
 8001554:	601a      	str	r2, [r3, #0]
 8001556:	605a      	str	r2, [r3, #4]
 8001558:	609a      	str	r2, [r3, #8]
 800155a:	60da      	str	r2, [r3, #12]
	TIM_MasterConfigTypeDef sMasterConfig = { 0 };
 800155c:	f107 0354 	add.w	r3, r7, #84	@ 0x54
 8001560:	2200      	movs	r2, #0
 8001562:	601a      	str	r2, [r3, #0]
 8001564:	605a      	str	r2, [r3, #4]
 8001566:	609a      	str	r2, [r3, #8]
	TIM_OC_InitTypeDef sConfigOC = { 0 };
 8001568:	f107 0338 	add.w	r3, r7, #56	@ 0x38
 800156c:	2200      	movs	r2, #0
 800156e:	601a      	str	r2, [r3, #0]
 8001570:	605a      	str	r2, [r3, #4]
 8001572:	609a      	str	r2, [r3, #8]
 8001574:	60da      	str	r2, [r3, #12]
 8001576:	611a      	str	r2, [r3, #16]
 8001578:	615a      	str	r2, [r3, #20]
 800157a:	619a      	str	r2, [r3, #24]
	TIM_BreakDeadTimeConfigTypeDef sBreakDeadTimeConfig = { 0 };
 800157c:	1d3b      	adds	r3, r7, #4
 800157e:	2234      	movs	r2, #52	@ 0x34
 8001580:	2100      	movs	r1, #0
 8001582:	4618      	mov	r0, r3
 8001584:	f008 fb08 	bl	8009b98 <memset>

	/* USER CODE BEGIN TIM8_Init 1 */

	/* USER CODE END TIM8_Init 1 */
	htim8.Instance = TIM8;
 8001588:	4b45      	ldr	r3, [pc, #276]	@ (80016a0 <MX_TIM8_Init+0x158>)
 800158a:	4a46      	ldr	r2, [pc, #280]	@ (80016a4 <MX_TIM8_Init+0x15c>)
 800158c:	601a      	str	r2, [r3, #0]
	htim8.Init.Prescaler = 0;
 800158e:	4b44      	ldr	r3, [pc, #272]	@ (80016a0 <MX_TIM8_Init+0x158>)
 8001590:	2200      	movs	r2, #0
 8001592:	605a      	str	r2, [r3, #4]
	htim8.Init.CounterMode = TIM_COUNTERMODE_UP;
 8001594:	4b42      	ldr	r3, [pc, #264]	@ (80016a0 <MX_TIM8_Init+0x158>)
 8001596:	2200      	movs	r2, #0
 8001598:	609a      	str	r2, [r3, #8]
	htim8.Init.Period = 65535;
 800159a:	4b41      	ldr	r3, [pc, #260]	@ (80016a0 <MX_TIM8_Init+0x158>)
 800159c:	f64f 72ff 	movw	r2, #65535	@ 0xffff
 80015a0:	60da      	str	r2, [r3, #12]
	htim8.Init.ClockDivision = TIM_CLOCKDIVISION_DIV1;
 80015a2:	4b3f      	ldr	r3, [pc, #252]	@ (80016a0 <MX_TIM8_Init+0x158>)
 80015a4:	2200      	movs	r2, #0
 80015a6:	611a      	str	r2, [r3, #16]
	htim8.Init.RepetitionCounter = 0;
 80015a8:	4b3d      	ldr	r3, [pc, #244]	@ (80016a0 <MX_TIM8_Init+0x158>)
 80015aa:	2200      	movs	r2, #0
 80015ac:	615a      	str	r2, [r3, #20]
	htim8.Init.AutoReloadPreload = TIM_AUTORELOAD_PRELOAD_DISABLE;
 80015ae:	4b3c      	ldr	r3, [pc, #240]	@ (80016a0 <MX_TIM8_Init+0x158>)
 80015b0:	2200      	movs	r2, #0
 80015b2:	619a      	str	r2, [r3, #24]
	if (HAL_TIM_Base_Init(&htim8) != HAL_OK) {
 80015b4:	483a      	ldr	r0, [pc, #232]	@ (80016a0 <MX_TIM8_Init+0x158>)
 80015b6:	f003 fe37 	bl	8005228 <HAL_TIM_Base_Init>
 80015ba:	4603      	mov	r3, r0
 80015bc:	2b00      	cmp	r3, #0
 80015be:	d001      	beq.n	80015c4 <MX_TIM8_Init+0x7c>
		Error_Handler();
 80015c0:	f000 fb1c 	bl	8001bfc <Error_Handler>
	}
	sClockSourceConfig.ClockSource = TIM_CLOCKSOURCE_INTERNAL;
 80015c4:	f44f 5380 	mov.w	r3, #4096	@ 0x1000
 80015c8:	663b      	str	r3, [r7, #96]	@ 0x60
	if (HAL_TIM_ConfigClockSource(&htim8, &sClockSourceConfig) != HAL_OK) {
 80015ca:	f107 0360 	add.w	r3, r7, #96	@ 0x60
 80015ce:	4619      	mov	r1, r3
 80015d0:	4833      	ldr	r0, [pc, #204]	@ (80016a0 <MX_TIM8_Init+0x158>)
 80015d2:	f004 fd21 	bl	8006018 <HAL_TIM_ConfigClockSource>
 80015d6:	4603      	mov	r3, r0
 80015d8:	2b00      	cmp	r3, #0
 80015da:	d001      	beq.n	80015e0 <MX_TIM8_Init+0x98>
		Error_Handler();
 80015dc:	f000 fb0e 	bl	8001bfc <Error_Handler>
	}
	if (HAL_TIM_PWM_Init(&htim8) != HAL_OK) {
 80015e0:	482f      	ldr	r0, [pc, #188]	@ (80016a0 <MX_TIM8_Init+0x158>)
 80015e2:	f003 ff6b 	bl	80054bc <HAL_TIM_PWM_Init>
 80015e6:	4603      	mov	r3, r0
 80015e8:	2b00      	cmp	r3, #0
 80015ea:	d001      	beq.n	80015f0 <MX_TIM8_Init+0xa8>
		Error_Handler();
 80015ec:	f000 fb06 	bl	8001bfc <Error_Handler>
	}
	sMasterConfig.MasterOutputTrigger = TIM_TRGO_RESET;
 80015f0:	2300      	movs	r3, #0
 80015f2:	657b      	str	r3, [r7, #84]	@ 0x54
	sMasterConfig.MasterOutputTrigger2 = TIM_TRGO2_RESET;
 80015f4:	2300      	movs	r3, #0
 80015f6:	65bb      	str	r3, [r7, #88]	@ 0x58
	sMasterConfig.MasterSlaveMode = TIM_MASTERSLAVEMODE_DISABLE;
 80015f8:	2300      	movs	r3, #0
 80015fa:	65fb      	str	r3, [r7, #92]	@ 0x5c
	if (HAL_TIMEx_MasterConfigSynchronization(&htim8, &sMasterConfig)
 80015fc:	f107 0354 	add.w	r3, r7, #84	@ 0x54
 8001600:	4619      	mov	r1, r3
 8001602:	4827      	ldr	r0, [pc, #156]	@ (80016a0 <MX_TIM8_Init+0x158>)
 8001604:	f005 fcf8 	bl	8006ff8 <HAL_TIMEx_MasterConfigSynchronization>
 8001608:	4603      	mov	r3, r0
 800160a:	2b00      	cmp	r3, #0
 800160c:	d001      	beq.n	8001612 <MX_TIM8_Init+0xca>
			!= HAL_OK) {
		Error_Handler();
 800160e:	f000 faf5 	bl	8001bfc <Error_Handler>
	}
	sConfigOC.OCMode = TIM_OCMODE_PWM1;
 8001612:	2360      	movs	r3, #96	@ 0x60
 8001614:	63bb      	str	r3, [r7, #56]	@ 0x38
	sConfigOC.Pulse = 0;
 8001616:	2300      	movs	r3, #0
 8001618:	63fb      	str	r3, [r7, #60]	@ 0x3c
	sConfigOC.OCPolarity = TIM_OCPOLARITY_HIGH;
 800161a:	2300      	movs	r3, #0
 800161c:	643b      	str	r3, [r7, #64]	@ 0x40
	sConfigOC.OCNPolarity = TIM_OCNPOLARITY_HIGH;
 800161e:	2300      	movs	r3, #0
 8001620:	647b      	str	r3, [r7, #68]	@ 0x44
	sConfigOC.OCFastMode = TIM_OCFAST_DISABLE;
 8001622:	2300      	movs	r3, #0
 8001624:	64bb      	str	r3, [r7, #72]	@ 0x48
	sConfigOC.OCIdleState = TIM_OCIDLESTATE_RESET;
 8001626:	2300      	movs	r3, #0
 8001628:	64fb      	str	r3, [r7, #76]	@ 0x4c
	sConfigOC.OCNIdleState = TIM_OCNIDLESTATE_RESET;
 800162a:	2300      	movs	r3, #0
 800162c:	653b      	str	r3, [r7, #80]	@ 0x50
	if (HAL_TIM_PWM_ConfigChannel(&htim8, &sConfigOC, TIM_CHANNEL_4)
 800162e:	f107 0338 	add.w	r3, r7, #56	@ 0x38
 8001632:	220c      	movs	r2, #12
 8001634:	4619      	mov	r1, r3
 8001636:	481a      	ldr	r0, [pc, #104]	@ (80016a0 <MX_TIM8_Init+0x158>)
 8001638:	f004 fbda 	bl	8005df0 <HAL_TIM_PWM_ConfigChannel>
 800163c:	4603      	mov	r3, r0
 800163e:	2b00      	cmp	r3, #0
 8001640:	d001      	beq.n	8001646 <MX_TIM8_Init+0xfe>
			!= HAL_OK) {
		Error_Handler();
 8001642:	f000 fadb 	bl	8001bfc <Error_Handler>
	}
	sBreakDeadTimeConfig.OffStateRunMode = TIM_OSSR_DISABLE;
 8001646:	2300      	movs	r3, #0
 8001648:	607b      	str	r3, [r7, #4]
	sBreakDeadTimeConfig.OffStateIDLEMode = TIM_OSSI_DISABLE;
 800164a:	2300      	movs	r3, #0
 800164c:	60bb      	str	r3, [r7, #8]
	sBreakDeadTimeConfig.LockLevel = TIM_LOCKLEVEL_OFF;
 800164e:	2300      	movs	r3, #0
 8001650:	60fb      	str	r3, [r7, #12]
	sBreakDeadTimeConfig.DeadTime = 0;
 8001652:	2300      	movs	r3, #0
 8001654:	613b      	str	r3, [r7, #16]
	sBreakDeadTimeConfig.BreakState = TIM_BREAK_DISABLE;
 8001656:	2300      	movs	r3, #0
 8001658:	617b      	str	r3, [r7, #20]
	sBreakDeadTimeConfig.BreakPolarity = TIM_BREAKPOLARITY_HIGH;
 800165a:	f44f 5300 	mov.w	r3, #8192	@ 0x2000
 800165e:	61bb      	str	r3, [r7, #24]
	sBreakDeadTimeConfig.BreakFilter = 0;
 8001660:	2300      	movs	r3, #0
 8001662:	61fb      	str	r3, [r7, #28]
	sBreakDeadTimeConfig.BreakAFMode = TIM_BREAK_AFMODE_INPUT;
 8001664:	2300      	movs	r3, #0
 8001666:	623b      	str	r3, [r7, #32]
	sBreakDeadTimeConfig.Break2State = TIM_BREAK2_DISABLE;
 8001668:	2300      	movs	r3, #0
 800166a:	627b      	str	r3, [r7, #36]	@ 0x24
	sBreakDeadTimeConfig.Break2Polarity = TIM_BREAK2POLARITY_HIGH;
 800166c:	f04f 7300 	mov.w	r3, #33554432	@ 0x2000000
 8001670:	62bb      	str	r3, [r7, #40]	@ 0x28
	sBreakDeadTimeConfig.Break2Filter = 0;
 8001672:	2300      	movs	r3, #0
 8001674:	62fb      	str	r3, [r7, #44]	@ 0x2c
	sBreakDeadTimeConfig.Break2AFMode = TIM_BREAK_AFMODE_INPUT;
 8001676:	2300      	movs	r3, #0
 8001678:	633b      	str	r3, [r7, #48]	@ 0x30
	sBreakDeadTimeConfig.AutomaticOutput = TIM_AUTOMATICOUTPUT_DISABLE;
 800167a:	2300      	movs	r3, #0
 800167c:	637b      	str	r3, [r7, #52]	@ 0x34
	if (HAL_TIMEx_ConfigBreakDeadTime(&htim8, &sBreakDeadTimeConfig)
 800167e:	1d3b      	adds	r3, r7, #4
 8001680:	4619      	mov	r1, r3
 8001682:	4807      	ldr	r0, [pc, #28]	@ (80016a0 <MX_TIM8_Init+0x158>)
 8001684:	f005 fd4e 	bl	8007124 <HAL_TIMEx_ConfigBreakDeadTime>
 8001688:	4603      	mov	r3, r0
 800168a:	2b00      	cmp	r3, #0
 800168c:	d001      	beq.n	8001692 <MX_TIM8_Init+0x14a>
			!= HAL_OK) {
		Error_Handler();
 800168e:	f000 fab5 	bl	8001bfc <Error_Handler>
	}
	/* USER CODE BEGIN TIM8_Init 2 */

	/* USER CODE END TIM8_Init 2 */
	HAL_TIM_MspPostInit(&htim8);
 8001692:	4803      	ldr	r0, [pc, #12]	@ (80016a0 <MX_TIM8_Init+0x158>)
 8001694:	f000 fc64 	bl	8001f60 <HAL_TIM_MspPostInit>

}
 8001698:	bf00      	nop
 800169a:	3770      	adds	r7, #112	@ 0x70
 800169c:	46bd      	mov	sp, r7
 800169e:	bd80      	pop	{r7, pc}
 80016a0:	200005d0 	.word	0x200005d0
 80016a4:	40013400 	.word	0x40013400

080016a8 <MX_TIM16_Init>:
/**
 * @brief TIM16 Initialization Function
 * @param None
 * @retval None
 */
static void MX_TIM16_Init(void) {
 80016a8:	b580      	push	{r7, lr}
 80016aa:	b094      	sub	sp, #80	@ 0x50
 80016ac:	af00      	add	r7, sp, #0

	/* USER CODE BEGIN TIM16_Init 0 */

	/* USER CODE END TIM16_Init 0 */

	TIM_OC_InitTypeDef sConfigOC = { 0 };
 80016ae:	f107 0334 	add.w	r3, r7, #52	@ 0x34
 80016b2:	2200      	movs	r2, #0
 80016b4:	601a      	str	r2, [r3, #0]
 80016b6:	605a      	str	r2, [r3, #4]
 80016b8:	609a      	str	r2, [r3, #8]
 80016ba:	60da      	str	r2, [r3, #12]
 80016bc:	611a      	str	r2, [r3, #16]
 80016be:	615a      	str	r2, [r3, #20]
 80016c0:	619a      	str	r2, [r3, #24]
	TIM_BreakDeadTimeConfigTypeDef sBreakDeadTimeConfig = { 0 };
 80016c2:	463b      	mov	r3, r7
 80016c4:	2234      	movs	r2, #52	@ 0x34
 80016c6:	2100      	movs	r1, #0
 80016c8:	4618      	mov	r0, r3
 80016ca:	f008 fa65 	bl	8009b98 <memset>

	/* USER CODE BEGIN TIM16_Init 1 */

	/* USER CODE END TIM16_Init 1 */
	htim16.Instance = TIM16;
 80016ce:	4b34      	ldr	r3, [pc, #208]	@ (80017a0 <MX_TIM16_Init+0xf8>)
 80016d0:	4a34      	ldr	r2, [pc, #208]	@ (80017a4 <MX_TIM16_Init+0xfc>)
 80016d2:	601a      	str	r2, [r3, #0]
	htim16.Init.Prescaler = 169;
 80016d4:	4b32      	ldr	r3, [pc, #200]	@ (80017a0 <MX_TIM16_Init+0xf8>)
 80016d6:	22a9      	movs	r2, #169	@ 0xa9
 80016d8:	605a      	str	r2, [r3, #4]
	htim16.Init.CounterMode = TIM_COUNTERMODE_UP;
 80016da:	4b31      	ldr	r3, [pc, #196]	@ (80017a0 <MX_TIM16_Init+0xf8>)
 80016dc:	2200      	movs	r2, #0
 80016de:	609a      	str	r2, [r3, #8]
	htim16.Init.Period = 2005;
 80016e0:	4b2f      	ldr	r3, [pc, #188]	@ (80017a0 <MX_TIM16_Init+0xf8>)
 80016e2:	f240 72d5 	movw	r2, #2005	@ 0x7d5
 80016e6:	60da      	str	r2, [r3, #12]
	htim16.Init.ClockDivision = TIM_CLOCKDIVISION_DIV1;
 80016e8:	4b2d      	ldr	r3, [pc, #180]	@ (80017a0 <MX_TIM16_Init+0xf8>)
 80016ea:	2200      	movs	r2, #0
 80016ec:	611a      	str	r2, [r3, #16]
	htim16.Init.RepetitionCounter = 0;
 80016ee:	4b2c      	ldr	r3, [pc, #176]	@ (80017a0 <MX_TIM16_Init+0xf8>)
 80016f0:	2200      	movs	r2, #0
 80016f2:	615a      	str	r2, [r3, #20]
	htim16.Init.AutoReloadPreload = TIM_AUTORELOAD_PRELOAD_DISABLE;
 80016f4:	4b2a      	ldr	r3, [pc, #168]	@ (80017a0 <MX_TIM16_Init+0xf8>)
 80016f6:	2200      	movs	r2, #0
 80016f8:	619a      	str	r2, [r3, #24]
	if (HAL_TIM_Base_Init(&htim16) != HAL_OK) {
 80016fa:	4829      	ldr	r0, [pc, #164]	@ (80017a0 <MX_TIM16_Init+0xf8>)
 80016fc:	f003 fd94 	bl	8005228 <HAL_TIM_Base_Init>
 8001700:	4603      	mov	r3, r0
 8001702:	2b00      	cmp	r3, #0
 8001704:	d001      	beq.n	800170a <MX_TIM16_Init+0x62>
		Error_Handler();
 8001706:	f000 fa79 	bl	8001bfc <Error_Handler>
	}
	if (HAL_TIM_OC_Init(&htim16) != HAL_OK) {
 800170a:	4825      	ldr	r0, [pc, #148]	@ (80017a0 <MX_TIM16_Init+0xf8>)
 800170c:	f003 fe68 	bl	80053e0 <HAL_TIM_OC_Init>
 8001710:	4603      	mov	r3, r0
 8001712:	2b00      	cmp	r3, #0
 8001714:	d001      	beq.n	800171a <MX_TIM16_Init+0x72>
		Error_Handler();
 8001716:	f000 fa71 	bl	8001bfc <Error_Handler>
	}
	if (HAL_TIM_OnePulse_Init(&htim16, TIM_OPMODE_SINGLE) != HAL_OK) {
 800171a:	2108      	movs	r1, #8
 800171c:	4820      	ldr	r0, [pc, #128]	@ (80017a0 <MX_TIM16_Init+0xf8>)
 800171e:	f003 ff3b 	bl	8005598 <HAL_TIM_OnePulse_Init>
 8001722:	4603      	mov	r3, r0
 8001724:	2b00      	cmp	r3, #0
 8001726:	d001      	beq.n	800172c <MX_TIM16_Init+0x84>
		Error_Handler();
 8001728:	f000 fa68 	bl	8001bfc <Error_Handler>
	}
	sConfigOC.OCMode = TIM_OCMODE_ACTIVE;
 800172c:	2310      	movs	r3, #16
 800172e:	637b      	str	r3, [r7, #52]	@ 0x34
	sConfigOC.Pulse = 1433;
 8001730:	f240 5399 	movw	r3, #1433	@ 0x599
 8001734:	63bb      	str	r3, [r7, #56]	@ 0x38
	sConfigOC.OCPolarity = TIM_OCPOLARITY_HIGH;
 8001736:	2300      	movs	r3, #0
 8001738:	63fb      	str	r3, [r7, #60]	@ 0x3c
	sConfigOC.OCNPolarity = TIM_OCNPOLARITY_HIGH;
 800173a:	2300      	movs	r3, #0
 800173c:	643b      	str	r3, [r7, #64]	@ 0x40
	sConfigOC.OCFastMode = TIM_OCFAST_DISABLE;
 800173e:	2300      	movs	r3, #0
 8001740:	647b      	str	r3, [r7, #68]	@ 0x44
	sConfigOC.OCIdleState = TIM_OCIDLESTATE_RESET;
 8001742:	2300      	movs	r3, #0
 8001744:	64bb      	str	r3, [r7, #72]	@ 0x48
	sConfigOC.OCNIdleState = TIM_OCNIDLESTATE_RESET;
 8001746:	2300      	movs	r3, #0
 8001748:	64fb      	str	r3, [r7, #76]	@ 0x4c
	if (HAL_TIM_OC_ConfigChannel(&htim16, &sConfigOC, TIM_CHANNEL_1)
 800174a:	f107 0334 	add.w	r3, r7, #52	@ 0x34
 800174e:	2200      	movs	r2, #0
 8001750:	4619      	mov	r1, r3
 8001752:	4813      	ldr	r0, [pc, #76]	@ (80017a0 <MX_TIM16_Init+0xf8>)
 8001754:	f004 fad2 	bl	8005cfc <HAL_TIM_OC_ConfigChannel>
 8001758:	4603      	mov	r3, r0
 800175a:	2b00      	cmp	r3, #0
 800175c:	d001      	beq.n	8001762 <MX_TIM16_Init+0xba>
			!= HAL_OK) {
		Error_Handler();
 800175e:	f000 fa4d 	bl	8001bfc <Error_Handler>
	}
	sBreakDeadTimeConfig.OffStateRunMode = TIM_OSSR_DISABLE;
 8001762:	2300      	movs	r3, #0
 8001764:	603b      	str	r3, [r7, #0]
	sBreakDeadTimeConfig.OffStateIDLEMode = TIM_OSSI_DISABLE;
 8001766:	2300      	movs	r3, #0
 8001768:	607b      	str	r3, [r7, #4]
	sBreakDeadTimeConfig.LockLevel = TIM_LOCKLEVEL_OFF;
 800176a:	2300      	movs	r3, #0
 800176c:	60bb      	str	r3, [r7, #8]
	sBreakDeadTimeConfig.DeadTime = 0;
 800176e:	2300      	movs	r3, #0
 8001770:	60fb      	str	r3, [r7, #12]
	sBreakDeadTimeConfig.BreakState = TIM_BREAK_DISABLE;
 8001772:	2300      	movs	r3, #0
 8001774:	613b      	str	r3, [r7, #16]
	sBreakDeadTimeConfig.BreakPolarity = TIM_BREAKPOLARITY_HIGH;
 8001776:	f44f 5300 	mov.w	r3, #8192	@ 0x2000
 800177a:	617b      	str	r3, [r7, #20]
	sBreakDeadTimeConfig.BreakFilter = 0;
 800177c:	2300      	movs	r3, #0
 800177e:	61bb      	str	r3, [r7, #24]
	sBreakDeadTimeConfig.AutomaticOutput = TIM_AUTOMATICOUTPUT_DISABLE;
 8001780:	2300      	movs	r3, #0
 8001782:	633b      	str	r3, [r7, #48]	@ 0x30
	if (HAL_TIMEx_ConfigBreakDeadTime(&htim16, &sBreakDeadTimeConfig)
 8001784:	463b      	mov	r3, r7
 8001786:	4619      	mov	r1, r3
 8001788:	4805      	ldr	r0, [pc, #20]	@ (80017a0 <MX_TIM16_Init+0xf8>)
 800178a:	f005 fccb 	bl	8007124 <HAL_TIMEx_ConfigBreakDeadTime>
 800178e:	4603      	mov	r3, r0
 8001790:	2b00      	cmp	r3, #0
 8001792:	d001      	beq.n	8001798 <MX_TIM16_Init+0xf0>
			!= HAL_OK) {
		Error_Handler();
 8001794:	f000 fa32 	bl	8001bfc <Error_Handler>
	}
	/* USER CODE BEGIN TIM16_Init 2 */

	/* USER CODE END TIM16_Init 2 */

}
 8001798:	bf00      	nop
 800179a:	3750      	adds	r7, #80	@ 0x50
 800179c:	46bd      	mov	sp, r7
 800179e:	bd80      	pop	{r7, pc}
 80017a0:	2000069c 	.word	0x2000069c
 80017a4:	40014400 	.word	0x40014400

080017a8 <MX_TIM20_Init>:
/**
 * @brief TIM20 Initialization Function
 * @param None
 * @retval None
 */
static void MX_TIM20_Init(void) {
 80017a8:	b580      	push	{r7, lr}
 80017aa:	b09c      	sub	sp, #112	@ 0x70
 80017ac:	af00      	add	r7, sp, #0

	/* USER CODE BEGIN TIM20_Init 0 */

	/* USER CODE END TIM20_Init 0 */

	TIM_ClockConfigTypeDef sClockSourceConfig = { 0 };
 80017ae:	f107 0360 	add.w	r3, r7, #96	@ 0x60
 80017b2:	2200      	movs	r2, #0
 80017b4:	601a      	str	r2, [r3, #0]
 80017b6:	605a      	str	r2, [r3, #4]
 80017b8:	609a      	str	r2, [r3, #8]
 80017ba:	60da      	str	r2, [r3, #12]
	TIM_MasterConfigTypeDef sMasterConfig = { 0 };
 80017bc:	f107 0354 	add.w	r3, r7, #84	@ 0x54
 80017c0:	2200      	movs	r2, #0
 80017c2:	601a      	str	r2, [r3, #0]
 80017c4:	605a      	str	r2, [r3, #4]
 80017c6:	609a      	str	r2, [r3, #8]
	TIM_OC_InitTypeDef sConfigOC = { 0 };
 80017c8:	f107 0338 	add.w	r3, r7, #56	@ 0x38
 80017cc:	2200      	movs	r2, #0
 80017ce:	601a      	str	r2, [r3, #0]
 80017d0:	605a      	str	r2, [r3, #4]
 80017d2:	609a      	str	r2, [r3, #8]
 80017d4:	60da      	str	r2, [r3, #12]
 80017d6:	611a      	str	r2, [r3, #16]
 80017d8:	615a      	str	r2, [r3, #20]
 80017da:	619a      	str	r2, [r3, #24]
	TIM_BreakDeadTimeConfigTypeDef sBreakDeadTimeConfig = { 0 };
 80017dc:	1d3b      	adds	r3, r7, #4
 80017de:	2234      	movs	r2, #52	@ 0x34
 80017e0:	2100      	movs	r1, #0
 80017e2:	4618      	mov	r0, r3
 80017e4:	f008 f9d8 	bl	8009b98 <memset>

	/* USER CODE BEGIN TIM20_Init 1 */

	/* USER CODE END TIM20_Init 1 */
	htim20.Instance = TIM20;
 80017e8:	4b4b      	ldr	r3, [pc, #300]	@ (8001918 <MX_TIM20_Init+0x170>)
 80017ea:	4a4c      	ldr	r2, [pc, #304]	@ (800191c <MX_TIM20_Init+0x174>)
 80017ec:	601a      	str	r2, [r3, #0]
	htim20.Init.Prescaler = 0;
 80017ee:	4b4a      	ldr	r3, [pc, #296]	@ (8001918 <MX_TIM20_Init+0x170>)
 80017f0:	2200      	movs	r2, #0
 80017f2:	605a      	str	r2, [r3, #4]
	htim20.Init.CounterMode = TIM_COUNTERMODE_UP;
 80017f4:	4b48      	ldr	r3, [pc, #288]	@ (8001918 <MX_TIM20_Init+0x170>)
 80017f6:	2200      	movs	r2, #0
 80017f8:	609a      	str	r2, [r3, #8]
	htim20.Init.Period = 65535;
 80017fa:	4b47      	ldr	r3, [pc, #284]	@ (8001918 <MX_TIM20_Init+0x170>)
 80017fc:	f64f 72ff 	movw	r2, #65535	@ 0xffff
 8001800:	60da      	str	r2, [r3, #12]
	htim20.Init.ClockDivision = TIM_CLOCKDIVISION_DIV1;
 8001802:	4b45      	ldr	r3, [pc, #276]	@ (8001918 <MX_TIM20_Init+0x170>)
 8001804:	2200      	movs	r2, #0
 8001806:	611a      	str	r2, [r3, #16]
	htim20.Init.RepetitionCounter = 0;
 8001808:	4b43      	ldr	r3, [pc, #268]	@ (8001918 <MX_TIM20_Init+0x170>)
 800180a:	2200      	movs	r2, #0
 800180c:	615a      	str	r2, [r3, #20]
	htim20.Init.AutoReloadPreload = TIM_AUTORELOAD_PRELOAD_DISABLE;
 800180e:	4b42      	ldr	r3, [pc, #264]	@ (8001918 <MX_TIM20_Init+0x170>)
 8001810:	2200      	movs	r2, #0
 8001812:	619a      	str	r2, [r3, #24]
	if (HAL_TIM_Base_Init(&htim20) != HAL_OK) {
 8001814:	4840      	ldr	r0, [pc, #256]	@ (8001918 <MX_TIM20_Init+0x170>)
 8001816:	f003 fd07 	bl	8005228 <HAL_TIM_Base_Init>
 800181a:	4603      	mov	r3, r0
 800181c:	2b00      	cmp	r3, #0
 800181e:	d001      	beq.n	8001824 <MX_TIM20_Init+0x7c>
		Error_Handler();
 8001820:	f000 f9ec 	bl	8001bfc <Error_Handler>
	}
	sClockSourceConfig.ClockSource = TIM_CLOCKSOURCE_INTERNAL;
 8001824:	f44f 5380 	mov.w	r3, #4096	@ 0x1000
 8001828:	663b      	str	r3, [r7, #96]	@ 0x60
	if (HAL_TIM_ConfigClockSource(&htim20, &sClockSourceConfig) != HAL_OK) {
 800182a:	f107 0360 	add.w	r3, r7, #96	@ 0x60
 800182e:	4619      	mov	r1, r3
 8001830:	4839      	ldr	r0, [pc, #228]	@ (8001918 <MX_TIM20_Init+0x170>)
 8001832:	f004 fbf1 	bl	8006018 <HAL_TIM_ConfigClockSource>
 8001836:	4603      	mov	r3, r0
 8001838:	2b00      	cmp	r3, #0
 800183a:	d001      	beq.n	8001840 <MX_TIM20_Init+0x98>
		Error_Handler();
 800183c:	f000 f9de 	bl	8001bfc <Error_Handler>
	}
	if (HAL_TIM_PWM_Init(&htim20) != HAL_OK) {
 8001840:	4835      	ldr	r0, [pc, #212]	@ (8001918 <MX_TIM20_Init+0x170>)
 8001842:	f003 fe3b 	bl	80054bc <HAL_TIM_PWM_Init>
 8001846:	4603      	mov	r3, r0
 8001848:	2b00      	cmp	r3, #0
 800184a:	d001      	beq.n	8001850 <MX_TIM20_Init+0xa8>
		Error_Handler();
 800184c:	f000 f9d6 	bl	8001bfc <Error_Handler>
	}
	sMasterConfig.MasterOutputTrigger = TIM_TRGO_RESET;
 8001850:	2300      	movs	r3, #0
 8001852:	657b      	str	r3, [r7, #84]	@ 0x54
	sMasterConfig.MasterOutputTrigger2 = TIM_TRGO2_RESET;
 8001854:	2300      	movs	r3, #0
 8001856:	65bb      	str	r3, [r7, #88]	@ 0x58
	sMasterConfig.MasterSlaveMode = TIM_MASTERSLAVEMODE_DISABLE;
 8001858:	2300      	movs	r3, #0
 800185a:	65fb      	str	r3, [r7, #92]	@ 0x5c
	if (HAL_TIMEx_MasterConfigSynchronization(&htim20, &sMasterConfig)
 800185c:	f107 0354 	add.w	r3, r7, #84	@ 0x54
 8001860:	4619      	mov	r1, r3
 8001862:	482d      	ldr	r0, [pc, #180]	@ (8001918 <MX_TIM20_Init+0x170>)
 8001864:	f005 fbc8 	bl	8006ff8 <HAL_TIMEx_MasterConfigSynchronization>
 8001868:	4603      	mov	r3, r0
 800186a:	2b00      	cmp	r3, #0
 800186c:	d001      	beq.n	8001872 <MX_TIM20_Init+0xca>
			!= HAL_OK) {
		Error_Handler();
 800186e:	f000 f9c5 	bl	8001bfc <Error_Handler>
	}
	sConfigOC.OCMode = TIM_OCMODE_PWM1;
 8001872:	2360      	movs	r3, #96	@ 0x60
 8001874:	63bb      	str	r3, [r7, #56]	@ 0x38
	sConfigOC.Pulse = 0;
 8001876:	2300      	movs	r3, #0
 8001878:	63fb      	str	r3, [r7, #60]	@ 0x3c
	sConfigOC.OCPolarity = TIM_OCPOLARITY_HIGH;
 800187a:	2300      	movs	r3, #0
 800187c:	643b      	str	r3, [r7, #64]	@ 0x40
	sConfigOC.OCNPolarity = TIM_OCNPOLARITY_HIGH;
 800187e:	2300      	movs	r3, #0
 8001880:	647b      	str	r3, [r7, #68]	@ 0x44
	sConfigOC.OCFastMode = TIM_OCFAST_DISABLE;
 8001882:	2300      	movs	r3, #0
 8001884:	64bb      	str	r3, [r7, #72]	@ 0x48
	sConfigOC.OCIdleState = TIM_OCIDLESTATE_RESET;
 8001886:	2300      	movs	r3, #0
 8001888:	64fb      	str	r3, [r7, #76]	@ 0x4c
	sConfigOC.OCNIdleState = TIM_OCNIDLESTATE_RESET;
 800188a:	2300      	movs	r3, #0
 800188c:	653b      	str	r3, [r7, #80]	@ 0x50
	if (HAL_TIM_PWM_ConfigChannel(&htim20, &sConfigOC, TIM_CHANNEL_1)
 800188e:	f107 0338 	add.w	r3, r7, #56	@ 0x38
 8001892:	2200      	movs	r2, #0
 8001894:	4619      	mov	r1, r3
 8001896:	4820      	ldr	r0, [pc, #128]	@ (8001918 <MX_TIM20_Init+0x170>)
 8001898:	f004 faaa 	bl	8005df0 <HAL_TIM_PWM_ConfigChannel>
 800189c:	4603      	mov	r3, r0
 800189e:	2b00      	cmp	r3, #0
 80018a0:	d001      	beq.n	80018a6 <MX_TIM20_Init+0xfe>
			!= HAL_OK) {
		Error_Handler();
 80018a2:	f000 f9ab 	bl	8001bfc <Error_Handler>
	}
	if (HAL_TIM_PWM_ConfigChannel(&htim20, &sConfigOC, TIM_CHANNEL_3)
 80018a6:	f107 0338 	add.w	r3, r7, #56	@ 0x38
 80018aa:	2208      	movs	r2, #8
 80018ac:	4619      	mov	r1, r3
 80018ae:	481a      	ldr	r0, [pc, #104]	@ (8001918 <MX_TIM20_Init+0x170>)
 80018b0:	f004 fa9e 	bl	8005df0 <HAL_TIM_PWM_ConfigChannel>
 80018b4:	4603      	mov	r3, r0
 80018b6:	2b00      	cmp	r3, #0
 80018b8:	d001      	beq.n	80018be <MX_TIM20_Init+0x116>
			!= HAL_OK) {
		Error_Handler();
 80018ba:	f000 f99f 	bl	8001bfc <Error_Handler>
	}
	sBreakDeadTimeConfig.OffStateRunMode = TIM_OSSR_DISABLE;
 80018be:	2300      	movs	r3, #0
 80018c0:	607b      	str	r3, [r7, #4]
	sBreakDeadTimeConfig.OffStateIDLEMode = TIM_OSSI_DISABLE;
 80018c2:	2300      	movs	r3, #0
 80018c4:	60bb      	str	r3, [r7, #8]
	sBreakDeadTimeConfig.LockLevel = TIM_LOCKLEVEL_OFF;
 80018c6:	2300      	movs	r3, #0
 80018c8:	60fb      	str	r3, [r7, #12]
	sBreakDeadTimeConfig.DeadTime = 0;
 80018ca:	2300      	movs	r3, #0
 80018cc:	613b      	str	r3, [r7, #16]
	sBreakDeadTimeConfig.BreakState = TIM_BREAK_DISABLE;
 80018ce:	2300      	movs	r3, #0
 80018d0:	617b      	str	r3, [r7, #20]
	sBreakDeadTimeConfig.BreakPolarity = TIM_BREAKPOLARITY_HIGH;
 80018d2:	f44f 5300 	mov.w	r3, #8192	@ 0x2000
 80018d6:	61bb      	str	r3, [r7, #24]
	sBreakDeadTimeConfig.BreakFilter = 0;
 80018d8:	2300      	movs	r3, #0
 80018da:	61fb      	str	r3, [r7, #28]
	sBreakDeadTimeConfig.BreakAFMode = TIM_BREAK_AFMODE_INPUT;
 80018dc:	2300      	movs	r3, #0
 80018de:	623b      	str	r3, [r7, #32]
	sBreakDeadTimeConfig.Break2State = TIM_BREAK2_DISABLE;
 80018e0:	2300      	movs	r3, #0
 80018e2:	627b      	str	r3, [r7, #36]	@ 0x24
	sBreakDeadTimeConfig.Break2Polarity = TIM_BREAK2POLARITY_HIGH;
 80018e4:	f04f 7300 	mov.w	r3, #33554432	@ 0x2000000
 80018e8:	62bb      	str	r3, [r7, #40]	@ 0x28
	sBreakDeadTimeConfig.Break2Filter = 0;
 80018ea:	2300      	movs	r3, #0
 80018ec:	62fb      	str	r3, [r7, #44]	@ 0x2c
	sBreakDeadTimeConfig.Break2AFMode = TIM_BREAK_AFMODE_INPUT;
 80018ee:	2300      	movs	r3, #0
 80018f0:	633b      	str	r3, [r7, #48]	@ 0x30
	sBreakDeadTimeConfig.AutomaticOutput = TIM_AUTOMATICOUTPUT_DISABLE;
 80018f2:	2300      	movs	r3, #0
 80018f4:	637b      	str	r3, [r7, #52]	@ 0x34
	if (HAL_TIMEx_ConfigBreakDeadTime(&htim20, &sBreakDeadTimeConfig)
 80018f6:	1d3b      	adds	r3, r7, #4
 80018f8:	4619      	mov	r1, r3
 80018fa:	4807      	ldr	r0, [pc, #28]	@ (8001918 <MX_TIM20_Init+0x170>)
 80018fc:	f005 fc12 	bl	8007124 <HAL_TIMEx_ConfigBreakDeadTime>
 8001900:	4603      	mov	r3, r0
 8001902:	2b00      	cmp	r3, #0
 8001904:	d001      	beq.n	800190a <MX_TIM20_Init+0x162>
			!= HAL_OK) {
		Error_Handler();
 8001906:	f000 f979 	bl	8001bfc <Error_Handler>
	}
	/* USER CODE BEGIN TIM20_Init 2 */

	/* USER CODE END TIM20_Init 2 */
	HAL_TIM_MspPostInit(&htim20);
 800190a:	4803      	ldr	r0, [pc, #12]	@ (8001918 <MX_TIM20_Init+0x170>)
 800190c:	f000 fb28 	bl	8001f60 <HAL_TIM_MspPostInit>

}
 8001910:	bf00      	nop
 8001912:	3770      	adds	r7, #112	@ 0x70
 8001914:	46bd      	mov	sp, r7
 8001916:	bd80      	pop	{r7, pc}
 8001918:	20000768 	.word	0x20000768
 800191c:	40015000 	.word	0x40015000

08001920 <MX_USART2_UART_Init>:
/**
 * @brief USART2 Initialization Function
 * @param None
 * @retval None
 */
static void MX_USART2_UART_Init(void) {
 8001920:	b580      	push	{r7, lr}
 8001922:	af00      	add	r7, sp, #0
	/* USER CODE END USART2_Init 0 */

	/* USER CODE BEGIN USART2_Init 1 */

	/* USER CODE END USART2_Init 1 */
	huart2.Instance = USART2;
 8001924:	4b23      	ldr	r3, [pc, #140]	@ (80019b4 <MX_USART2_UART_Init+0x94>)
 8001926:	4a24      	ldr	r2, [pc, #144]	@ (80019b8 <MX_USART2_UART_Init+0x98>)
 8001928:	601a      	str	r2, [r3, #0]
	huart2.Init.BaudRate = 19200;
 800192a:	4b22      	ldr	r3, [pc, #136]	@ (80019b4 <MX_USART2_UART_Init+0x94>)
 800192c:	f44f 4296 	mov.w	r2, #19200	@ 0x4b00
 8001930:	605a      	str	r2, [r3, #4]
	huart2.Init.WordLength = UART_WORDLENGTH_9B;
 8001932:	4b20      	ldr	r3, [pc, #128]	@ (80019b4 <MX_USART2_UART_Init+0x94>)
 8001934:	f44f 5280 	mov.w	r2, #4096	@ 0x1000
 8001938:	609a      	str	r2, [r3, #8]
	huart2.Init.StopBits = UART_STOPBITS_1;
 800193a:	4b1e      	ldr	r3, [pc, #120]	@ (80019b4 <MX_USART2_UART_Init+0x94>)
 800193c:	2200      	movs	r2, #0
 800193e:	60da      	str	r2, [r3, #12]
	huart2.Init.Parity = UART_PARITY_EVEN;
 8001940:	4b1c      	ldr	r3, [pc, #112]	@ (80019b4 <MX_USART2_UART_Init+0x94>)
 8001942:	f44f 6280 	mov.w	r2, #1024	@ 0x400
 8001946:	611a      	str	r2, [r3, #16]
	huart2.Init.Mode = UART_MODE_TX_RX;
 8001948:	4b1a      	ldr	r3, [pc, #104]	@ (80019b4 <MX_USART2_UART_Init+0x94>)
 800194a:	220c      	movs	r2, #12
 800194c:	615a      	str	r2, [r3, #20]
	huart2.Init.HwFlowCtl = UART_HWCONTROL_NONE;
 800194e:	4b19      	ldr	r3, [pc, #100]	@ (80019b4 <MX_USART2_UART_Init+0x94>)
 8001950:	2200      	movs	r2, #0
 8001952:	619a      	str	r2, [r3, #24]
	huart2.Init.OverSampling = UART_OVERSAMPLING_16;
 8001954:	4b17      	ldr	r3, [pc, #92]	@ (80019b4 <MX_USART2_UART_Init+0x94>)
 8001956:	2200      	movs	r2, #0
 8001958:	61da      	str	r2, [r3, #28]
	huart2.Init.OneBitSampling = UART_ONE_BIT_SAMPLE_DISABLE;
 800195a:	4b16      	ldr	r3, [pc, #88]	@ (80019b4 <MX_USART2_UART_Init+0x94>)
 800195c:	2200      	movs	r2, #0
 800195e:	621a      	str	r2, [r3, #32]
	huart2.Init.ClockPrescaler = UART_PRESCALER_DIV1;
 8001960:	4b14      	ldr	r3, [pc, #80]	@ (80019b4 <MX_USART2_UART_Init+0x94>)
 8001962:	2200      	movs	r2, #0
 8001964:	625a      	str	r2, [r3, #36]	@ 0x24
	huart2.AdvancedInit.AdvFeatureInit = UART_ADVFEATURE_NO_INIT;
 8001966:	4b13      	ldr	r3, [pc, #76]	@ (80019b4 <MX_USART2_UART_Init+0x94>)
 8001968:	2200      	movs	r2, #0
 800196a:	629a      	str	r2, [r3, #40]	@ 0x28
	if (HAL_UART_Init(&huart2) != HAL_OK) {
 800196c:	4811      	ldr	r0, [pc, #68]	@ (80019b4 <MX_USART2_UART_Init+0x94>)
 800196e:	f005 fcbd 	bl	80072ec <HAL_UART_Init>
 8001972:	4603      	mov	r3, r0
 8001974:	2b00      	cmp	r3, #0
 8001976:	d001      	beq.n	800197c <MX_USART2_UART_Init+0x5c>
		Error_Handler();
 8001978:	f000 f940 	bl	8001bfc <Error_Handler>
	}
	if (HAL_UARTEx_SetTxFifoThreshold(&huart2, UART_TXFIFO_THRESHOLD_1_8)
 800197c:	2100      	movs	r1, #0
 800197e:	480d      	ldr	r0, [pc, #52]	@ (80019b4 <MX_USART2_UART_Init+0x94>)
 8001980:	f008 f83f 	bl	8009a02 <HAL_UARTEx_SetTxFifoThreshold>
 8001984:	4603      	mov	r3, r0
 8001986:	2b00      	cmp	r3, #0
 8001988:	d001      	beq.n	800198e <MX_USART2_UART_Init+0x6e>
			!= HAL_OK) {
		Error_Handler();
 800198a:	f000 f937 	bl	8001bfc <Error_Handler>
	}
	if (HAL_UARTEx_SetRxFifoThreshold(&huart2, UART_RXFIFO_THRESHOLD_1_8)
 800198e:	2100      	movs	r1, #0
 8001990:	4808      	ldr	r0, [pc, #32]	@ (80019b4 <MX_USART2_UART_Init+0x94>)
 8001992:	f008 f874 	bl	8009a7e <HAL_UARTEx_SetRxFifoThreshold>
 8001996:	4603      	mov	r3, r0
 8001998:	2b00      	cmp	r3, #0
 800199a:	d001      	beq.n	80019a0 <MX_USART2_UART_Init+0x80>
			!= HAL_OK) {
		Error_Handler();
 800199c:	f000 f92e 	bl	8001bfc <Error_Handler>
	}
	if (HAL_UARTEx_DisableFifoMode(&huart2) != HAL_OK) {
 80019a0:	4804      	ldr	r0, [pc, #16]	@ (80019b4 <MX_USART2_UART_Init+0x94>)
 80019a2:	f007 fff5 	bl	8009990 <HAL_UARTEx_DisableFifoMode>
 80019a6:	4603      	mov	r3, r0
 80019a8:	2b00      	cmp	r3, #0
 80019aa:	d001      	beq.n	80019b0 <MX_USART2_UART_Init+0x90>
		Error_Handler();
 80019ac:	f000 f926 	bl	8001bfc <Error_Handler>
	}
	/* USER CODE BEGIN USART2_Init 2 */

	/* USER CODE END USART2_Init 2 */

}
 80019b0:	bf00      	nop
 80019b2:	bd80      	pop	{r7, pc}
 80019b4:	20000834 	.word	0x20000834
 80019b8:	40004400 	.word	0x40004400

080019bc <MX_DMA_Init>:

/**
 * Enable DMA controller clock
 */
static void MX_DMA_Init(void) {
 80019bc:	b580      	push	{r7, lr}
 80019be:	b082      	sub	sp, #8
 80019c0:	af00      	add	r7, sp, #0

	/* DMA controller clock enable */
	__HAL_RCC_DMAMUX1_CLK_ENABLE();
 80019c2:	4b12      	ldr	r3, [pc, #72]	@ (8001a0c <MX_DMA_Init+0x50>)
 80019c4:	6c9b      	ldr	r3, [r3, #72]	@ 0x48
 80019c6:	4a11      	ldr	r2, [pc, #68]	@ (8001a0c <MX_DMA_Init+0x50>)
 80019c8:	f043 0304 	orr.w	r3, r3, #4
 80019cc:	6493      	str	r3, [r2, #72]	@ 0x48
 80019ce:	4b0f      	ldr	r3, [pc, #60]	@ (8001a0c <MX_DMA_Init+0x50>)
 80019d0:	6c9b      	ldr	r3, [r3, #72]	@ 0x48
 80019d2:	f003 0304 	and.w	r3, r3, #4
 80019d6:	607b      	str	r3, [r7, #4]
 80019d8:	687b      	ldr	r3, [r7, #4]
	__HAL_RCC_DMA1_CLK_ENABLE();
 80019da:	4b0c      	ldr	r3, [pc, #48]	@ (8001a0c <MX_DMA_Init+0x50>)
 80019dc:	6c9b      	ldr	r3, [r3, #72]	@ 0x48
 80019de:	4a0b      	ldr	r2, [pc, #44]	@ (8001a0c <MX_DMA_Init+0x50>)
 80019e0:	f043 0301 	orr.w	r3, r3, #1
 80019e4:	6493      	str	r3, [r2, #72]	@ 0x48
 80019e6:	4b09      	ldr	r3, [pc, #36]	@ (8001a0c <MX_DMA_Init+0x50>)
 80019e8:	6c9b      	ldr	r3, [r3, #72]	@ 0x48
 80019ea:	f003 0301 	and.w	r3, r3, #1
 80019ee:	603b      	str	r3, [r7, #0]
 80019f0:	683b      	ldr	r3, [r7, #0]

	/* DMA interrupt init */
	/* DMA1_Channel1_IRQn interrupt configuration */
	HAL_NVIC_SetPriority(DMA1_Channel1_IRQn, 0, 0);
 80019f2:	2200      	movs	r2, #0
 80019f4:	2100      	movs	r1, #0
 80019f6:	200b      	movs	r0, #11
 80019f8:	f001 fec1 	bl	800377e <HAL_NVIC_SetPriority>
	HAL_NVIC_EnableIRQ(DMA1_Channel1_IRQn);
 80019fc:	200b      	movs	r0, #11
 80019fe:	f001 fed8 	bl	80037b2 <HAL_NVIC_EnableIRQ>

}
 8001a02:	bf00      	nop
 8001a04:	3708      	adds	r7, #8
 8001a06:	46bd      	mov	sp, r7
 8001a08:	bd80      	pop	{r7, pc}
 8001a0a:	bf00      	nop
 8001a0c:	40021000 	.word	0x40021000

08001a10 <MX_GPIO_Init>:
/**
 * @brief GPIO Initialization Function
 * @param None
 * @retval None
 */
static void MX_GPIO_Init(void) {
 8001a10:	b580      	push	{r7, lr}
 8001a12:	b08a      	sub	sp, #40	@ 0x28
 8001a14:	af00      	add	r7, sp, #0
	GPIO_InitTypeDef GPIO_InitStruct = { 0 };
 8001a16:	f107 0314 	add.w	r3, r7, #20
 8001a1a:	2200      	movs	r2, #0
 8001a1c:	601a      	str	r2, [r3, #0]
 8001a1e:	605a      	str	r2, [r3, #4]
 8001a20:	609a      	str	r2, [r3, #8]
 8001a22:	60da      	str	r2, [r3, #12]
 8001a24:	611a      	str	r2, [r3, #16]
	/* USER CODE BEGIN MX_GPIO_Init_1 */
	/* USER CODE END MX_GPIO_Init_1 */

	/* GPIO Ports Clock Enable */
	__HAL_RCC_GPIOC_CLK_ENABLE();
 8001a26:	4b60      	ldr	r3, [pc, #384]	@ (8001ba8 <MX_GPIO_Init+0x198>)
 8001a28:	6cdb      	ldr	r3, [r3, #76]	@ 0x4c
 8001a2a:	4a5f      	ldr	r2, [pc, #380]	@ (8001ba8 <MX_GPIO_Init+0x198>)
 8001a2c:	f043 0304 	orr.w	r3, r3, #4
 8001a30:	64d3      	str	r3, [r2, #76]	@ 0x4c
 8001a32:	4b5d      	ldr	r3, [pc, #372]	@ (8001ba8 <MX_GPIO_Init+0x198>)
 8001a34:	6cdb      	ldr	r3, [r3, #76]	@ 0x4c
 8001a36:	f003 0304 	and.w	r3, r3, #4
 8001a3a:	613b      	str	r3, [r7, #16]
 8001a3c:	693b      	ldr	r3, [r7, #16]
	__HAL_RCC_GPIOF_CLK_ENABLE();
 8001a3e:	4b5a      	ldr	r3, [pc, #360]	@ (8001ba8 <MX_GPIO_Init+0x198>)
 8001a40:	6cdb      	ldr	r3, [r3, #76]	@ 0x4c
 8001a42:	4a59      	ldr	r2, [pc, #356]	@ (8001ba8 <MX_GPIO_Init+0x198>)
 8001a44:	f043 0320 	orr.w	r3, r3, #32
 8001a48:	64d3      	str	r3, [r2, #76]	@ 0x4c
 8001a4a:	4b57      	ldr	r3, [pc, #348]	@ (8001ba8 <MX_GPIO_Init+0x198>)
 8001a4c:	6cdb      	ldr	r3, [r3, #76]	@ 0x4c
 8001a4e:	f003 0320 	and.w	r3, r3, #32
 8001a52:	60fb      	str	r3, [r7, #12]
 8001a54:	68fb      	ldr	r3, [r7, #12]
	__HAL_RCC_GPIOA_CLK_ENABLE();
 8001a56:	4b54      	ldr	r3, [pc, #336]	@ (8001ba8 <MX_GPIO_Init+0x198>)
 8001a58:	6cdb      	ldr	r3, [r3, #76]	@ 0x4c
 8001a5a:	4a53      	ldr	r2, [pc, #332]	@ (8001ba8 <MX_GPIO_Init+0x198>)
 8001a5c:	f043 0301 	orr.w	r3, r3, #1
 8001a60:	64d3      	str	r3, [r2, #76]	@ 0x4c
 8001a62:	4b51      	ldr	r3, [pc, #324]	@ (8001ba8 <MX_GPIO_Init+0x198>)
 8001a64:	6cdb      	ldr	r3, [r3, #76]	@ 0x4c
 8001a66:	f003 0301 	and.w	r3, r3, #1
 8001a6a:	60bb      	str	r3, [r7, #8]
 8001a6c:	68bb      	ldr	r3, [r7, #8]
	__HAL_RCC_GPIOB_CLK_ENABLE();
 8001a6e:	4b4e      	ldr	r3, [pc, #312]	@ (8001ba8 <MX_GPIO_Init+0x198>)
 8001a70:	6cdb      	ldr	r3, [r3, #76]	@ 0x4c
 8001a72:	4a4d      	ldr	r2, [pc, #308]	@ (8001ba8 <MX_GPIO_Init+0x198>)
 8001a74:	f043 0302 	orr.w	r3, r3, #2
 8001a78:	64d3      	str	r3, [r2, #76]	@ 0x4c
 8001a7a:	4b4b      	ldr	r3, [pc, #300]	@ (8001ba8 <MX_GPIO_Init+0x198>)
 8001a7c:	6cdb      	ldr	r3, [r3, #76]	@ 0x4c
 8001a7e:	f003 0302 	and.w	r3, r3, #2
 8001a82:	607b      	str	r3, [r7, #4]
 8001a84:	687b      	ldr	r3, [r7, #4]

	/*Configure GPIO pin Output Level */
	HAL_GPIO_WritePin(GPIOB, DIR_MD20A_24V_Pin | DIR_MD20A_18V_Pin,
 8001a86:	2200      	movs	r2, #0
 8001a88:	f241 0102 	movw	r1, #4098	@ 0x1002
 8001a8c:	4847      	ldr	r0, [pc, #284]	@ (8001bac <MX_GPIO_Init+0x19c>)
 8001a8e:	f002 fb6b 	bl	8004168 <HAL_GPIO_WritePin>
			GPIO_PIN_RESET);

	/*Configure GPIO pin : PA5 */
	GPIO_InitStruct.Pin = GPIO_PIN_5;
 8001a92:	2320      	movs	r3, #32
 8001a94:	617b      	str	r3, [r7, #20]
	GPIO_InitStruct.Mode = GPIO_MODE_AF_PP;
 8001a96:	2302      	movs	r3, #2
 8001a98:	61bb      	str	r3, [r7, #24]
	GPIO_InitStruct.Pull = GPIO_NOPULL;
 8001a9a:	2300      	movs	r3, #0
 8001a9c:	61fb      	str	r3, [r7, #28]
	GPIO_InitStruct.Speed = GPIO_SPEED_FREQ_LOW;
 8001a9e:	2300      	movs	r3, #0
 8001aa0:	623b      	str	r3, [r7, #32]
	GPIO_InitStruct.Alternate = GPIO_AF5_SPI1;
 8001aa2:	2305      	movs	r3, #5
 8001aa4:	627b      	str	r3, [r7, #36]	@ 0x24
	HAL_GPIO_Init(GPIOA, &GPIO_InitStruct);
 8001aa6:	f107 0314 	add.w	r3, r7, #20
 8001aaa:	4619      	mov	r1, r3
 8001aac:	f04f 4090 	mov.w	r0, #1207959552	@ 0x48000000
 8001ab0:	f002 f9d8 	bl	8003e64 <HAL_GPIO_Init>

	/*Configure GPIO pins : DIR_MD20A_24V_Pin DIR_MD20A_18V_Pin */
	GPIO_InitStruct.Pin = DIR_MD20A_24V_Pin | DIR_MD20A_18V_Pin;
 8001ab4:	f241 0302 	movw	r3, #4098	@ 0x1002
 8001ab8:	617b      	str	r3, [r7, #20]
	GPIO_InitStruct.Mode = GPIO_MODE_OUTPUT_PP;
 8001aba:	2301      	movs	r3, #1
 8001abc:	61bb      	str	r3, [r7, #24]
	GPIO_InitStruct.Pull = GPIO_NOPULL;
 8001abe:	2300      	movs	r3, #0
 8001ac0:	61fb      	str	r3, [r7, #28]
	GPIO_InitStruct.Speed = GPIO_SPEED_FREQ_LOW;
 8001ac2:	2300      	movs	r3, #0
 8001ac4:	623b      	str	r3, [r7, #32]
	HAL_GPIO_Init(GPIOB, &GPIO_InitStruct);
 8001ac6:	f107 0314 	add.w	r3, r7, #20
 8001aca:	4619      	mov	r1, r3
 8001acc:	4837      	ldr	r0, [pc, #220]	@ (8001bac <MX_GPIO_Init+0x19c>)
 8001ace:	f002 f9c9 	bl	8003e64 <HAL_GPIO_Init>

	/*Configure GPIO pins : Limit_Switch_pen_2_Pin Proximity_Sensor_Pin Limit_Switch_Prismatic1_Pin Limit_Switch_pen_1_Pin */
	GPIO_InitStruct.Pin = Limit_Switch_pen_2_Pin | Proximity_Sensor_Pin
 8001ad2:	f44f 43cc 	mov.w	r3, #26112	@ 0x6600
 8001ad6:	617b      	str	r3, [r7, #20]
			| Limit_Switch_Prismatic1_Pin | Limit_Switch_pen_1_Pin;
	GPIO_InitStruct.Mode = GPIO_MODE_IT_FALLING;
 8001ad8:	f44f 1304 	mov.w	r3, #2162688	@ 0x210000
 8001adc:	61bb      	str	r3, [r7, #24]
	GPIO_InitStruct.Pull = GPIO_NOPULL;
 8001ade:	2300      	movs	r3, #0
 8001ae0:	61fb      	str	r3, [r7, #28]
	HAL_GPIO_Init(GPIOB, &GPIO_InitStruct);
 8001ae2:	f107 0314 	add.w	r3, r7, #20
 8001ae6:	4619      	mov	r1, r3
 8001ae8:	4830      	ldr	r0, [pc, #192]	@ (8001bac <MX_GPIO_Init+0x19c>)
 8001aea:	f002 f9bb 	bl	8003e64 <HAL_GPIO_Init>

	/*Configure GPIO pin : Limit_Switch_Prismatic2_Pin */
	GPIO_InitStruct.Pin = Limit_Switch_Prismatic2_Pin;
 8001aee:	f44f 4300 	mov.w	r3, #32768	@ 0x8000
 8001af2:	617b      	str	r3, [r7, #20]
	GPIO_InitStruct.Mode = GPIO_MODE_IT_RISING;
 8001af4:	f44f 1388 	mov.w	r3, #1114112	@ 0x110000
 8001af8:	61bb      	str	r3, [r7, #24]
	GPIO_InitStruct.Pull = GPIO_NOPULL;
 8001afa:	2300      	movs	r3, #0
 8001afc:	61fb      	str	r3, [r7, #28]
	HAL_GPIO_Init(Limit_Switch_Prismatic2_GPIO_Port, &GPIO_InitStruct);
 8001afe:	f107 0314 	add.w	r3, r7, #20
 8001b02:	4619      	mov	r1, r3
 8001b04:	4829      	ldr	r0, [pc, #164]	@ (8001bac <MX_GPIO_Init+0x19c>)
 8001b06:	f002 f9ad 	bl	8003e64 <HAL_GPIO_Init>

	/*Configure GPIO pin : Proximity_sensor_Pin */
	GPIO_InitStruct.Pin = Proximity_sensor_Pin;
 8001b0a:	f44f 5380 	mov.w	r3, #4096	@ 0x1000
 8001b0e:	617b      	str	r3, [r7, #20]
	GPIO_InitStruct.Mode = GPIO_MODE_IT_FALLING;
 8001b10:	f44f 1304 	mov.w	r3, #2162688	@ 0x210000
 8001b14:	61bb      	str	r3, [r7, #24]
	GPIO_InitStruct.Pull = GPIO_NOPULL;
 8001b16:	2300      	movs	r3, #0
 8001b18:	61fb      	str	r3, [r7, #28]
	HAL_GPIO_Init(Proximity_sensor_GPIO_Port, &GPIO_InitStruct);
 8001b1a:	f107 0314 	add.w	r3, r7, #20
 8001b1e:	4619      	mov	r1, r3
 8001b20:	f04f 4090 	mov.w	r0, #1207959552	@ 0x48000000
 8001b24:	f002 f99e 	bl	8003e64 <HAL_GPIO_Init>

	/*Configure GPIO pin : PS2_Joy_stick_Attention_Pin */
	GPIO_InitStruct.Pin = PS2_Joy_stick_Attention_Pin;
 8001b28:	f44f 6380 	mov.w	r3, #1024	@ 0x400
 8001b2c:	617b      	str	r3, [r7, #20]
	GPIO_InitStruct.Mode = GPIO_MODE_INPUT;
 8001b2e:	2300      	movs	r3, #0
 8001b30:	61bb      	str	r3, [r7, #24]
	GPIO_InitStruct.Pull = GPIO_NOPULL;
 8001b32:	2300      	movs	r3, #0
 8001b34:	61fb      	str	r3, [r7, #28]
	HAL_GPIO_Init(PS2_Joy_stick_Attention_GPIO_Port, &GPIO_InitStruct);
 8001b36:	f107 0314 	add.w	r3, r7, #20
 8001b3a:	4619      	mov	r1, r3
 8001b3c:	481c      	ldr	r0, [pc, #112]	@ (8001bb0 <MX_GPIO_Init+0x1a0>)
 8001b3e:	f002 f991 	bl	8003e64 <HAL_GPIO_Init>

	/*Configure GPIO pin : Emergency_Pin */
	GPIO_InitStruct.Pin = Emergency_Pin;
 8001b42:	f44f 6300 	mov.w	r3, #2048	@ 0x800
 8001b46:	617b      	str	r3, [r7, #20]
	GPIO_InitStruct.Mode = GPIO_MODE_IT_RISING;
 8001b48:	f44f 1388 	mov.w	r3, #1114112	@ 0x110000
 8001b4c:	61bb      	str	r3, [r7, #24]
	GPIO_InitStruct.Pull = GPIO_NOPULL;
 8001b4e:	2300      	movs	r3, #0
 8001b50:	61fb      	str	r3, [r7, #28]
	HAL_GPIO_Init(Emergency_GPIO_Port, &GPIO_InitStruct);
 8001b52:	f107 0314 	add.w	r3, r7, #20
 8001b56:	4619      	mov	r1, r3
 8001b58:	4815      	ldr	r0, [pc, #84]	@ (8001bb0 <MX_GPIO_Init+0x1a0>)
 8001b5a:	f002 f983 	bl	8003e64 <HAL_GPIO_Init>

	/*Configure GPIO pins : PB4 PB5 */
	GPIO_InitStruct.Pin = GPIO_PIN_4 | GPIO_PIN_5;
 8001b5e:	2330      	movs	r3, #48	@ 0x30
 8001b60:	617b      	str	r3, [r7, #20]
	GPIO_InitStruct.Mode = GPIO_MODE_AF_PP;
 8001b62:	2302      	movs	r3, #2
 8001b64:	61bb      	str	r3, [r7, #24]
	GPIO_InitStruct.Pull = GPIO_NOPULL;
 8001b66:	2300      	movs	r3, #0
 8001b68:	61fb      	str	r3, [r7, #28]
	GPIO_InitStruct.Speed = GPIO_SPEED_FREQ_LOW;
 8001b6a:	2300      	movs	r3, #0
 8001b6c:	623b      	str	r3, [r7, #32]
	GPIO_InitStruct.Alternate = GPIO_AF5_SPI1;
 8001b6e:	2305      	movs	r3, #5
 8001b70:	627b      	str	r3, [r7, #36]	@ 0x24
	HAL_GPIO_Init(GPIOB, &GPIO_InitStruct);
 8001b72:	f107 0314 	add.w	r3, r7, #20
 8001b76:	4619      	mov	r1, r3
 8001b78:	480c      	ldr	r0, [pc, #48]	@ (8001bac <MX_GPIO_Init+0x19c>)
 8001b7a:	f002 f973 	bl	8003e64 <HAL_GPIO_Init>

	/* EXTI interrupt init*/
	HAL_NVIC_SetPriority(EXTI9_5_IRQn, 0, 0);
 8001b7e:	2200      	movs	r2, #0
 8001b80:	2100      	movs	r1, #0
 8001b82:	2017      	movs	r0, #23
 8001b84:	f001 fdfb 	bl	800377e <HAL_NVIC_SetPriority>
	HAL_NVIC_EnableIRQ(EXTI9_5_IRQn);
 8001b88:	2017      	movs	r0, #23
 8001b8a:	f001 fe12 	bl	80037b2 <HAL_NVIC_EnableIRQ>

	HAL_NVIC_SetPriority(EXTI15_10_IRQn, 0, 0);
 8001b8e:	2200      	movs	r2, #0
 8001b90:	2100      	movs	r1, #0
 8001b92:	2028      	movs	r0, #40	@ 0x28
 8001b94:	f001 fdf3 	bl	800377e <HAL_NVIC_SetPriority>
	HAL_NVIC_EnableIRQ(EXTI15_10_IRQn);
 8001b98:	2028      	movs	r0, #40	@ 0x28
 8001b9a:	f001 fe0a 	bl	80037b2 <HAL_NVIC_EnableIRQ>

	/* USER CODE BEGIN MX_GPIO_Init_2 */
	/* USER CODE END MX_GPIO_Init_2 */
}
 8001b9e:	bf00      	nop
 8001ba0:	3728      	adds	r7, #40	@ 0x28
 8001ba2:	46bd      	mov	sp, r7
 8001ba4:	bd80      	pop	{r7, pc}
 8001ba6:	bf00      	nop
 8001ba8:	40021000 	.word	0x40021000
 8001bac:	48000400 	.word	0x48000400
 8001bb0:	48000800 	.word	0x48000800

08001bb4 <HAL_GPIO_EXTI_Callback>:

/* USER CODE BEGIN 4 */
void HAL_GPIO_EXTI_Callback(uint16_t GPIO_Pin) {
 8001bb4:	b580      	push	{r7, lr}
 8001bb6:	b082      	sub	sp, #8
 8001bb8:	af00      	add	r7, sp, #0
 8001bba:	4603      	mov	r3, r0
 8001bbc:	80fb      	strh	r3, [r7, #6]
	if (GPIO_Pin == GPIO_PIN_10) {
 8001bbe:	88fb      	ldrh	r3, [r7, #6]
 8001bc0:	f5b3 6f80 	cmp.w	r3, #1024	@ 0x400
 8001bc4:	d10e      	bne.n	8001be4 <HAL_GPIO_EXTI_Callback+0x30>
		Encoder_setLimit(&encoder1, 180);
 8001bc6:	ed9f 0a09 	vldr	s0, [pc, #36]	@ 8001bec <HAL_GPIO_EXTI_Callback+0x38>
 8001bca:	4809      	ldr	r0, [pc, #36]	@ (8001bf0 <HAL_GPIO_EXTI_Callback+0x3c>)
 8001bcc:	f7fe fde6 	bl	800079c <Encoder_setLimit>
		Encoder_setLimit(&encoder2, 180);
 8001bd0:	ed9f 0a06 	vldr	s0, [pc, #24]	@ 8001bec <HAL_GPIO_EXTI_Callback+0x38>
 8001bd4:	4807      	ldr	r0, [pc, #28]	@ (8001bf4 <HAL_GPIO_EXTI_Callback+0x40>)
 8001bd6:	f7fe fde1 	bl	800079c <Encoder_setLimit>
		check += 1;
 8001bda:	4b07      	ldr	r3, [pc, #28]	@ (8001bf8 <HAL_GPIO_EXTI_Callback+0x44>)
 8001bdc:	681b      	ldr	r3, [r3, #0]
 8001bde:	3301      	adds	r3, #1
 8001be0:	4a05      	ldr	r2, [pc, #20]	@ (8001bf8 <HAL_GPIO_EXTI_Callback+0x44>)
 8001be2:	6013      	str	r3, [r2, #0]
	}
}
 8001be4:	bf00      	nop
 8001be6:	3708      	adds	r7, #8
 8001be8:	46bd      	mov	sp, r7
 8001bea:	bd80      	pop	{r7, pc}
 8001bec:	43340000 	.word	0x43340000
 8001bf0:	20000960 	.word	0x20000960
 8001bf4:	2000097c 	.word	0x2000097c
 8001bf8:	200009b0 	.word	0x200009b0

08001bfc <Error_Handler>:

/**
 * @brief  This function is executed in case of error occurrence.
 * @retval None
 */
void Error_Handler(void) {
 8001bfc:	b480      	push	{r7}
 8001bfe:	af00      	add	r7, sp, #0
  \details Disables IRQ interrupts by setting the I-bit in the CPSR.
           Can only be executed in Privileged modes.
 */
__STATIC_FORCEINLINE void __disable_irq(void)
{
  __ASM volatile ("cpsid i" : : : "memory");
 8001c00:	b672      	cpsid	i
}
 8001c02:	bf00      	nop
	/* USER CODE BEGIN Error_Handler_Debug */
	/* User can add his own implementation to report the HAL error return state */
	__disable_irq();
	while (1) {
 8001c04:	bf00      	nop
 8001c06:	e7fd      	b.n	8001c04 <Error_Handler+0x8>

08001c08 <HAL_MspInit>:
 8001c08:	b580      	push	{r7, lr}
 8001c0a:	b082      	sub	sp, #8
 8001c0c:	af00      	add	r7, sp, #0
 8001c0e:	4b0f      	ldr	r3, [pc, #60]	@ (8001c4c <HAL_MspInit+0x44>)
 8001c10:	6e1b      	ldr	r3, [r3, #96]	@ 0x60
 8001c12:	4a0e      	ldr	r2, [pc, #56]	@ (8001c4c <HAL_MspInit+0x44>)
 8001c14:	f043 0301 	orr.w	r3, r3, #1
 8001c18:	6613      	str	r3, [r2, #96]	@ 0x60
 8001c1a:	4b0c      	ldr	r3, [pc, #48]	@ (8001c4c <HAL_MspInit+0x44>)
 8001c1c:	6e1b      	ldr	r3, [r3, #96]	@ 0x60
 8001c1e:	f003 0301 	and.w	r3, r3, #1
 8001c22:	607b      	str	r3, [r7, #4]
 8001c24:	687b      	ldr	r3, [r7, #4]
 8001c26:	4b09      	ldr	r3, [pc, #36]	@ (8001c4c <HAL_MspInit+0x44>)
 8001c28:	6d9b      	ldr	r3, [r3, #88]	@ 0x58
 8001c2a:	4a08      	ldr	r2, [pc, #32]	@ (8001c4c <HAL_MspInit+0x44>)
 8001c2c:	f043 5380 	orr.w	r3, r3, #268435456	@ 0x10000000
 8001c30:	6593      	str	r3, [r2, #88]	@ 0x58
 8001c32:	4b06      	ldr	r3, [pc, #24]	@ (8001c4c <HAL_MspInit+0x44>)
 8001c34:	6d9b      	ldr	r3, [r3, #88]	@ 0x58
 8001c36:	f003 5380 	and.w	r3, r3, #268435456	@ 0x10000000
 8001c3a:	603b      	str	r3, [r7, #0]
 8001c3c:	683b      	ldr	r3, [r7, #0]
 8001c3e:	f002 fb67 	bl	8004310 <HAL_PWREx_DisableUCPDDeadBattery>
 8001c42:	bf00      	nop
 8001c44:	3708      	adds	r7, #8
 8001c46:	46bd      	mov	sp, r7
 8001c48:	bd80      	pop	{r7, pc}
 8001c4a:	bf00      	nop
 8001c4c:	40021000 	.word	0x40021000

08001c50 <HAL_ADC_MspInit>:
 8001c50:	b580      	push	{r7, lr}
 8001c52:	b09e      	sub	sp, #120	@ 0x78
 8001c54:	af00      	add	r7, sp, #0
 8001c56:	6078      	str	r0, [r7, #4]
 8001c58:	f107 0364 	add.w	r3, r7, #100	@ 0x64
 8001c5c:	2200      	movs	r2, #0
 8001c5e:	601a      	str	r2, [r3, #0]
 8001c60:	605a      	str	r2, [r3, #4]
 8001c62:	609a      	str	r2, [r3, #8]
 8001c64:	60da      	str	r2, [r3, #12]
 8001c66:	611a      	str	r2, [r3, #16]
 8001c68:	f107 0310 	add.w	r3, r7, #16
 8001c6c:	2254      	movs	r2, #84	@ 0x54
 8001c6e:	2100      	movs	r1, #0
 8001c70:	4618      	mov	r0, r3
 8001c72:	f007 ff91 	bl	8009b98 <memset>
 8001c76:	687b      	ldr	r3, [r7, #4]
 8001c78:	681b      	ldr	r3, [r3, #0]
 8001c7a:	f1b3 4fa0 	cmp.w	r3, #1342177280	@ 0x50000000
 8001c7e:	d134      	bne.n	8001cea <HAL_ADC_MspInit+0x9a>
 8001c80:	f44f 4300 	mov.w	r3, #32768	@ 0x8000
 8001c84:	613b      	str	r3, [r7, #16]
 8001c86:	f04f 5300 	mov.w	r3, #536870912	@ 0x20000000
 8001c8a:	657b      	str	r3, [r7, #84]	@ 0x54
 8001c8c:	f107 0310 	add.w	r3, r7, #16
 8001c90:	4618      	mov	r0, r3
 8001c92:	f003 f87b 	bl	8004d8c <HAL_RCCEx_PeriphCLKConfig>
 8001c96:	4603      	mov	r3, r0
 8001c98:	2b00      	cmp	r3, #0
 8001c9a:	d001      	beq.n	8001ca0 <HAL_ADC_MspInit+0x50>
 8001c9c:	f7ff ffae 	bl	8001bfc <Error_Handler>
 8001ca0:	4b14      	ldr	r3, [pc, #80]	@ (8001cf4 <HAL_ADC_MspInit+0xa4>)
 8001ca2:	6cdb      	ldr	r3, [r3, #76]	@ 0x4c
 8001ca4:	4a13      	ldr	r2, [pc, #76]	@ (8001cf4 <HAL_ADC_MspInit+0xa4>)
 8001ca6:	f443 5300 	orr.w	r3, r3, #8192	@ 0x2000
 8001caa:	64d3      	str	r3, [r2, #76]	@ 0x4c
 8001cac:	4b11      	ldr	r3, [pc, #68]	@ (8001cf4 <HAL_ADC_MspInit+0xa4>)
 8001cae:	6cdb      	ldr	r3, [r3, #76]	@ 0x4c
 8001cb0:	f403 5300 	and.w	r3, r3, #8192	@ 0x2000
 8001cb4:	60fb      	str	r3, [r7, #12]
 8001cb6:	68fb      	ldr	r3, [r7, #12]
 8001cb8:	4b0e      	ldr	r3, [pc, #56]	@ (8001cf4 <HAL_ADC_MspInit+0xa4>)
 8001cba:	6cdb      	ldr	r3, [r3, #76]	@ 0x4c
 8001cbc:	4a0d      	ldr	r2, [pc, #52]	@ (8001cf4 <HAL_ADC_MspInit+0xa4>)
 8001cbe:	f043 0301 	orr.w	r3, r3, #1
 8001cc2:	64d3      	str	r3, [r2, #76]	@ 0x4c
 8001cc4:	4b0b      	ldr	r3, [pc, #44]	@ (8001cf4 <HAL_ADC_MspInit+0xa4>)
 8001cc6:	6cdb      	ldr	r3, [r3, #76]	@ 0x4c
 8001cc8:	f003 0301 	and.w	r3, r3, #1
 8001ccc:	60bb      	str	r3, [r7, #8]
 8001cce:	68bb      	ldr	r3, [r7, #8]
 8001cd0:	2303      	movs	r3, #3
 8001cd2:	667b      	str	r3, [r7, #100]	@ 0x64
 8001cd4:	2303      	movs	r3, #3
 8001cd6:	66bb      	str	r3, [r7, #104]	@ 0x68
 8001cd8:	2300      	movs	r3, #0
 8001cda:	66fb      	str	r3, [r7, #108]	@ 0x6c
 8001cdc:	f107 0364 	add.w	r3, r7, #100	@ 0x64
 8001ce0:	4619      	mov	r1, r3
 8001ce2:	f04f 4090 	mov.w	r0, #1207959552	@ 0x48000000
 8001ce6:	f002 f8bd 	bl	8003e64 <HAL_GPIO_Init>
 8001cea:	bf00      	nop
 8001cec:	3778      	adds	r7, #120	@ 0x78
 8001cee:	46bd      	mov	sp, r7
 8001cf0:	bd80      	pop	{r7, pc}
 8001cf2:	bf00      	nop
 8001cf4:	40021000 	.word	0x40021000

08001cf8 <HAL_TIM_Base_MspInit>:
 8001cf8:	b580      	push	{r7, lr}
 8001cfa:	b088      	sub	sp, #32
 8001cfc:	af00      	add	r7, sp, #0
 8001cfe:	6078      	str	r0, [r7, #4]
 8001d00:	687b      	ldr	r3, [r7, #4]
 8001d02:	681b      	ldr	r3, [r3, #0]
 8001d04:	4a39      	ldr	r2, [pc, #228]	@ (8001dec <HAL_TIM_Base_MspInit+0xf4>)
 8001d06:	4293      	cmp	r3, r2
 8001d08:	d11c      	bne.n	8001d44 <HAL_TIM_Base_MspInit+0x4c>
 8001d0a:	4b39      	ldr	r3, [pc, #228]	@ (8001df0 <HAL_TIM_Base_MspInit+0xf8>)
 8001d0c:	6e1b      	ldr	r3, [r3, #96]	@ 0x60
 8001d0e:	4a38      	ldr	r2, [pc, #224]	@ (8001df0 <HAL_TIM_Base_MspInit+0xf8>)
 8001d10:	f443 6300 	orr.w	r3, r3, #2048	@ 0x800
 8001d14:	6613      	str	r3, [r2, #96]	@ 0x60
 8001d16:	4b36      	ldr	r3, [pc, #216]	@ (8001df0 <HAL_TIM_Base_MspInit+0xf8>)
 8001d18:	6e1b      	ldr	r3, [r3, #96]	@ 0x60
 8001d1a:	f403 6300 	and.w	r3, r3, #2048	@ 0x800
 8001d1e:	61fb      	str	r3, [r7, #28]
 8001d20:	69fb      	ldr	r3, [r7, #28]
 8001d22:	2200      	movs	r2, #0
 8001d24:	2100      	movs	r1, #0
 8001d26:	2018      	movs	r0, #24
 8001d28:	f001 fd29 	bl	800377e <HAL_NVIC_SetPriority>
 8001d2c:	2018      	movs	r0, #24
 8001d2e:	f001 fd40 	bl	80037b2 <HAL_NVIC_EnableIRQ>
 8001d32:	2200      	movs	r2, #0
 8001d34:	2100      	movs	r1, #0
 8001d36:	2019      	movs	r0, #25
 8001d38:	f001 fd21 	bl	800377e <HAL_NVIC_SetPriority>
 8001d3c:	2019      	movs	r0, #25
 8001d3e:	f001 fd38 	bl	80037b2 <HAL_NVIC_EnableIRQ>
 8001d42:	e04e      	b.n	8001de2 <HAL_TIM_Base_MspInit+0xea>
 8001d44:	687b      	ldr	r3, [r7, #4]
 8001d46:	681b      	ldr	r3, [r3, #0]
 8001d48:	f1b3 4f80 	cmp.w	r3, #1073741824	@ 0x40000000
 8001d4c:	d10c      	bne.n	8001d68 <HAL_TIM_Base_MspInit+0x70>
 8001d4e:	4b28      	ldr	r3, [pc, #160]	@ (8001df0 <HAL_TIM_Base_MspInit+0xf8>)
 8001d50:	6d9b      	ldr	r3, [r3, #88]	@ 0x58
 8001d52:	4a27      	ldr	r2, [pc, #156]	@ (8001df0 <HAL_TIM_Base_MspInit+0xf8>)
 8001d54:	f043 0301 	orr.w	r3, r3, #1
 8001d58:	6593      	str	r3, [r2, #88]	@ 0x58
 8001d5a:	4b25      	ldr	r3, [pc, #148]	@ (8001df0 <HAL_TIM_Base_MspInit+0xf8>)
 8001d5c:	6d9b      	ldr	r3, [r3, #88]	@ 0x58
 8001d5e:	f003 0301 	and.w	r3, r3, #1
 8001d62:	61bb      	str	r3, [r7, #24]
 8001d64:	69bb      	ldr	r3, [r7, #24]
 8001d66:	e03c      	b.n	8001de2 <HAL_TIM_Base_MspInit+0xea>
 8001d68:	687b      	ldr	r3, [r7, #4]
 8001d6a:	681b      	ldr	r3, [r3, #0]
 8001d6c:	4a21      	ldr	r2, [pc, #132]	@ (8001df4 <HAL_TIM_Base_MspInit+0xfc>)
 8001d6e:	4293      	cmp	r3, r2
 8001d70:	d10c      	bne.n	8001d8c <HAL_TIM_Base_MspInit+0x94>
 8001d72:	4b1f      	ldr	r3, [pc, #124]	@ (8001df0 <HAL_TIM_Base_MspInit+0xf8>)
 8001d74:	6e1b      	ldr	r3, [r3, #96]	@ 0x60
 8001d76:	4a1e      	ldr	r2, [pc, #120]	@ (8001df0 <HAL_TIM_Base_MspInit+0xf8>)
 8001d78:	f443 5300 	orr.w	r3, r3, #8192	@ 0x2000
 8001d7c:	6613      	str	r3, [r2, #96]	@ 0x60
 8001d7e:	4b1c      	ldr	r3, [pc, #112]	@ (8001df0 <HAL_TIM_Base_MspInit+0xf8>)
 8001d80:	6e1b      	ldr	r3, [r3, #96]	@ 0x60
 8001d82:	f403 5300 	and.w	r3, r3, #8192	@ 0x2000
 8001d86:	617b      	str	r3, [r7, #20]
 8001d88:	697b      	ldr	r3, [r7, #20]
 8001d8a:	e02a      	b.n	8001de2 <HAL_TIM_Base_MspInit+0xea>
 8001d8c:	687b      	ldr	r3, [r7, #4]
 8001d8e:	681b      	ldr	r3, [r3, #0]
 8001d90:	4a19      	ldr	r2, [pc, #100]	@ (8001df8 <HAL_TIM_Base_MspInit+0x100>)
 8001d92:	4293      	cmp	r3, r2
 8001d94:	d114      	bne.n	8001dc0 <HAL_TIM_Base_MspInit+0xc8>
 8001d96:	4b16      	ldr	r3, [pc, #88]	@ (8001df0 <HAL_TIM_Base_MspInit+0xf8>)
 8001d98:	6e1b      	ldr	r3, [r3, #96]	@ 0x60
 8001d9a:	4a15      	ldr	r2, [pc, #84]	@ (8001df0 <HAL_TIM_Base_MspInit+0xf8>)
 8001d9c:	f443 3300 	orr.w	r3, r3, #131072	@ 0x20000
 8001da0:	6613      	str	r3, [r2, #96]	@ 0x60
 8001da2:	4b13      	ldr	r3, [pc, #76]	@ (8001df0 <HAL_TIM_Base_MspInit+0xf8>)
 8001da4:	6e1b      	ldr	r3, [r3, #96]	@ 0x60
 8001da6:	f403 3300 	and.w	r3, r3, #131072	@ 0x20000
 8001daa:	613b      	str	r3, [r7, #16]
 8001dac:	693b      	ldr	r3, [r7, #16]
 8001dae:	2200      	movs	r2, #0
 8001db0:	2100      	movs	r1, #0
 8001db2:	2019      	movs	r0, #25
 8001db4:	f001 fce3 	bl	800377e <HAL_NVIC_SetPriority>
 8001db8:	2019      	movs	r0, #25
 8001dba:	f001 fcfa 	bl	80037b2 <HAL_NVIC_EnableIRQ>
 8001dbe:	e010      	b.n	8001de2 <HAL_TIM_Base_MspInit+0xea>
 8001dc0:	687b      	ldr	r3, [r7, #4]
 8001dc2:	681b      	ldr	r3, [r3, #0]
 8001dc4:	4a0d      	ldr	r2, [pc, #52]	@ (8001dfc <HAL_TIM_Base_MspInit+0x104>)
 8001dc6:	4293      	cmp	r3, r2
 8001dc8:	d10b      	bne.n	8001de2 <HAL_TIM_Base_MspInit+0xea>
 8001dca:	4b09      	ldr	r3, [pc, #36]	@ (8001df0 <HAL_TIM_Base_MspInit+0xf8>)
 8001dcc:	6e1b      	ldr	r3, [r3, #96]	@ 0x60
 8001dce:	4a08      	ldr	r2, [pc, #32]	@ (8001df0 <HAL_TIM_Base_MspInit+0xf8>)
 8001dd0:	f443 1380 	orr.w	r3, r3, #1048576	@ 0x100000
 8001dd4:	6613      	str	r3, [r2, #96]	@ 0x60
 8001dd6:	4b06      	ldr	r3, [pc, #24]	@ (8001df0 <HAL_TIM_Base_MspInit+0xf8>)
 8001dd8:	6e1b      	ldr	r3, [r3, #96]	@ 0x60
 8001dda:	f403 1380 	and.w	r3, r3, #1048576	@ 0x100000
 8001dde:	60fb      	str	r3, [r7, #12]
 8001de0:	68fb      	ldr	r3, [r7, #12]
 8001de2:	bf00      	nop
 8001de4:	3720      	adds	r7, #32
 8001de6:	46bd      	mov	sp, r7
 8001de8:	bd80      	pop	{r7, pc}
 8001dea:	bf00      	nop
 8001dec:	40012c00 	.word	0x40012c00
 8001df0:	40021000 	.word	0x40021000
 8001df4:	40013400 	.word	0x40013400
 8001df8:	40014400 	.word	0x40014400
 8001dfc:	40015000 	.word	0x40015000

08001e00 <HAL_TIM_Encoder_MspInit>:
 8001e00:	b580      	push	{r7, lr}
 8001e02:	b08e      	sub	sp, #56	@ 0x38
 8001e04:	af00      	add	r7, sp, #0
 8001e06:	6078      	str	r0, [r7, #4]
 8001e08:	f107 0324 	add.w	r3, r7, #36	@ 0x24
 8001e0c:	2200      	movs	r2, #0
 8001e0e:	601a      	str	r2, [r3, #0]
 8001e10:	605a      	str	r2, [r3, #4]
 8001e12:	609a      	str	r2, [r3, #8]
 8001e14:	60da      	str	r2, [r3, #12]
 8001e16:	611a      	str	r2, [r3, #16]
 8001e18:	687b      	ldr	r3, [r7, #4]
 8001e1a:	681b      	ldr	r3, [r3, #0]
 8001e1c:	4a4b      	ldr	r2, [pc, #300]	@ (8001f4c <HAL_TIM_Encoder_MspInit+0x14c>)
 8001e1e:	4293      	cmp	r3, r2
 8001e20:	d145      	bne.n	8001eae <HAL_TIM_Encoder_MspInit+0xae>
 8001e22:	4b4b      	ldr	r3, [pc, #300]	@ (8001f50 <HAL_TIM_Encoder_MspInit+0x150>)
 8001e24:	6d9b      	ldr	r3, [r3, #88]	@ 0x58
 8001e26:	4a4a      	ldr	r2, [pc, #296]	@ (8001f50 <HAL_TIM_Encoder_MspInit+0x150>)
 8001e28:	f043 0302 	orr.w	r3, r3, #2
 8001e2c:	6593      	str	r3, [r2, #88]	@ 0x58
 8001e2e:	4b48      	ldr	r3, [pc, #288]	@ (8001f50 <HAL_TIM_Encoder_MspInit+0x150>)
 8001e30:	6d9b      	ldr	r3, [r3, #88]	@ 0x58
 8001e32:	f003 0302 	and.w	r3, r3, #2
 8001e36:	623b      	str	r3, [r7, #32]
 8001e38:	6a3b      	ldr	r3, [r7, #32]
 8001e3a:	4b45      	ldr	r3, [pc, #276]	@ (8001f50 <HAL_TIM_Encoder_MspInit+0x150>)
 8001e3c:	6cdb      	ldr	r3, [r3, #76]	@ 0x4c
 8001e3e:	4a44      	ldr	r2, [pc, #272]	@ (8001f50 <HAL_TIM_Encoder_MspInit+0x150>)
 8001e40:	f043 0301 	orr.w	r3, r3, #1
 8001e44:	64d3      	str	r3, [r2, #76]	@ 0x4c
 8001e46:	4b42      	ldr	r3, [pc, #264]	@ (8001f50 <HAL_TIM_Encoder_MspInit+0x150>)
 8001e48:	6cdb      	ldr	r3, [r3, #76]	@ 0x4c
 8001e4a:	f003 0301 	and.w	r3, r3, #1
 8001e4e:	61fb      	str	r3, [r7, #28]
 8001e50:	69fb      	ldr	r3, [r7, #28]
 8001e52:	4b3f      	ldr	r3, [pc, #252]	@ (8001f50 <HAL_TIM_Encoder_MspInit+0x150>)
 8001e54:	6cdb      	ldr	r3, [r3, #76]	@ 0x4c
 8001e56:	4a3e      	ldr	r2, [pc, #248]	@ (8001f50 <HAL_TIM_Encoder_MspInit+0x150>)
 8001e58:	f043 0304 	orr.w	r3, r3, #4
 8001e5c:	64d3      	str	r3, [r2, #76]	@ 0x4c
 8001e5e:	4b3c      	ldr	r3, [pc, #240]	@ (8001f50 <HAL_TIM_Encoder_MspInit+0x150>)
 8001e60:	6cdb      	ldr	r3, [r3, #76]	@ 0x4c
 8001e62:	f003 0304 	and.w	r3, r3, #4
 8001e66:	61bb      	str	r3, [r7, #24]
 8001e68:	69bb      	ldr	r3, [r7, #24]
 8001e6a:	2340      	movs	r3, #64	@ 0x40
 8001e6c:	627b      	str	r3, [r7, #36]	@ 0x24
 8001e6e:	2302      	movs	r3, #2
 8001e70:	62bb      	str	r3, [r7, #40]	@ 0x28
 8001e72:	2300      	movs	r3, #0
 8001e74:	62fb      	str	r3, [r7, #44]	@ 0x2c
 8001e76:	2300      	movs	r3, #0
 8001e78:	633b      	str	r3, [r7, #48]	@ 0x30
 8001e7a:	2302      	movs	r3, #2
 8001e7c:	637b      	str	r3, [r7, #52]	@ 0x34
 8001e7e:	f107 0324 	add.w	r3, r7, #36	@ 0x24
 8001e82:	4619      	mov	r1, r3
 8001e84:	f04f 4090 	mov.w	r0, #1207959552	@ 0x48000000
 8001e88:	f001 ffec 	bl	8003e64 <HAL_GPIO_Init>
 8001e8c:	2380      	movs	r3, #128	@ 0x80
 8001e8e:	627b      	str	r3, [r7, #36]	@ 0x24
 8001e90:	2302      	movs	r3, #2
 8001e92:	62bb      	str	r3, [r7, #40]	@ 0x28
 8001e94:	2300      	movs	r3, #0
 8001e96:	62fb      	str	r3, [r7, #44]	@ 0x2c
 8001e98:	2300      	movs	r3, #0
 8001e9a:	633b      	str	r3, [r7, #48]	@ 0x30
 8001e9c:	2302      	movs	r3, #2
 8001e9e:	637b      	str	r3, [r7, #52]	@ 0x34
 8001ea0:	f107 0324 	add.w	r3, r7, #36	@ 0x24
 8001ea4:	4619      	mov	r1, r3
 8001ea6:	482b      	ldr	r0, [pc, #172]	@ (8001f54 <HAL_TIM_Encoder_MspInit+0x154>)
 8001ea8:	f001 ffdc 	bl	8003e64 <HAL_GPIO_Init>
 8001eac:	e04a      	b.n	8001f44 <HAL_TIM_Encoder_MspInit+0x144>
 8001eae:	687b      	ldr	r3, [r7, #4]
 8001eb0:	681b      	ldr	r3, [r3, #0]
 8001eb2:	4a29      	ldr	r2, [pc, #164]	@ (8001f58 <HAL_TIM_Encoder_MspInit+0x158>)
 8001eb4:	4293      	cmp	r3, r2
 8001eb6:	d145      	bne.n	8001f44 <HAL_TIM_Encoder_MspInit+0x144>
 8001eb8:	4b25      	ldr	r3, [pc, #148]	@ (8001f50 <HAL_TIM_Encoder_MspInit+0x150>)
 8001eba:	6d9b      	ldr	r3, [r3, #88]	@ 0x58
 8001ebc:	4a24      	ldr	r2, [pc, #144]	@ (8001f50 <HAL_TIM_Encoder_MspInit+0x150>)
 8001ebe:	f043 0304 	orr.w	r3, r3, #4
 8001ec2:	6593      	str	r3, [r2, #88]	@ 0x58
 8001ec4:	4b22      	ldr	r3, [pc, #136]	@ (8001f50 <HAL_TIM_Encoder_MspInit+0x150>)
 8001ec6:	6d9b      	ldr	r3, [r3, #88]	@ 0x58
 8001ec8:	f003 0304 	and.w	r3, r3, #4
 8001ecc:	617b      	str	r3, [r7, #20]
 8001ece:	697b      	ldr	r3, [r7, #20]
 8001ed0:	4b1f      	ldr	r3, [pc, #124]	@ (8001f50 <HAL_TIM_Encoder_MspInit+0x150>)
 8001ed2:	6cdb      	ldr	r3, [r3, #76]	@ 0x4c
 8001ed4:	4a1e      	ldr	r2, [pc, #120]	@ (8001f50 <HAL_TIM_Encoder_MspInit+0x150>)
 8001ed6:	f043 0301 	orr.w	r3, r3, #1
 8001eda:	64d3      	str	r3, [r2, #76]	@ 0x4c
 8001edc:	4b1c      	ldr	r3, [pc, #112]	@ (8001f50 <HAL_TIM_Encoder_MspInit+0x150>)
 8001ede:	6cdb      	ldr	r3, [r3, #76]	@ 0x4c
 8001ee0:	f003 0301 	and.w	r3, r3, #1
 8001ee4:	613b      	str	r3, [r7, #16]
 8001ee6:	693b      	ldr	r3, [r7, #16]
 8001ee8:	4b19      	ldr	r3, [pc, #100]	@ (8001f50 <HAL_TIM_Encoder_MspInit+0x150>)
 8001eea:	6cdb      	ldr	r3, [r3, #76]	@ 0x4c
 8001eec:	4a18      	ldr	r2, [pc, #96]	@ (8001f50 <HAL_TIM_Encoder_MspInit+0x150>)
 8001eee:	f043 0302 	orr.w	r3, r3, #2
 8001ef2:	64d3      	str	r3, [r2, #76]	@ 0x4c
 8001ef4:	4b16      	ldr	r3, [pc, #88]	@ (8001f50 <HAL_TIM_Encoder_MspInit+0x150>)
 8001ef6:	6cdb      	ldr	r3, [r3, #76]	@ 0x4c
 8001ef8:	f003 0302 	and.w	r3, r3, #2
 8001efc:	60fb      	str	r3, [r7, #12]
 8001efe:	68fb      	ldr	r3, [r7, #12]
 8001f00:	f44f 6300 	mov.w	r3, #2048	@ 0x800
 8001f04:	627b      	str	r3, [r7, #36]	@ 0x24
 8001f06:	2302      	movs	r3, #2
 8001f08:	62bb      	str	r3, [r7, #40]	@ 0x28
 8001f0a:	2300      	movs	r3, #0
 8001f0c:	62fb      	str	r3, [r7, #44]	@ 0x2c
 8001f0e:	2300      	movs	r3, #0
 8001f10:	633b      	str	r3, [r7, #48]	@ 0x30
 8001f12:	230a      	movs	r3, #10
 8001f14:	637b      	str	r3, [r7, #52]	@ 0x34
 8001f16:	f107 0324 	add.w	r3, r7, #36	@ 0x24
 8001f1a:	4619      	mov	r1, r3
 8001f1c:	f04f 4090 	mov.w	r0, #1207959552	@ 0x48000000
 8001f20:	f001 ffa0 	bl	8003e64 <HAL_GPIO_Init>
 8001f24:	2380      	movs	r3, #128	@ 0x80
 8001f26:	627b      	str	r3, [r7, #36]	@ 0x24
 8001f28:	2302      	movs	r3, #2
 8001f2a:	62bb      	str	r3, [r7, #40]	@ 0x28
 8001f2c:	2300      	movs	r3, #0
 8001f2e:	62fb      	str	r3, [r7, #44]	@ 0x2c
 8001f30:	2300      	movs	r3, #0
 8001f32:	633b      	str	r3, [r7, #48]	@ 0x30
 8001f34:	2302      	movs	r3, #2
 8001f36:	637b      	str	r3, [r7, #52]	@ 0x34
 8001f38:	f107 0324 	add.w	r3, r7, #36	@ 0x24
 8001f3c:	4619      	mov	r1, r3
 8001f3e:	4807      	ldr	r0, [pc, #28]	@ (8001f5c <HAL_TIM_Encoder_MspInit+0x15c>)
 8001f40:	f001 ff90 	bl	8003e64 <HAL_GPIO_Init>
 8001f44:	bf00      	nop
 8001f46:	3738      	adds	r7, #56	@ 0x38
 8001f48:	46bd      	mov	sp, r7
 8001f4a:	bd80      	pop	{r7, pc}
 8001f4c:	40000400 	.word	0x40000400
 8001f50:	40021000 	.word	0x40021000
 8001f54:	48000800 	.word	0x48000800
 8001f58:	40000800 	.word	0x40000800
 8001f5c:	48000400 	.word	0x48000400

08001f60 <HAL_TIM_MspPostInit>:
 8001f60:	b580      	push	{r7, lr}
 8001f62:	b08a      	sub	sp, #40	@ 0x28
 8001f64:	af00      	add	r7, sp, #0
 8001f66:	6078      	str	r0, [r7, #4]
 8001f68:	f107 0314 	add.w	r3, r7, #20
 8001f6c:	2200      	movs	r2, #0
 8001f6e:	601a      	str	r2, [r3, #0]
 8001f70:	605a      	str	r2, [r3, #4]
 8001f72:	609a      	str	r2, [r3, #8]
 8001f74:	60da      	str	r2, [r3, #12]
 8001f76:	611a      	str	r2, [r3, #16]
 8001f78:	687b      	ldr	r3, [r7, #4]
 8001f7a:	681b      	ldr	r3, [r3, #0]
 8001f7c:	4a31      	ldr	r2, [pc, #196]	@ (8002044 <HAL_TIM_MspPostInit+0xe4>)
 8001f7e:	4293      	cmp	r3, r2
 8001f80:	d11d      	bne.n	8001fbe <HAL_TIM_MspPostInit+0x5e>
 8001f82:	4b31      	ldr	r3, [pc, #196]	@ (8002048 <HAL_TIM_MspPostInit+0xe8>)
 8001f84:	6cdb      	ldr	r3, [r3, #76]	@ 0x4c
 8001f86:	4a30      	ldr	r2, [pc, #192]	@ (8002048 <HAL_TIM_MspPostInit+0xe8>)
 8001f88:	f043 0304 	orr.w	r3, r3, #4
 8001f8c:	64d3      	str	r3, [r2, #76]	@ 0x4c
 8001f8e:	4b2e      	ldr	r3, [pc, #184]	@ (8002048 <HAL_TIM_MspPostInit+0xe8>)
 8001f90:	6cdb      	ldr	r3, [r3, #76]	@ 0x4c
 8001f92:	f003 0304 	and.w	r3, r3, #4
 8001f96:	613b      	str	r3, [r7, #16]
 8001f98:	693b      	ldr	r3, [r7, #16]
 8001f9a:	f44f 7300 	mov.w	r3, #512	@ 0x200
 8001f9e:	617b      	str	r3, [r7, #20]
 8001fa0:	2302      	movs	r3, #2
 8001fa2:	61bb      	str	r3, [r7, #24]
 8001fa4:	2300      	movs	r3, #0
 8001fa6:	61fb      	str	r3, [r7, #28]
 8001fa8:	2300      	movs	r3, #0
 8001faa:	623b      	str	r3, [r7, #32]
 8001fac:	2304      	movs	r3, #4
 8001fae:	627b      	str	r3, [r7, #36]	@ 0x24
 8001fb0:	f107 0314 	add.w	r3, r7, #20
 8001fb4:	4619      	mov	r1, r3
 8001fb6:	4825      	ldr	r0, [pc, #148]	@ (800204c <HAL_TIM_MspPostInit+0xec>)
 8001fb8:	f001 ff54 	bl	8003e64 <HAL_GPIO_Init>
 8001fbc:	e03d      	b.n	800203a <HAL_TIM_MspPostInit+0xda>
 8001fbe:	687b      	ldr	r3, [r7, #4]
 8001fc0:	681b      	ldr	r3, [r3, #0]
 8001fc2:	4a23      	ldr	r2, [pc, #140]	@ (8002050 <HAL_TIM_MspPostInit+0xf0>)
 8001fc4:	4293      	cmp	r3, r2
 8001fc6:	d138      	bne.n	800203a <HAL_TIM_MspPostInit+0xda>
 8001fc8:	4b1f      	ldr	r3, [pc, #124]	@ (8002048 <HAL_TIM_MspPostInit+0xe8>)
 8001fca:	6cdb      	ldr	r3, [r3, #76]	@ 0x4c
 8001fcc:	4a1e      	ldr	r2, [pc, #120]	@ (8002048 <HAL_TIM_MspPostInit+0xe8>)
 8001fce:	f043 0302 	orr.w	r3, r3, #2
 8001fd2:	64d3      	str	r3, [r2, #76]	@ 0x4c
 8001fd4:	4b1c      	ldr	r3, [pc, #112]	@ (8002048 <HAL_TIM_MspPostInit+0xe8>)
 8001fd6:	6cdb      	ldr	r3, [r3, #76]	@ 0x4c
 8001fd8:	f003 0302 	and.w	r3, r3, #2
 8001fdc:	60fb      	str	r3, [r7, #12]
 8001fde:	68fb      	ldr	r3, [r7, #12]
 8001fe0:	4b19      	ldr	r3, [pc, #100]	@ (8002048 <HAL_TIM_MspPostInit+0xe8>)
 8001fe2:	6cdb      	ldr	r3, [r3, #76]	@ 0x4c
 8001fe4:	4a18      	ldr	r2, [pc, #96]	@ (8002048 <HAL_TIM_MspPostInit+0xe8>)
 8001fe6:	f043 0304 	orr.w	r3, r3, #4
 8001fea:	64d3      	str	r3, [r2, #76]	@ 0x4c
 8001fec:	4b16      	ldr	r3, [pc, #88]	@ (8002048 <HAL_TIM_MspPostInit+0xe8>)
 8001fee:	6cdb      	ldr	r3, [r3, #76]	@ 0x4c
 8001ff0:	f003 0304 	and.w	r3, r3, #4
 8001ff4:	60bb      	str	r3, [r7, #8]
 8001ff6:	68bb      	ldr	r3, [r7, #8]
 8001ff8:	2304      	movs	r3, #4
 8001ffa:	617b      	str	r3, [r7, #20]
 8001ffc:	2302      	movs	r3, #2
 8001ffe:	61bb      	str	r3, [r7, #24]
 8002000:	2300      	movs	r3, #0
 8002002:	61fb      	str	r3, [r7, #28]
 8002004:	2300      	movs	r3, #0
 8002006:	623b      	str	r3, [r7, #32]
 8002008:	2303      	movs	r3, #3
 800200a:	627b      	str	r3, [r7, #36]	@ 0x24
 800200c:	f107 0314 	add.w	r3, r7, #20
 8002010:	4619      	mov	r1, r3
 8002012:	4810      	ldr	r0, [pc, #64]	@ (8002054 <HAL_TIM_MspPostInit+0xf4>)
 8002014:	f001 ff26 	bl	8003e64 <HAL_GPIO_Init>
 8002018:	f44f 7380 	mov.w	r3, #256	@ 0x100
 800201c:	617b      	str	r3, [r7, #20]
 800201e:	2302      	movs	r3, #2
 8002020:	61bb      	str	r3, [r7, #24]
 8002022:	2300      	movs	r3, #0
 8002024:	61fb      	str	r3, [r7, #28]
 8002026:	2300      	movs	r3, #0
 8002028:	623b      	str	r3, [r7, #32]
 800202a:	2306      	movs	r3, #6
 800202c:	627b      	str	r3, [r7, #36]	@ 0x24
 800202e:	f107 0314 	add.w	r3, r7, #20
 8002032:	4619      	mov	r1, r3
 8002034:	4805      	ldr	r0, [pc, #20]	@ (800204c <HAL_TIM_MspPostInit+0xec>)
 8002036:	f001 ff15 	bl	8003e64 <HAL_GPIO_Init>
 800203a:	bf00      	nop
 800203c:	3728      	adds	r7, #40	@ 0x28
 800203e:	46bd      	mov	sp, r7
 8002040:	bd80      	pop	{r7, pc}
 8002042:	bf00      	nop
 8002044:	40013400 	.word	0x40013400
 8002048:	40021000 	.word	0x40021000
 800204c:	48000800 	.word	0x48000800
 8002050:	40015000 	.word	0x40015000
 8002054:	48000400 	.word	0x48000400

08002058 <HAL_UART_MspInit>:
 8002058:	b580      	push	{r7, lr}
 800205a:	b09e      	sub	sp, #120	@ 0x78
 800205c:	af00      	add	r7, sp, #0
 800205e:	6078      	str	r0, [r7, #4]
 8002060:	f107 0364 	add.w	r3, r7, #100	@ 0x64
 8002064:	2200      	movs	r2, #0
 8002066:	601a      	str	r2, [r3, #0]
 8002068:	605a      	str	r2, [r3, #4]
 800206a:	609a      	str	r2, [r3, #8]
 800206c:	60da      	str	r2, [r3, #12]
 800206e:	611a      	str	r2, [r3, #16]
 8002070:	f107 0310 	add.w	r3, r7, #16
 8002074:	2254      	movs	r2, #84	@ 0x54
 8002076:	2100      	movs	r1, #0
 8002078:	4618      	mov	r0, r3
 800207a:	f007 fd8d 	bl	8009b98 <memset>
 800207e:	687b      	ldr	r3, [r7, #4]
 8002080:	681b      	ldr	r3, [r3, #0]
 8002082:	4a37      	ldr	r2, [pc, #220]	@ (8002160 <HAL_UART_MspInit+0x108>)
 8002084:	4293      	cmp	r3, r2
 8002086:	d167      	bne.n	8002158 <HAL_UART_MspInit+0x100>
 8002088:	2302      	movs	r3, #2
 800208a:	613b      	str	r3, [r7, #16]
 800208c:	2300      	movs	r3, #0
 800208e:	61bb      	str	r3, [r7, #24]
 8002090:	f107 0310 	add.w	r3, r7, #16
 8002094:	4618      	mov	r0, r3
 8002096:	f002 fe79 	bl	8004d8c <HAL_RCCEx_PeriphCLKConfig>
 800209a:	4603      	mov	r3, r0
 800209c:	2b00      	cmp	r3, #0
 800209e:	d001      	beq.n	80020a4 <HAL_UART_MspInit+0x4c>
 80020a0:	f7ff fdac 	bl	8001bfc <Error_Handler>
 80020a4:	4b2f      	ldr	r3, [pc, #188]	@ (8002164 <HAL_UART_MspInit+0x10c>)
 80020a6:	6d9b      	ldr	r3, [r3, #88]	@ 0x58
 80020a8:	4a2e      	ldr	r2, [pc, #184]	@ (8002164 <HAL_UART_MspInit+0x10c>)
 80020aa:	f443 3300 	orr.w	r3, r3, #131072	@ 0x20000
 80020ae:	6593      	str	r3, [r2, #88]	@ 0x58
 80020b0:	4b2c      	ldr	r3, [pc, #176]	@ (8002164 <HAL_UART_MspInit+0x10c>)
 80020b2:	6d9b      	ldr	r3, [r3, #88]	@ 0x58
 80020b4:	f403 3300 	and.w	r3, r3, #131072	@ 0x20000
 80020b8:	60fb      	str	r3, [r7, #12]
 80020ba:	68fb      	ldr	r3, [r7, #12]
 80020bc:	4b29      	ldr	r3, [pc, #164]	@ (8002164 <HAL_UART_MspInit+0x10c>)
 80020be:	6cdb      	ldr	r3, [r3, #76]	@ 0x4c
 80020c0:	4a28      	ldr	r2, [pc, #160]	@ (8002164 <HAL_UART_MspInit+0x10c>)
 80020c2:	f043 0301 	orr.w	r3, r3, #1
 80020c6:	64d3      	str	r3, [r2, #76]	@ 0x4c
 80020c8:	4b26      	ldr	r3, [pc, #152]	@ (8002164 <HAL_UART_MspInit+0x10c>)
 80020ca:	6cdb      	ldr	r3, [r3, #76]	@ 0x4c
 80020cc:	f003 0301 	and.w	r3, r3, #1
 80020d0:	60bb      	str	r3, [r7, #8]
 80020d2:	68bb      	ldr	r3, [r7, #8]
 80020d4:	230c      	movs	r3, #12
 80020d6:	667b      	str	r3, [r7, #100]	@ 0x64
 80020d8:	2302      	movs	r3, #2
 80020da:	66bb      	str	r3, [r7, #104]	@ 0x68
 80020dc:	2300      	movs	r3, #0
 80020de:	66fb      	str	r3, [r7, #108]	@ 0x6c
 80020e0:	2300      	movs	r3, #0
 80020e2:	673b      	str	r3, [r7, #112]	@ 0x70
 80020e4:	2307      	movs	r3, #7
 80020e6:	677b      	str	r3, [r7, #116]	@ 0x74
 80020e8:	f107 0364 	add.w	r3, r7, #100	@ 0x64
 80020ec:	4619      	mov	r1, r3
 80020ee:	f04f 4090 	mov.w	r0, #1207959552	@ 0x48000000
 80020f2:	f001 feb7 	bl	8003e64 <HAL_GPIO_Init>
 80020f6:	4b1c      	ldr	r3, [pc, #112]	@ (8002168 <HAL_UART_MspInit+0x110>)
 80020f8:	4a1c      	ldr	r2, [pc, #112]	@ (800216c <HAL_UART_MspInit+0x114>)
 80020fa:	601a      	str	r2, [r3, #0]
 80020fc:	4b1a      	ldr	r3, [pc, #104]	@ (8002168 <HAL_UART_MspInit+0x110>)
 80020fe:	221b      	movs	r2, #27
 8002100:	605a      	str	r2, [r3, #4]
 8002102:	4b19      	ldr	r3, [pc, #100]	@ (8002168 <HAL_UART_MspInit+0x110>)
 8002104:	2210      	movs	r2, #16
 8002106:	609a      	str	r2, [r3, #8]
 8002108:	4b17      	ldr	r3, [pc, #92]	@ (8002168 <HAL_UART_MspInit+0x110>)
 800210a:	2200      	movs	r2, #0
 800210c:	60da      	str	r2, [r3, #12]
 800210e:	4b16      	ldr	r3, [pc, #88]	@ (8002168 <HAL_UART_MspInit+0x110>)
 8002110:	2280      	movs	r2, #128	@ 0x80
 8002112:	611a      	str	r2, [r3, #16]
 8002114:	4b14      	ldr	r3, [pc, #80]	@ (8002168 <HAL_UART_MspInit+0x110>)
 8002116:	2200      	movs	r2, #0
 8002118:	615a      	str	r2, [r3, #20]
 800211a:	4b13      	ldr	r3, [pc, #76]	@ (8002168 <HAL_UART_MspInit+0x110>)
 800211c:	2200      	movs	r2, #0
 800211e:	619a      	str	r2, [r3, #24]
 8002120:	4b11      	ldr	r3, [pc, #68]	@ (8002168 <HAL_UART_MspInit+0x110>)
 8002122:	2200      	movs	r2, #0
 8002124:	61da      	str	r2, [r3, #28]
 8002126:	4b10      	ldr	r3, [pc, #64]	@ (8002168 <HAL_UART_MspInit+0x110>)
 8002128:	2200      	movs	r2, #0
 800212a:	621a      	str	r2, [r3, #32]
 800212c:	480e      	ldr	r0, [pc, #56]	@ (8002168 <HAL_UART_MspInit+0x110>)
 800212e:	f001 fb5b 	bl	80037e8 <HAL_DMA_Init>
 8002132:	4603      	mov	r3, r0
 8002134:	2b00      	cmp	r3, #0
 8002136:	d001      	beq.n	800213c <HAL_UART_MspInit+0xe4>
 8002138:	f7ff fd60 	bl	8001bfc <Error_Handler>
 800213c:	687b      	ldr	r3, [r7, #4]
 800213e:	4a0a      	ldr	r2, [pc, #40]	@ (8002168 <HAL_UART_MspInit+0x110>)
 8002140:	67da      	str	r2, [r3, #124]	@ 0x7c
 8002142:	4a09      	ldr	r2, [pc, #36]	@ (8002168 <HAL_UART_MspInit+0x110>)
 8002144:	687b      	ldr	r3, [r7, #4]
 8002146:	6293      	str	r3, [r2, #40]	@ 0x28
 8002148:	2200      	movs	r2, #0
 800214a:	2100      	movs	r1, #0
 800214c:	2026      	movs	r0, #38	@ 0x26
 800214e:	f001 fb16 	bl	800377e <HAL_NVIC_SetPriority>
 8002152:	2026      	movs	r0, #38	@ 0x26
 8002154:	f001 fb2d 	bl	80037b2 <HAL_NVIC_EnableIRQ>
 8002158:	bf00      	nop
 800215a:	3778      	adds	r7, #120	@ 0x78
 800215c:	46bd      	mov	sp, r7
 800215e:	bd80      	pop	{r7, pc}
 8002160:	40004400 	.word	0x40004400
 8002164:	40021000 	.word	0x40021000
 8002168:	20000900 	.word	0x20000900
 800216c:	40020008 	.word	0x40020008

08002170 <NMI_Handler>:
 8002170:	b480      	push	{r7}
 8002172:	af00      	add	r7, sp, #0
 8002174:	bf00      	nop
 8002176:	e7fd      	b.n	8002174 <NMI_Handler+0x4>

08002178 <HardFault_Handler>:
 8002178:	b480      	push	{r7}
 800217a:	af00      	add	r7, sp, #0
 800217c:	bf00      	nop
 800217e:	e7fd      	b.n	800217c <HardFault_Handler+0x4>

08002180 <MemManage_Handler>:
 8002180:	b480      	push	{r7}
 8002182:	af00      	add	r7, sp, #0
 8002184:	bf00      	nop
 8002186:	e7fd      	b.n	8002184 <MemManage_Handler+0x4>

08002188 <BusFault_Handler>:
 8002188:	b480      	push	{r7}
 800218a:	af00      	add	r7, sp, #0
 800218c:	bf00      	nop
 800218e:	e7fd      	b.n	800218c <BusFault_Handler+0x4>

08002190 <UsageFault_Handler>:
 8002190:	b480      	push	{r7}
 8002192:	af00      	add	r7, sp, #0
 8002194:	bf00      	nop
 8002196:	e7fd      	b.n	8002194 <UsageFault_Handler+0x4>

08002198 <SVC_Handler>:
 8002198:	b480      	push	{r7}
 800219a:	af00      	add	r7, sp, #0
 800219c:	bf00      	nop
 800219e:	46bd      	mov	sp, r7
 80021a0:	f85d 7b04 	ldr.w	r7, [sp], #4
 80021a4:	4770      	bx	lr

080021a6 <DebugMon_Handler>:
 80021a6:	b480      	push	{r7}
 80021a8:	af00      	add	r7, sp, #0
 80021aa:	bf00      	nop
 80021ac:	46bd      	mov	sp, r7
 80021ae:	f85d 7b04 	ldr.w	r7, [sp], #4
 80021b2:	4770      	bx	lr

080021b4 <PendSV_Handler>:
 80021b4:	b480      	push	{r7}
 80021b6:	af00      	add	r7, sp, #0
 80021b8:	bf00      	nop
 80021ba:	46bd      	mov	sp, r7
 80021bc:	f85d 7b04 	ldr.w	r7, [sp], #4
 80021c0:	4770      	bx	lr

080021c2 <SysTick_Handler>:
 80021c2:	b580      	push	{r7, lr}
 80021c4:	af00      	add	r7, sp, #0
 80021c6:	f000 f8e1 	bl	800238c <HAL_IncTick>
 80021ca:	bf00      	nop
 80021cc:	bd80      	pop	{r7, pc}
	...

080021d0 <DMA1_Channel1_IRQHandler>:
 80021d0:	b580      	push	{r7, lr}
 80021d2:	af00      	add	r7, sp, #0
 80021d4:	4802      	ldr	r0, [pc, #8]	@ (80021e0 <DMA1_Channel1_IRQHandler+0x10>)
 80021d6:	f001 fcea 	bl	8003bae <HAL_DMA_IRQHandler>
 80021da:	bf00      	nop
 80021dc:	bd80      	pop	{r7, pc}
 80021de:	bf00      	nop
 80021e0:	20000900 	.word	0x20000900

080021e4 <EXTI9_5_IRQHandler>:
 80021e4:	b580      	push	{r7, lr}
 80021e6:	af00      	add	r7, sp, #0
 80021e8:	f44f 7000 	mov.w	r0, #512	@ 0x200
 80021ec:	f001 ffd4 	bl	8004198 <HAL_GPIO_EXTI_IRQHandler>
 80021f0:	bf00      	nop
 80021f2:	bd80      	pop	{r7, pc}

080021f4 <TIM1_BRK_TIM15_IRQHandler>:
 80021f4:	b580      	push	{r7, lr}
 80021f6:	af00      	add	r7, sp, #0
 80021f8:	4802      	ldr	r0, [pc, #8]	@ (8002204 <TIM1_BRK_TIM15_IRQHandler+0x10>)
 80021fa:	f003 fc05 	bl	8005a08 <HAL_TIM_IRQHandler>
 80021fe:	bf00      	nop
 8002200:	bd80      	pop	{r7, pc}
 8002202:	bf00      	nop
 8002204:	200002a0 	.word	0x200002a0

08002208 <TIM1_UP_TIM16_IRQHandler>:
 8002208:	b580      	push	{r7, lr}
 800220a:	af00      	add	r7, sp, #0
 800220c:	4803      	ldr	r0, [pc, #12]	@ (800221c <TIM1_UP_TIM16_IRQHandler+0x14>)
 800220e:	f003 fbfb 	bl	8005a08 <HAL_TIM_IRQHandler>
 8002212:	4803      	ldr	r0, [pc, #12]	@ (8002220 <TIM1_UP_TIM16_IRQHandler+0x18>)
 8002214:	f003 fbf8 	bl	8005a08 <HAL_TIM_IRQHandler>
 8002218:	bf00      	nop
 800221a:	bd80      	pop	{r7, pc}
 800221c:	200002a0 	.word	0x200002a0
 8002220:	2000069c 	.word	0x2000069c

08002224 <USART2_IRQHandler>:
 8002224:	b580      	push	{r7, lr}
 8002226:	af00      	add	r7, sp, #0
 8002228:	4802      	ldr	r0, [pc, #8]	@ (8002234 <USART2_IRQHandler+0x10>)
 800222a:	f005 fafb 	bl	8007824 <HAL_UART_IRQHandler>
 800222e:	bf00      	nop
 8002230:	bd80      	pop	{r7, pc}
 8002232:	bf00      	nop
 8002234:	20000834 	.word	0x20000834

08002238 <EXTI15_10_IRQHandler>:
 8002238:	b580      	push	{r7, lr}
 800223a:	af00      	add	r7, sp, #0
 800223c:	f44f 6080 	mov.w	r0, #1024	@ 0x400
 8002240:	f001 ffaa 	bl	8004198 <HAL_GPIO_EXTI_IRQHandler>
 8002244:	f44f 6000 	mov.w	r0, #2048	@ 0x800
 8002248:	f001 ffa6 	bl	8004198 <HAL_GPIO_EXTI_IRQHandler>
 800224c:	f44f 5080 	mov.w	r0, #4096	@ 0x1000
 8002250:	f001 ffa2 	bl	8004198 <HAL_GPIO_EXTI_IRQHandler>
 8002254:	f44f 5000 	mov.w	r0, #8192	@ 0x2000
 8002258:	f001 ff9e 	bl	8004198 <HAL_GPIO_EXTI_IRQHandler>
 800225c:	f44f 4080 	mov.w	r0, #16384	@ 0x4000
 8002260:	f001 ff9a 	bl	8004198 <HAL_GPIO_EXTI_IRQHandler>
 8002264:	f44f 4000 	mov.w	r0, #32768	@ 0x8000
 8002268:	f001 ff96 	bl	8004198 <HAL_GPIO_EXTI_IRQHandler>
 800226c:	bf00      	nop
 800226e:	bd80      	pop	{r7, pc}

08002270 <SystemInit>:
 8002270:	b480      	push	{r7}
 8002272:	af00      	add	r7, sp, #0
 8002274:	4b06      	ldr	r3, [pc, #24]	@ (8002290 <SystemInit+0x20>)
 8002276:	f8d3 3088 	ldr.w	r3, [r3, #136]	@ 0x88
 800227a:	4a05      	ldr	r2, [pc, #20]	@ (8002290 <SystemInit+0x20>)
 800227c:	f443 0370 	orr.w	r3, r3, #15728640	@ 0xf00000
 8002280:	f8c2 3088 	str.w	r3, [r2, #136]	@ 0x88
 8002284:	bf00      	nop
 8002286:	46bd      	mov	sp, r7
 8002288:	f85d 7b04 	ldr.w	r7, [sp], #4
 800228c:	4770      	bx	lr
 800228e:	bf00      	nop
 8002290:	e000ed00 	.word	0xe000ed00

08002294 <Reset_Handler>:
 8002294:	480d      	ldr	r0, [pc, #52]	@ (80022cc <LoopForever+0x2>)
 8002296:	4685      	mov	sp, r0
 8002298:	f7ff ffea 	bl	8002270 <SystemInit>
 800229c:	480c      	ldr	r0, [pc, #48]	@ (80022d0 <LoopForever+0x6>)
 800229e:	490d      	ldr	r1, [pc, #52]	@ (80022d4 <LoopForever+0xa>)
 80022a0:	4a0d      	ldr	r2, [pc, #52]	@ (80022d8 <LoopForever+0xe>)
 80022a2:	2300      	movs	r3, #0
 80022a4:	e002      	b.n	80022ac <LoopCopyDataInit>

080022a6 <CopyDataInit>:
 80022a6:	58d4      	ldr	r4, [r2, r3]
 80022a8:	50c4      	str	r4, [r0, r3]
 80022aa:	3304      	adds	r3, #4

080022ac <LoopCopyDataInit>:
 80022ac:	18c4      	adds	r4, r0, r3
 80022ae:	428c      	cmp	r4, r1
 80022b0:	d3f9      	bcc.n	80022a6 <CopyDataInit>
 80022b2:	4a0a      	ldr	r2, [pc, #40]	@ (80022dc <LoopForever+0x12>)
 80022b4:	4c0a      	ldr	r4, [pc, #40]	@ (80022e0 <LoopForever+0x16>)
 80022b6:	2300      	movs	r3, #0
 80022b8:	e001      	b.n	80022be <LoopFillZerobss>

080022ba <FillZerobss>:
 80022ba:	6013      	str	r3, [r2, #0]
 80022bc:	3204      	adds	r2, #4

080022be <LoopFillZerobss>:
 80022be:	42a2      	cmp	r2, r4
 80022c0:	d3fb      	bcc.n	80022ba <FillZerobss>
 80022c2:	f007 fc71 	bl	8009ba8 <__libc_init_array>
 80022c6:	f7fe fdf9 	bl	8000ebc <main>

080022ca <LoopForever>:
 80022ca:	e7fe      	b.n	80022ca <LoopForever>
 80022cc:	20020000 	.word	0x20020000
 80022d0:	20000000 	.word	0x20000000
 80022d4:	20000214 	.word	0x20000214
 80022d8:	08009c74 	.word	0x08009c74
 80022dc:	20000214 	.word	0x20000214
 80022e0:	20001020 	.word	0x20001020

080022e4 <ADC1_2_IRQHandler>:
 80022e4:	e7fe      	b.n	80022e4 <ADC1_2_IRQHandler>

080022e6 <HAL_Init>:
 80022e6:	b580      	push	{r7, lr}
 80022e8:	b082      	sub	sp, #8
 80022ea:	af00      	add	r7, sp, #0
 80022ec:	2300      	movs	r3, #0
 80022ee:	71fb      	strb	r3, [r7, #7]
 80022f0:	2003      	movs	r0, #3
 80022f2:	f001 fa39 	bl	8003768 <HAL_NVIC_SetPriorityGrouping>
 80022f6:	2000      	movs	r0, #0
 80022f8:	f000 f80e 	bl	8002318 <HAL_InitTick>
 80022fc:	4603      	mov	r3, r0
 80022fe:	2b00      	cmp	r3, #0
 8002300:	d002      	beq.n	8002308 <HAL_Init+0x22>
 8002302:	2301      	movs	r3, #1
 8002304:	71fb      	strb	r3, [r7, #7]
 8002306:	e001      	b.n	800230c <HAL_Init+0x26>
 8002308:	f7ff fc7e 	bl	8001c08 <HAL_MspInit>
 800230c:	79fb      	ldrb	r3, [r7, #7]
 800230e:	4618      	mov	r0, r3
 8002310:	3708      	adds	r7, #8
 8002312:	46bd      	mov	sp, r7
 8002314:	bd80      	pop	{r7, pc}
	...

08002318 <HAL_InitTick>:
 8002318:	b580      	push	{r7, lr}
 800231a:	b084      	sub	sp, #16
 800231c:	af00      	add	r7, sp, #0
 800231e:	6078      	str	r0, [r7, #4]
 8002320:	2300      	movs	r3, #0
 8002322:	73fb      	strb	r3, [r7, #15]
 8002324:	4b16      	ldr	r3, [pc, #88]	@ (8002380 <HAL_InitTick+0x68>)
 8002326:	681b      	ldr	r3, [r3, #0]
 8002328:	2b00      	cmp	r3, #0
 800232a:	d022      	beq.n	8002372 <HAL_InitTick+0x5a>
 800232c:	4b15      	ldr	r3, [pc, #84]	@ (8002384 <HAL_InitTick+0x6c>)
 800232e:	681a      	ldr	r2, [r3, #0]
 8002330:	4b13      	ldr	r3, [pc, #76]	@ (8002380 <HAL_InitTick+0x68>)
 8002332:	681b      	ldr	r3, [r3, #0]
 8002334:	f44f 717a 	mov.w	r1, #1000	@ 0x3e8
 8002338:	fbb1 f3f3 	udiv	r3, r1, r3
 800233c:	fbb2 f3f3 	udiv	r3, r2, r3
 8002340:	4618      	mov	r0, r3
 8002342:	f001 fa44 	bl	80037ce <HAL_SYSTICK_Config>
 8002346:	4603      	mov	r3, r0
 8002348:	2b00      	cmp	r3, #0
 800234a:	d10f      	bne.n	800236c <HAL_InitTick+0x54>
 800234c:	687b      	ldr	r3, [r7, #4]
 800234e:	2b0f      	cmp	r3, #15
 8002350:	d809      	bhi.n	8002366 <HAL_InitTick+0x4e>
 8002352:	2200      	movs	r2, #0
 8002354:	6879      	ldr	r1, [r7, #4]
 8002356:	f04f 30ff 	mov.w	r0, #4294967295
 800235a:	f001 fa10 	bl	800377e <HAL_NVIC_SetPriority>
 800235e:	4a0a      	ldr	r2, [pc, #40]	@ (8002388 <HAL_InitTick+0x70>)
 8002360:	687b      	ldr	r3, [r7, #4]
 8002362:	6013      	str	r3, [r2, #0]
 8002364:	e007      	b.n	8002376 <HAL_InitTick+0x5e>
 8002366:	2301      	movs	r3, #1
 8002368:	73fb      	strb	r3, [r7, #15]
 800236a:	e004      	b.n	8002376 <HAL_InitTick+0x5e>
 800236c:	2301      	movs	r3, #1
 800236e:	73fb      	strb	r3, [r7, #15]
 8002370:	e001      	b.n	8002376 <HAL_InitTick+0x5e>
 8002372:	2301      	movs	r3, #1
 8002374:	73fb      	strb	r3, [r7, #15]
 8002376:	7bfb      	ldrb	r3, [r7, #15]
 8002378:	4618      	mov	r0, r3
 800237a:	3710      	adds	r7, #16
 800237c:	46bd      	mov	sp, r7
 800237e:	bd80      	pop	{r7, pc}
 8002380:	20000210 	.word	0x20000210
 8002384:	20000208 	.word	0x20000208
 8002388:	2000020c 	.word	0x2000020c

0800238c <HAL_IncTick>:
 800238c:	b480      	push	{r7}
 800238e:	af00      	add	r7, sp, #0
 8002390:	4b05      	ldr	r3, [pc, #20]	@ (80023a8 <HAL_IncTick+0x1c>)
 8002392:	681a      	ldr	r2, [r3, #0]
 8002394:	4b05      	ldr	r3, [pc, #20]	@ (80023ac <HAL_IncTick+0x20>)
 8002396:	681b      	ldr	r3, [r3, #0]
 8002398:	4413      	add	r3, r2
 800239a:	4a03      	ldr	r2, [pc, #12]	@ (80023a8 <HAL_IncTick+0x1c>)
 800239c:	6013      	str	r3, [r2, #0]
 800239e:	bf00      	nop
 80023a0:	46bd      	mov	sp, r7
 80023a2:	f85d 7b04 	ldr.w	r7, [sp], #4
 80023a6:	4770      	bx	lr
 80023a8:	2000101c 	.word	0x2000101c
 80023ac:	20000210 	.word	0x20000210

080023b0 <HAL_GetTick>:
 80023b0:	b480      	push	{r7}
 80023b2:	af00      	add	r7, sp, #0
 80023b4:	4b03      	ldr	r3, [pc, #12]	@ (80023c4 <HAL_GetTick+0x14>)
 80023b6:	681b      	ldr	r3, [r3, #0]
 80023b8:	4618      	mov	r0, r3
 80023ba:	46bd      	mov	sp, r7
 80023bc:	f85d 7b04 	ldr.w	r7, [sp], #4
 80023c0:	4770      	bx	lr
 80023c2:	bf00      	nop
 80023c4:	2000101c 	.word	0x2000101c

080023c8 <LL_ADC_SetCommonClock>:
 80023c8:	b480      	push	{r7}
 80023ca:	b083      	sub	sp, #12
 80023cc:	af00      	add	r7, sp, #0
 80023ce:	6078      	str	r0, [r7, #4]
 80023d0:	6039      	str	r1, [r7, #0]
 80023d2:	687b      	ldr	r3, [r7, #4]
 80023d4:	689b      	ldr	r3, [r3, #8]
 80023d6:	f423 127c 	bic.w	r2, r3, #4128768	@ 0x3f0000
 80023da:	683b      	ldr	r3, [r7, #0]
 80023dc:	431a      	orrs	r2, r3
 80023de:	687b      	ldr	r3, [r7, #4]
 80023e0:	609a      	str	r2, [r3, #8]
 80023e2:	bf00      	nop
 80023e4:	370c      	adds	r7, #12
 80023e6:	46bd      	mov	sp, r7
 80023e8:	f85d 7b04 	ldr.w	r7, [sp], #4
 80023ec:	4770      	bx	lr

080023ee <LL_ADC_SetCommonPathInternalCh>:
 80023ee:	b480      	push	{r7}
 80023f0:	b083      	sub	sp, #12
 80023f2:	af00      	add	r7, sp, #0
 80023f4:	6078      	str	r0, [r7, #4]
 80023f6:	6039      	str	r1, [r7, #0]
 80023f8:	687b      	ldr	r3, [r7, #4]
 80023fa:	689b      	ldr	r3, [r3, #8]
 80023fc:	f023 72e0 	bic.w	r2, r3, #29360128	@ 0x1c00000
 8002400:	683b      	ldr	r3, [r7, #0]
 8002402:	431a      	orrs	r2, r3
 8002404:	687b      	ldr	r3, [r7, #4]
 8002406:	609a      	str	r2, [r3, #8]
 8002408:	bf00      	nop
 800240a:	370c      	adds	r7, #12
 800240c:	46bd      	mov	sp, r7
 800240e:	f85d 7b04 	ldr.w	r7, [sp], #4
 8002412:	4770      	bx	lr

08002414 <LL_ADC_GetCommonPathInternalCh>:
 8002414:	b480      	push	{r7}
 8002416:	b083      	sub	sp, #12
 8002418:	af00      	add	r7, sp, #0
 800241a:	6078      	str	r0, [r7, #4]
 800241c:	687b      	ldr	r3, [r7, #4]
 800241e:	689b      	ldr	r3, [r3, #8]
 8002420:	f003 73e0 	and.w	r3, r3, #29360128	@ 0x1c00000
 8002424:	4618      	mov	r0, r3
 8002426:	370c      	adds	r7, #12
 8002428:	46bd      	mov	sp, r7
 800242a:	f85d 7b04 	ldr.w	r7, [sp], #4
 800242e:	4770      	bx	lr

08002430 <LL_ADC_SetOffset>:
 8002430:	b480      	push	{r7}
 8002432:	b087      	sub	sp, #28
 8002434:	af00      	add	r7, sp, #0
 8002436:	60f8      	str	r0, [r7, #12]
 8002438:	60b9      	str	r1, [r7, #8]
 800243a:	607a      	str	r2, [r7, #4]
 800243c:	603b      	str	r3, [r7, #0]
 800243e:	68fb      	ldr	r3, [r7, #12]
 8002440:	3360      	adds	r3, #96	@ 0x60
 8002442:	461a      	mov	r2, r3
 8002444:	68bb      	ldr	r3, [r7, #8]
 8002446:	009b      	lsls	r3, r3, #2
 8002448:	4413      	add	r3, r2
 800244a:	617b      	str	r3, [r7, #20]
 800244c:	697b      	ldr	r3, [r7, #20]
 800244e:	681a      	ldr	r2, [r3, #0]
 8002450:	4b08      	ldr	r3, [pc, #32]	@ (8002474 <LL_ADC_SetOffset+0x44>)
 8002452:	4013      	ands	r3, r2
 8002454:	687a      	ldr	r2, [r7, #4]
 8002456:	f002 41f8 	and.w	r1, r2, #2080374784	@ 0x7c000000
 800245a:	683a      	ldr	r2, [r7, #0]
 800245c:	430a      	orrs	r2, r1
 800245e:	4313      	orrs	r3, r2
 8002460:	f043 4200 	orr.w	r2, r3, #2147483648	@ 0x80000000
 8002464:	697b      	ldr	r3, [r7, #20]
 8002466:	601a      	str	r2, [r3, #0]
 8002468:	bf00      	nop
 800246a:	371c      	adds	r7, #28
 800246c:	46bd      	mov	sp, r7
 800246e:	f85d 7b04 	ldr.w	r7, [sp], #4
 8002472:	4770      	bx	lr
 8002474:	03fff000 	.word	0x03fff000

08002478 <LL_ADC_GetOffsetChannel>:
 8002478:	b480      	push	{r7}
 800247a:	b085      	sub	sp, #20
 800247c:	af00      	add	r7, sp, #0
 800247e:	6078      	str	r0, [r7, #4]
 8002480:	6039      	str	r1, [r7, #0]
 8002482:	687b      	ldr	r3, [r7, #4]
 8002484:	3360      	adds	r3, #96	@ 0x60
 8002486:	461a      	mov	r2, r3
 8002488:	683b      	ldr	r3, [r7, #0]
 800248a:	009b      	lsls	r3, r3, #2
 800248c:	4413      	add	r3, r2
 800248e:	60fb      	str	r3, [r7, #12]
 8002490:	68fb      	ldr	r3, [r7, #12]
 8002492:	681b      	ldr	r3, [r3, #0]
 8002494:	f003 43f8 	and.w	r3, r3, #2080374784	@ 0x7c000000
 8002498:	4618      	mov	r0, r3
 800249a:	3714      	adds	r7, #20
 800249c:	46bd      	mov	sp, r7
 800249e:	f85d 7b04 	ldr.w	r7, [sp], #4
 80024a2:	4770      	bx	lr

080024a4 <LL_ADC_SetOffsetState>:
 80024a4:	b480      	push	{r7}
 80024a6:	b087      	sub	sp, #28
 80024a8:	af00      	add	r7, sp, #0
 80024aa:	60f8      	str	r0, [r7, #12]
 80024ac:	60b9      	str	r1, [r7, #8]
 80024ae:	607a      	str	r2, [r7, #4]
 80024b0:	68fb      	ldr	r3, [r7, #12]
 80024b2:	3360      	adds	r3, #96	@ 0x60
 80024b4:	461a      	mov	r2, r3
 80024b6:	68bb      	ldr	r3, [r7, #8]
 80024b8:	009b      	lsls	r3, r3, #2
 80024ba:	4413      	add	r3, r2
 80024bc:	617b      	str	r3, [r7, #20]
 80024be:	697b      	ldr	r3, [r7, #20]
 80024c0:	681b      	ldr	r3, [r3, #0]
 80024c2:	f023 4200 	bic.w	r2, r3, #2147483648	@ 0x80000000
 80024c6:	687b      	ldr	r3, [r7, #4]
 80024c8:	431a      	orrs	r2, r3
 80024ca:	697b      	ldr	r3, [r7, #20]
 80024cc:	601a      	str	r2, [r3, #0]
 80024ce:	bf00      	nop
 80024d0:	371c      	adds	r7, #28
 80024d2:	46bd      	mov	sp, r7
 80024d4:	f85d 7b04 	ldr.w	r7, [sp], #4
 80024d8:	4770      	bx	lr

080024da <LL_ADC_SetOffsetSign>:
 80024da:	b480      	push	{r7}
 80024dc:	b087      	sub	sp, #28
 80024de:	af00      	add	r7, sp, #0
 80024e0:	60f8      	str	r0, [r7, #12]
 80024e2:	60b9      	str	r1, [r7, #8]
 80024e4:	607a      	str	r2, [r7, #4]
 80024e6:	68fb      	ldr	r3, [r7, #12]
 80024e8:	3360      	adds	r3, #96	@ 0x60
 80024ea:	461a      	mov	r2, r3
 80024ec:	68bb      	ldr	r3, [r7, #8]
 80024ee:	009b      	lsls	r3, r3, #2
 80024f0:	4413      	add	r3, r2
 80024f2:	617b      	str	r3, [r7, #20]
 80024f4:	697b      	ldr	r3, [r7, #20]
 80024f6:	681b      	ldr	r3, [r3, #0]
 80024f8:	f023 7280 	bic.w	r2, r3, #16777216	@ 0x1000000
 80024fc:	687b      	ldr	r3, [r7, #4]
 80024fe:	431a      	orrs	r2, r3
 8002500:	697b      	ldr	r3, [r7, #20]
 8002502:	601a      	str	r2, [r3, #0]
 8002504:	bf00      	nop
 8002506:	371c      	adds	r7, #28
 8002508:	46bd      	mov	sp, r7
 800250a:	f85d 7b04 	ldr.w	r7, [sp], #4
 800250e:	4770      	bx	lr

08002510 <LL_ADC_SetOffsetSaturation>:
 8002510:	b480      	push	{r7}
 8002512:	b087      	sub	sp, #28
 8002514:	af00      	add	r7, sp, #0
 8002516:	60f8      	str	r0, [r7, #12]
 8002518:	60b9      	str	r1, [r7, #8]
 800251a:	607a      	str	r2, [r7, #4]
 800251c:	68fb      	ldr	r3, [r7, #12]
 800251e:	3360      	adds	r3, #96	@ 0x60
 8002520:	461a      	mov	r2, r3
 8002522:	68bb      	ldr	r3, [r7, #8]
 8002524:	009b      	lsls	r3, r3, #2
 8002526:	4413      	add	r3, r2
 8002528:	617b      	str	r3, [r7, #20]
 800252a:	697b      	ldr	r3, [r7, #20]
 800252c:	681b      	ldr	r3, [r3, #0]
 800252e:	f023 7200 	bic.w	r2, r3, #33554432	@ 0x2000000
 8002532:	687b      	ldr	r3, [r7, #4]
 8002534:	431a      	orrs	r2, r3
 8002536:	697b      	ldr	r3, [r7, #20]
 8002538:	601a      	str	r2, [r3, #0]
 800253a:	bf00      	nop
 800253c:	371c      	adds	r7, #28
 800253e:	46bd      	mov	sp, r7
 8002540:	f85d 7b04 	ldr.w	r7, [sp], #4
 8002544:	4770      	bx	lr

08002546 <LL_ADC_SetSamplingTimeCommonConfig>:
 8002546:	b480      	push	{r7}
 8002548:	b083      	sub	sp, #12
 800254a:	af00      	add	r7, sp, #0
 800254c:	6078      	str	r0, [r7, #4]
 800254e:	6039      	str	r1, [r7, #0]
 8002550:	687b      	ldr	r3, [r7, #4]
 8002552:	695b      	ldr	r3, [r3, #20]
 8002554:	f023 4200 	bic.w	r2, r3, #2147483648	@ 0x80000000
 8002558:	683b      	ldr	r3, [r7, #0]
 800255a:	431a      	orrs	r2, r3
 800255c:	687b      	ldr	r3, [r7, #4]
 800255e:	615a      	str	r2, [r3, #20]
 8002560:	bf00      	nop
 8002562:	370c      	adds	r7, #12
 8002564:	46bd      	mov	sp, r7
 8002566:	f85d 7b04 	ldr.w	r7, [sp], #4
 800256a:	4770      	bx	lr

0800256c <LL_ADC_REG_SetSequencerRanks>:
 800256c:	b480      	push	{r7}
 800256e:	b087      	sub	sp, #28
 8002570:	af00      	add	r7, sp, #0
 8002572:	60f8      	str	r0, [r7, #12]
 8002574:	60b9      	str	r1, [r7, #8]
 8002576:	607a      	str	r2, [r7, #4]
 8002578:	68fb      	ldr	r3, [r7, #12]
 800257a:	3330      	adds	r3, #48	@ 0x30
 800257c:	461a      	mov	r2, r3
 800257e:	68bb      	ldr	r3, [r7, #8]
 8002580:	0a1b      	lsrs	r3, r3, #8
 8002582:	009b      	lsls	r3, r3, #2
 8002584:	f003 030c 	and.w	r3, r3, #12
 8002588:	4413      	add	r3, r2
 800258a:	617b      	str	r3, [r7, #20]
 800258c:	697b      	ldr	r3, [r7, #20]
 800258e:	681a      	ldr	r2, [r3, #0]
 8002590:	68bb      	ldr	r3, [r7, #8]
 8002592:	f003 031f 	and.w	r3, r3, #31
 8002596:	211f      	movs	r1, #31
 8002598:	fa01 f303 	lsl.w	r3, r1, r3
 800259c:	43db      	mvns	r3, r3
 800259e:	401a      	ands	r2, r3
 80025a0:	687b      	ldr	r3, [r7, #4]
 80025a2:	0e9b      	lsrs	r3, r3, #26
 80025a4:	f003 011f 	and.w	r1, r3, #31
 80025a8:	68bb      	ldr	r3, [r7, #8]
 80025aa:	f003 031f 	and.w	r3, r3, #31
 80025ae:	fa01 f303 	lsl.w	r3, r1, r3
 80025b2:	431a      	orrs	r2, r3
 80025b4:	697b      	ldr	r3, [r7, #20]
 80025b6:	601a      	str	r2, [r3, #0]
 80025b8:	bf00      	nop
 80025ba:	371c      	adds	r7, #28
 80025bc:	46bd      	mov	sp, r7
 80025be:	f85d 7b04 	ldr.w	r7, [sp], #4
 80025c2:	4770      	bx	lr

080025c4 <LL_ADC_SetChannelSamplingTime>:
 80025c4:	b480      	push	{r7}
 80025c6:	b087      	sub	sp, #28
 80025c8:	af00      	add	r7, sp, #0
 80025ca:	60f8      	str	r0, [r7, #12]
 80025cc:	60b9      	str	r1, [r7, #8]
 80025ce:	607a      	str	r2, [r7, #4]
 80025d0:	68fb      	ldr	r3, [r7, #12]
 80025d2:	3314      	adds	r3, #20
 80025d4:	461a      	mov	r2, r3
 80025d6:	68bb      	ldr	r3, [r7, #8]
 80025d8:	0e5b      	lsrs	r3, r3, #25
 80025da:	009b      	lsls	r3, r3, #2
 80025dc:	f003 0304 	and.w	r3, r3, #4
 80025e0:	4413      	add	r3, r2
 80025e2:	617b      	str	r3, [r7, #20]
 80025e4:	697b      	ldr	r3, [r7, #20]
 80025e6:	681a      	ldr	r2, [r3, #0]
 80025e8:	68bb      	ldr	r3, [r7, #8]
 80025ea:	0d1b      	lsrs	r3, r3, #20
 80025ec:	f003 031f 	and.w	r3, r3, #31
 80025f0:	2107      	movs	r1, #7
 80025f2:	fa01 f303 	lsl.w	r3, r1, r3
 80025f6:	43db      	mvns	r3, r3
 80025f8:	401a      	ands	r2, r3
 80025fa:	68bb      	ldr	r3, [r7, #8]
 80025fc:	0d1b      	lsrs	r3, r3, #20
 80025fe:	f003 031f 	and.w	r3, r3, #31
 8002602:	6879      	ldr	r1, [r7, #4]
 8002604:	fa01 f303 	lsl.w	r3, r1, r3
 8002608:	431a      	orrs	r2, r3
 800260a:	697b      	ldr	r3, [r7, #20]
 800260c:	601a      	str	r2, [r3, #0]
 800260e:	bf00      	nop
 8002610:	371c      	adds	r7, #28
 8002612:	46bd      	mov	sp, r7
 8002614:	f85d 7b04 	ldr.w	r7, [sp], #4
 8002618:	4770      	bx	lr
	...

0800261c <LL_ADC_SetChannelSingleDiff>:
 800261c:	b480      	push	{r7}
 800261e:	b085      	sub	sp, #20
 8002620:	af00      	add	r7, sp, #0
 8002622:	60f8      	str	r0, [r7, #12]
 8002624:	60b9      	str	r1, [r7, #8]
 8002626:	607a      	str	r2, [r7, #4]
 8002628:	68fb      	ldr	r3, [r7, #12]
 800262a:	f8d3 20b0 	ldr.w	r2, [r3, #176]	@ 0xb0
 800262e:	68bb      	ldr	r3, [r7, #8]
 8002630:	f3c3 0312 	ubfx	r3, r3, #0, #19
 8002634:	43db      	mvns	r3, r3
 8002636:	401a      	ands	r2, r3
 8002638:	687b      	ldr	r3, [r7, #4]
 800263a:	f003 0318 	and.w	r3, r3, #24
 800263e:	4908      	ldr	r1, [pc, #32]	@ (8002660 <LL_ADC_SetChannelSingleDiff+0x44>)
 8002640:	40d9      	lsrs	r1, r3
 8002642:	68bb      	ldr	r3, [r7, #8]
 8002644:	400b      	ands	r3, r1
 8002646:	f3c3 0312 	ubfx	r3, r3, #0, #19
 800264a:	431a      	orrs	r2, r3
 800264c:	68fb      	ldr	r3, [r7, #12]
 800264e:	f8c3 20b0 	str.w	r2, [r3, #176]	@ 0xb0
 8002652:	bf00      	nop
 8002654:	3714      	adds	r7, #20
 8002656:	46bd      	mov	sp, r7
 8002658:	f85d 7b04 	ldr.w	r7, [sp], #4
 800265c:	4770      	bx	lr
 800265e:	bf00      	nop
 8002660:	0007ffff 	.word	0x0007ffff

08002664 <LL_ADC_DisableDeepPowerDown>:
 8002664:	b480      	push	{r7}
 8002666:	b083      	sub	sp, #12
 8002668:	af00      	add	r7, sp, #0
 800266a:	6078      	str	r0, [r7, #4]
 800266c:	687b      	ldr	r3, [r7, #4]
 800266e:	689b      	ldr	r3, [r3, #8]
 8002670:	f023 4320 	bic.w	r3, r3, #2684354560	@ 0xa0000000
 8002674:	f023 033f 	bic.w	r3, r3, #63	@ 0x3f
 8002678:	687a      	ldr	r2, [r7, #4]
 800267a:	6093      	str	r3, [r2, #8]
 800267c:	bf00      	nop
 800267e:	370c      	adds	r7, #12
 8002680:	46bd      	mov	sp, r7
 8002682:	f85d 7b04 	ldr.w	r7, [sp], #4
 8002686:	4770      	bx	lr

08002688 <LL_ADC_IsDeepPowerDownEnabled>:
 8002688:	b480      	push	{r7}
 800268a:	b083      	sub	sp, #12
 800268c:	af00      	add	r7, sp, #0
 800268e:	6078      	str	r0, [r7, #4]
 8002690:	687b      	ldr	r3, [r7, #4]
 8002692:	689b      	ldr	r3, [r3, #8]
 8002694:	f003 5300 	and.w	r3, r3, #536870912	@ 0x20000000
 8002698:	f1b3 5f00 	cmp.w	r3, #536870912	@ 0x20000000
 800269c:	d101      	bne.n	80026a2 <LL_ADC_IsDeepPowerDownEnabled+0x1a>
 800269e:	2301      	movs	r3, #1
 80026a0:	e000      	b.n	80026a4 <LL_ADC_IsDeepPowerDownEnabled+0x1c>
 80026a2:	2300      	movs	r3, #0
 80026a4:	4618      	mov	r0, r3
 80026a6:	370c      	adds	r7, #12
 80026a8:	46bd      	mov	sp, r7
 80026aa:	f85d 7b04 	ldr.w	r7, [sp], #4
 80026ae:	4770      	bx	lr

080026b0 <LL_ADC_EnableInternalRegulator>:
 80026b0:	b480      	push	{r7}
 80026b2:	b083      	sub	sp, #12
 80026b4:	af00      	add	r7, sp, #0
 80026b6:	6078      	str	r0, [r7, #4]
 80026b8:	687b      	ldr	r3, [r7, #4]
 80026ba:	689b      	ldr	r3, [r3, #8]
 80026bc:	f023 4310 	bic.w	r3, r3, #2415919104	@ 0x90000000
 80026c0:	f023 033f 	bic.w	r3, r3, #63	@ 0x3f
 80026c4:	f043 5280 	orr.w	r2, r3, #268435456	@ 0x10000000
 80026c8:	687b      	ldr	r3, [r7, #4]
 80026ca:	609a      	str	r2, [r3, #8]
 80026cc:	bf00      	nop
 80026ce:	370c      	adds	r7, #12
 80026d0:	46bd      	mov	sp, r7
 80026d2:	f85d 7b04 	ldr.w	r7, [sp], #4
 80026d6:	4770      	bx	lr

080026d8 <LL_ADC_IsInternalRegulatorEnabled>:
 80026d8:	b480      	push	{r7}
 80026da:	b083      	sub	sp, #12
 80026dc:	af00      	add	r7, sp, #0
 80026de:	6078      	str	r0, [r7, #4]
 80026e0:	687b      	ldr	r3, [r7, #4]
 80026e2:	689b      	ldr	r3, [r3, #8]
 80026e4:	f003 5380 	and.w	r3, r3, #268435456	@ 0x10000000
 80026e8:	f1b3 5f80 	cmp.w	r3, #268435456	@ 0x10000000
 80026ec:	d101      	bne.n	80026f2 <LL_ADC_IsInternalRegulatorEnabled+0x1a>
 80026ee:	2301      	movs	r3, #1
 80026f0:	e000      	b.n	80026f4 <LL_ADC_IsInternalRegulatorEnabled+0x1c>
 80026f2:	2300      	movs	r3, #0
 80026f4:	4618      	mov	r0, r3
 80026f6:	370c      	adds	r7, #12
 80026f8:	46bd      	mov	sp, r7
 80026fa:	f85d 7b04 	ldr.w	r7, [sp], #4
 80026fe:	4770      	bx	lr

08002700 <LL_ADC_IsEnabled>:
 8002700:	b480      	push	{r7}
 8002702:	b083      	sub	sp, #12
 8002704:	af00      	add	r7, sp, #0
 8002706:	6078      	str	r0, [r7, #4]
 8002708:	687b      	ldr	r3, [r7, #4]
 800270a:	689b      	ldr	r3, [r3, #8]
 800270c:	f003 0301 	and.w	r3, r3, #1
 8002710:	2b01      	cmp	r3, #1
 8002712:	d101      	bne.n	8002718 <LL_ADC_IsEnabled+0x18>
 8002714:	2301      	movs	r3, #1
 8002716:	e000      	b.n	800271a <LL_ADC_IsEnabled+0x1a>
 8002718:	2300      	movs	r3, #0
 800271a:	4618      	mov	r0, r3
 800271c:	370c      	adds	r7, #12
 800271e:	46bd      	mov	sp, r7
 8002720:	f85d 7b04 	ldr.w	r7, [sp], #4
 8002724:	4770      	bx	lr

08002726 <LL_ADC_REG_IsConversionOngoing>:
 8002726:	b480      	push	{r7}
 8002728:	b083      	sub	sp, #12
 800272a:	af00      	add	r7, sp, #0
 800272c:	6078      	str	r0, [r7, #4]
 800272e:	687b      	ldr	r3, [r7, #4]
 8002730:	689b      	ldr	r3, [r3, #8]
 8002732:	f003 0304 	and.w	r3, r3, #4
 8002736:	2b04      	cmp	r3, #4
 8002738:	d101      	bne.n	800273e <LL_ADC_REG_IsConversionOngoing+0x18>
 800273a:	2301      	movs	r3, #1
 800273c:	e000      	b.n	8002740 <LL_ADC_REG_IsConversionOngoing+0x1a>
 800273e:	2300      	movs	r3, #0
 8002740:	4618      	mov	r0, r3
 8002742:	370c      	adds	r7, #12
 8002744:	46bd      	mov	sp, r7
 8002746:	f85d 7b04 	ldr.w	r7, [sp], #4
 800274a:	4770      	bx	lr

0800274c <LL_ADC_INJ_IsConversionOngoing>:
 800274c:	b480      	push	{r7}
 800274e:	b083      	sub	sp, #12
 8002750:	af00      	add	r7, sp, #0
 8002752:	6078      	str	r0, [r7, #4]
 8002754:	687b      	ldr	r3, [r7, #4]
 8002756:	689b      	ldr	r3, [r3, #8]
 8002758:	f003 0308 	and.w	r3, r3, #8
 800275c:	2b08      	cmp	r3, #8
 800275e:	d101      	bne.n	8002764 <LL_ADC_INJ_IsConversionOngoing+0x18>
 8002760:	2301      	movs	r3, #1
 8002762:	e000      	b.n	8002766 <LL_ADC_INJ_IsConversionOngoing+0x1a>
 8002764:	2300      	movs	r3, #0
 8002766:	4618      	mov	r0, r3
 8002768:	370c      	adds	r7, #12
 800276a:	46bd      	mov	sp, r7
 800276c:	f85d 7b04 	ldr.w	r7, [sp], #4
 8002770:	4770      	bx	lr
	...

08002774 <HAL_ADC_Init>:
 8002774:	b590      	push	{r4, r7, lr}
 8002776:	b089      	sub	sp, #36	@ 0x24
 8002778:	af00      	add	r7, sp, #0
 800277a:	6078      	str	r0, [r7, #4]
 800277c:	2300      	movs	r3, #0
 800277e:	77fb      	strb	r3, [r7, #31]
 8002780:	2300      	movs	r3, #0
 8002782:	60fb      	str	r3, [r7, #12]
 8002784:	687b      	ldr	r3, [r7, #4]
 8002786:	2b00      	cmp	r3, #0
 8002788:	d101      	bne.n	800278e <HAL_ADC_Init+0x1a>
 800278a:	2301      	movs	r3, #1
 800278c:	e1a9      	b.n	8002ae2 <HAL_ADC_Init+0x36e>
 800278e:	687b      	ldr	r3, [r7, #4]
 8002790:	695b      	ldr	r3, [r3, #20]
 8002792:	2b00      	cmp	r3, #0
 8002794:	687b      	ldr	r3, [r7, #4]
 8002796:	6ddb      	ldr	r3, [r3, #92]	@ 0x5c
 8002798:	2b00      	cmp	r3, #0
 800279a:	d109      	bne.n	80027b0 <HAL_ADC_Init+0x3c>
 800279c:	6878      	ldr	r0, [r7, #4]
 800279e:	f7ff fa57 	bl	8001c50 <HAL_ADC_MspInit>
 80027a2:	687b      	ldr	r3, [r7, #4]
 80027a4:	2200      	movs	r2, #0
 80027a6:	661a      	str	r2, [r3, #96]	@ 0x60
 80027a8:	687b      	ldr	r3, [r7, #4]
 80027aa:	2200      	movs	r2, #0
 80027ac:	f883 2058 	strb.w	r2, [r3, #88]	@ 0x58
 80027b0:	687b      	ldr	r3, [r7, #4]
 80027b2:	681b      	ldr	r3, [r3, #0]
 80027b4:	4618      	mov	r0, r3
 80027b6:	f7ff ff67 	bl	8002688 <LL_ADC_IsDeepPowerDownEnabled>
 80027ba:	4603      	mov	r3, r0
 80027bc:	2b00      	cmp	r3, #0
 80027be:	d004      	beq.n	80027ca <HAL_ADC_Init+0x56>
 80027c0:	687b      	ldr	r3, [r7, #4]
 80027c2:	681b      	ldr	r3, [r3, #0]
 80027c4:	4618      	mov	r0, r3
 80027c6:	f7ff ff4d 	bl	8002664 <LL_ADC_DisableDeepPowerDown>
 80027ca:	687b      	ldr	r3, [r7, #4]
 80027cc:	681b      	ldr	r3, [r3, #0]
 80027ce:	4618      	mov	r0, r3
 80027d0:	f7ff ff82 	bl	80026d8 <LL_ADC_IsInternalRegulatorEnabled>
 80027d4:	4603      	mov	r3, r0
 80027d6:	2b00      	cmp	r3, #0
 80027d8:	d115      	bne.n	8002806 <HAL_ADC_Init+0x92>
 80027da:	687b      	ldr	r3, [r7, #4]
 80027dc:	681b      	ldr	r3, [r3, #0]
 80027de:	4618      	mov	r0, r3
 80027e0:	f7ff ff66 	bl	80026b0 <LL_ADC_EnableInternalRegulator>
 80027e4:	4b9c      	ldr	r3, [pc, #624]	@ (8002a58 <HAL_ADC_Init+0x2e4>)
 80027e6:	681b      	ldr	r3, [r3, #0]
 80027e8:	099b      	lsrs	r3, r3, #6
 80027ea:	4a9c      	ldr	r2, [pc, #624]	@ (8002a5c <HAL_ADC_Init+0x2e8>)
 80027ec:	fba2 2303 	umull	r2, r3, r2, r3
 80027f0:	099b      	lsrs	r3, r3, #6
 80027f2:	3301      	adds	r3, #1
 80027f4:	005b      	lsls	r3, r3, #1
 80027f6:	60fb      	str	r3, [r7, #12]
 80027f8:	e002      	b.n	8002800 <HAL_ADC_Init+0x8c>
 80027fa:	68fb      	ldr	r3, [r7, #12]
 80027fc:	3b01      	subs	r3, #1
 80027fe:	60fb      	str	r3, [r7, #12]
 8002800:	68fb      	ldr	r3, [r7, #12]
 8002802:	2b00      	cmp	r3, #0
 8002804:	d1f9      	bne.n	80027fa <HAL_ADC_Init+0x86>
 8002806:	687b      	ldr	r3, [r7, #4]
 8002808:	681b      	ldr	r3, [r3, #0]
 800280a:	4618      	mov	r0, r3
 800280c:	f7ff ff64 	bl	80026d8 <LL_ADC_IsInternalRegulatorEnabled>
 8002810:	4603      	mov	r3, r0
 8002812:	2b00      	cmp	r3, #0
 8002814:	d10d      	bne.n	8002832 <HAL_ADC_Init+0xbe>
 8002816:	687b      	ldr	r3, [r7, #4]
 8002818:	6ddb      	ldr	r3, [r3, #92]	@ 0x5c
 800281a:	f043 0210 	orr.w	r2, r3, #16
 800281e:	687b      	ldr	r3, [r7, #4]
 8002820:	65da      	str	r2, [r3, #92]	@ 0x5c
 8002822:	687b      	ldr	r3, [r7, #4]
 8002824:	6e1b      	ldr	r3, [r3, #96]	@ 0x60
 8002826:	f043 0201 	orr.w	r2, r3, #1
 800282a:	687b      	ldr	r3, [r7, #4]
 800282c:	661a      	str	r2, [r3, #96]	@ 0x60
 800282e:	2301      	movs	r3, #1
 8002830:	77fb      	strb	r3, [r7, #31]
 8002832:	687b      	ldr	r3, [r7, #4]
 8002834:	681b      	ldr	r3, [r3, #0]
 8002836:	4618      	mov	r0, r3
 8002838:	f7ff ff75 	bl	8002726 <LL_ADC_REG_IsConversionOngoing>
 800283c:	6178      	str	r0, [r7, #20]
 800283e:	687b      	ldr	r3, [r7, #4]
 8002840:	6ddb      	ldr	r3, [r3, #92]	@ 0x5c
 8002842:	f003 0310 	and.w	r3, r3, #16
 8002846:	2b00      	cmp	r3, #0
 8002848:	f040 8142 	bne.w	8002ad0 <HAL_ADC_Init+0x35c>
 800284c:	697b      	ldr	r3, [r7, #20]
 800284e:	2b00      	cmp	r3, #0
 8002850:	f040 813e 	bne.w	8002ad0 <HAL_ADC_Init+0x35c>
 8002854:	687b      	ldr	r3, [r7, #4]
 8002856:	6ddb      	ldr	r3, [r3, #92]	@ 0x5c
 8002858:	f423 7381 	bic.w	r3, r3, #258	@ 0x102
 800285c:	f043 0202 	orr.w	r2, r3, #2
 8002860:	687b      	ldr	r3, [r7, #4]
 8002862:	65da      	str	r2, [r3, #92]	@ 0x5c
 8002864:	687b      	ldr	r3, [r7, #4]
 8002866:	681b      	ldr	r3, [r3, #0]
 8002868:	4618      	mov	r0, r3
 800286a:	f7ff ff49 	bl	8002700 <LL_ADC_IsEnabled>
 800286e:	4603      	mov	r3, r0
 8002870:	2b00      	cmp	r3, #0
 8002872:	d141      	bne.n	80028f8 <HAL_ADC_Init+0x184>
 8002874:	687b      	ldr	r3, [r7, #4]
 8002876:	681b      	ldr	r3, [r3, #0]
 8002878:	f1b3 4fa0 	cmp.w	r3, #1342177280	@ 0x50000000
 800287c:	d004      	beq.n	8002888 <HAL_ADC_Init+0x114>
 800287e:	687b      	ldr	r3, [r7, #4]
 8002880:	681b      	ldr	r3, [r3, #0]
 8002882:	4a77      	ldr	r2, [pc, #476]	@ (8002a60 <HAL_ADC_Init+0x2ec>)
 8002884:	4293      	cmp	r3, r2
 8002886:	d10f      	bne.n	80028a8 <HAL_ADC_Init+0x134>
 8002888:	f04f 40a0 	mov.w	r0, #1342177280	@ 0x50000000
 800288c:	f7ff ff38 	bl	8002700 <LL_ADC_IsEnabled>
 8002890:	4604      	mov	r4, r0
 8002892:	4873      	ldr	r0, [pc, #460]	@ (8002a60 <HAL_ADC_Init+0x2ec>)
 8002894:	f7ff ff34 	bl	8002700 <LL_ADC_IsEnabled>
 8002898:	4603      	mov	r3, r0
 800289a:	4323      	orrs	r3, r4
 800289c:	2b00      	cmp	r3, #0
 800289e:	bf0c      	ite	eq
 80028a0:	2301      	moveq	r3, #1
 80028a2:	2300      	movne	r3, #0
 80028a4:	b2db      	uxtb	r3, r3
 80028a6:	e012      	b.n	80028ce <HAL_ADC_Init+0x15a>
 80028a8:	486e      	ldr	r0, [pc, #440]	@ (8002a64 <HAL_ADC_Init+0x2f0>)
 80028aa:	f7ff ff29 	bl	8002700 <LL_ADC_IsEnabled>
 80028ae:	4604      	mov	r4, r0
 80028b0:	486d      	ldr	r0, [pc, #436]	@ (8002a68 <HAL_ADC_Init+0x2f4>)
 80028b2:	f7ff ff25 	bl	8002700 <LL_ADC_IsEnabled>
 80028b6:	4603      	mov	r3, r0
 80028b8:	431c      	orrs	r4, r3
 80028ba:	486c      	ldr	r0, [pc, #432]	@ (8002a6c <HAL_ADC_Init+0x2f8>)
 80028bc:	f7ff ff20 	bl	8002700 <LL_ADC_IsEnabled>
 80028c0:	4603      	mov	r3, r0
 80028c2:	4323      	orrs	r3, r4
 80028c4:	2b00      	cmp	r3, #0
 80028c6:	bf0c      	ite	eq
 80028c8:	2301      	moveq	r3, #1
 80028ca:	2300      	movne	r3, #0
 80028cc:	b2db      	uxtb	r3, r3
 80028ce:	2b00      	cmp	r3, #0
 80028d0:	d012      	beq.n	80028f8 <HAL_ADC_Init+0x184>
 80028d2:	687b      	ldr	r3, [r7, #4]
 80028d4:	681b      	ldr	r3, [r3, #0]
 80028d6:	f1b3 4fa0 	cmp.w	r3, #1342177280	@ 0x50000000
 80028da:	d004      	beq.n	80028e6 <HAL_ADC_Init+0x172>
 80028dc:	687b      	ldr	r3, [r7, #4]
 80028de:	681b      	ldr	r3, [r3, #0]
 80028e0:	4a5f      	ldr	r2, [pc, #380]	@ (8002a60 <HAL_ADC_Init+0x2ec>)
 80028e2:	4293      	cmp	r3, r2
 80028e4:	d101      	bne.n	80028ea <HAL_ADC_Init+0x176>
 80028e6:	4a62      	ldr	r2, [pc, #392]	@ (8002a70 <HAL_ADC_Init+0x2fc>)
 80028e8:	e000      	b.n	80028ec <HAL_ADC_Init+0x178>
 80028ea:	4a62      	ldr	r2, [pc, #392]	@ (8002a74 <HAL_ADC_Init+0x300>)
 80028ec:	687b      	ldr	r3, [r7, #4]
 80028ee:	685b      	ldr	r3, [r3, #4]
 80028f0:	4619      	mov	r1, r3
 80028f2:	4610      	mov	r0, r2
 80028f4:	f7ff fd68 	bl	80023c8 <LL_ADC_SetCommonClock>
 80028f8:	687b      	ldr	r3, [r7, #4]
 80028fa:	7f5b      	ldrb	r3, [r3, #29]
 80028fc:	035a      	lsls	r2, r3, #13
 80028fe:	687b      	ldr	r3, [r7, #4]
 8002900:	6bdb      	ldr	r3, [r3, #60]	@ 0x3c
 8002902:	431a      	orrs	r2, r3
 8002904:	687b      	ldr	r3, [r7, #4]
 8002906:	68db      	ldr	r3, [r3, #12]
 8002908:	431a      	orrs	r2, r3
 800290a:	687b      	ldr	r3, [r7, #4]
 800290c:	689b      	ldr	r3, [r3, #8]
 800290e:	431a      	orrs	r2, r3
 8002910:	687b      	ldr	r3, [r7, #4]
 8002912:	f893 3024 	ldrb.w	r3, [r3, #36]	@ 0x24
 8002916:	041b      	lsls	r3, r3, #16
 8002918:	4313      	orrs	r3, r2
 800291a:	61bb      	str	r3, [r7, #24]
 800291c:	687b      	ldr	r3, [r7, #4]
 800291e:	f893 3024 	ldrb.w	r3, [r3, #36]	@ 0x24
 8002922:	2b01      	cmp	r3, #1
 8002924:	d106      	bne.n	8002934 <HAL_ADC_Init+0x1c0>
 8002926:	687b      	ldr	r3, [r7, #4]
 8002928:	6a9b      	ldr	r3, [r3, #40]	@ 0x28
 800292a:	3b01      	subs	r3, #1
 800292c:	045b      	lsls	r3, r3, #17
 800292e:	69ba      	ldr	r2, [r7, #24]
 8002930:	4313      	orrs	r3, r2
 8002932:	61bb      	str	r3, [r7, #24]
 8002934:	687b      	ldr	r3, [r7, #4]
 8002936:	6adb      	ldr	r3, [r3, #44]	@ 0x2c
 8002938:	2b00      	cmp	r3, #0
 800293a:	d009      	beq.n	8002950 <HAL_ADC_Init+0x1dc>
 800293c:	687b      	ldr	r3, [r7, #4]
 800293e:	6adb      	ldr	r3, [r3, #44]	@ 0x2c
 8002940:	f403 7278 	and.w	r2, r3, #992	@ 0x3e0
 8002944:	687b      	ldr	r3, [r7, #4]
 8002946:	6b1b      	ldr	r3, [r3, #48]	@ 0x30
 8002948:	4313      	orrs	r3, r2
 800294a:	69ba      	ldr	r2, [r7, #24]
 800294c:	4313      	orrs	r3, r2
 800294e:	61bb      	str	r3, [r7, #24]
 8002950:	687b      	ldr	r3, [r7, #4]
 8002952:	681b      	ldr	r3, [r3, #0]
 8002954:	68da      	ldr	r2, [r3, #12]
 8002956:	4b48      	ldr	r3, [pc, #288]	@ (8002a78 <HAL_ADC_Init+0x304>)
 8002958:	4013      	ands	r3, r2
 800295a:	687a      	ldr	r2, [r7, #4]
 800295c:	6812      	ldr	r2, [r2, #0]
 800295e:	69b9      	ldr	r1, [r7, #24]
 8002960:	430b      	orrs	r3, r1
 8002962:	60d3      	str	r3, [r2, #12]
 8002964:	687b      	ldr	r3, [r7, #4]
 8002966:	681b      	ldr	r3, [r3, #0]
 8002968:	691b      	ldr	r3, [r3, #16]
 800296a:	f023 6140 	bic.w	r1, r3, #201326592	@ 0xc000000
 800296e:	687b      	ldr	r3, [r7, #4]
 8002970:	6b5a      	ldr	r2, [r3, #52]	@ 0x34
 8002972:	687b      	ldr	r3, [r7, #4]
 8002974:	681b      	ldr	r3, [r3, #0]
 8002976:	430a      	orrs	r2, r1
 8002978:	611a      	str	r2, [r3, #16]
 800297a:	687b      	ldr	r3, [r7, #4]
 800297c:	681b      	ldr	r3, [r3, #0]
 800297e:	4618      	mov	r0, r3
 8002980:	f7ff fee4 	bl	800274c <LL_ADC_INJ_IsConversionOngoing>
 8002984:	6138      	str	r0, [r7, #16]
 8002986:	697b      	ldr	r3, [r7, #20]
 8002988:	2b00      	cmp	r3, #0
 800298a:	d17f      	bne.n	8002a8c <HAL_ADC_Init+0x318>
 800298c:	693b      	ldr	r3, [r7, #16]
 800298e:	2b00      	cmp	r3, #0
 8002990:	d17c      	bne.n	8002a8c <HAL_ADC_Init+0x318>
 8002992:	687b      	ldr	r3, [r7, #4]
 8002994:	7f1b      	ldrb	r3, [r3, #28]
 8002996:	039a      	lsls	r2, r3, #14
 8002998:	687b      	ldr	r3, [r7, #4]
 800299a:	f893 3038 	ldrb.w	r3, [r3, #56]	@ 0x38
 800299e:	005b      	lsls	r3, r3, #1
 80029a0:	4313      	orrs	r3, r2
 80029a2:	61bb      	str	r3, [r7, #24]
 80029a4:	687b      	ldr	r3, [r7, #4]
 80029a6:	681b      	ldr	r3, [r3, #0]
 80029a8:	68db      	ldr	r3, [r3, #12]
 80029aa:	f423 4380 	bic.w	r3, r3, #16384	@ 0x4000
 80029ae:	f023 0302 	bic.w	r3, r3, #2
 80029b2:	687a      	ldr	r2, [r7, #4]
 80029b4:	6812      	ldr	r2, [r2, #0]
 80029b6:	69b9      	ldr	r1, [r7, #24]
 80029b8:	430b      	orrs	r3, r1
 80029ba:	60d3      	str	r3, [r2, #12]
 80029bc:	687b      	ldr	r3, [r7, #4]
 80029be:	691b      	ldr	r3, [r3, #16]
 80029c0:	2b00      	cmp	r3, #0
 80029c2:	d017      	beq.n	80029f4 <HAL_ADC_Init+0x280>
 80029c4:	687b      	ldr	r3, [r7, #4]
 80029c6:	681b      	ldr	r3, [r3, #0]
 80029c8:	691a      	ldr	r2, [r3, #16]
 80029ca:	687b      	ldr	r3, [r7, #4]
 80029cc:	681b      	ldr	r3, [r3, #0]
 80029ce:	f442 3280 	orr.w	r2, r2, #65536	@ 0x10000
 80029d2:	611a      	str	r2, [r3, #16]
 80029d4:	687b      	ldr	r3, [r7, #4]
 80029d6:	681b      	ldr	r3, [r3, #0]
 80029d8:	f8d3 30c0 	ldr.w	r3, [r3, #192]	@ 0xc0
 80029dc:	f423 537f 	bic.w	r3, r3, #16320	@ 0x3fc0
 80029e0:	f023 033f 	bic.w	r3, r3, #63	@ 0x3f
 80029e4:	687a      	ldr	r2, [r7, #4]
 80029e6:	6911      	ldr	r1, [r2, #16]
 80029e8:	687a      	ldr	r2, [r7, #4]
 80029ea:	6812      	ldr	r2, [r2, #0]
 80029ec:	430b      	orrs	r3, r1
 80029ee:	f8c2 30c0 	str.w	r3, [r2, #192]	@ 0xc0
 80029f2:	e013      	b.n	8002a1c <HAL_ADC_Init+0x2a8>
 80029f4:	687b      	ldr	r3, [r7, #4]
 80029f6:	681b      	ldr	r3, [r3, #0]
 80029f8:	691a      	ldr	r2, [r3, #16]
 80029fa:	687b      	ldr	r3, [r7, #4]
 80029fc:	681b      	ldr	r3, [r3, #0]
 80029fe:	f422 3280 	bic.w	r2, r2, #65536	@ 0x10000
 8002a02:	611a      	str	r2, [r3, #16]
 8002a04:	687b      	ldr	r3, [r7, #4]
 8002a06:	681b      	ldr	r3, [r3, #0]
 8002a08:	f8d3 30c0 	ldr.w	r3, [r3, #192]	@ 0xc0
 8002a0c:	687a      	ldr	r2, [r7, #4]
 8002a0e:	6812      	ldr	r2, [r2, #0]
 8002a10:	f423 537f 	bic.w	r3, r3, #16320	@ 0x3fc0
 8002a14:	f023 033f 	bic.w	r3, r3, #63	@ 0x3f
 8002a18:	f8c2 30c0 	str.w	r3, [r2, #192]	@ 0xc0
 8002a1c:	687b      	ldr	r3, [r7, #4]
 8002a1e:	f893 3040 	ldrb.w	r3, [r3, #64]	@ 0x40
 8002a22:	2b01      	cmp	r3, #1
 8002a24:	d12a      	bne.n	8002a7c <HAL_ADC_Init+0x308>
 8002a26:	687b      	ldr	r3, [r7, #4]
 8002a28:	681b      	ldr	r3, [r3, #0]
 8002a2a:	691b      	ldr	r3, [r3, #16]
 8002a2c:	f423 63ff 	bic.w	r3, r3, #2040	@ 0x7f8
 8002a30:	f023 0304 	bic.w	r3, r3, #4
 8002a34:	687a      	ldr	r2, [r7, #4]
 8002a36:	6c51      	ldr	r1, [r2, #68]	@ 0x44
 8002a38:	687a      	ldr	r2, [r7, #4]
 8002a3a:	6c92      	ldr	r2, [r2, #72]	@ 0x48
 8002a3c:	4311      	orrs	r1, r2
 8002a3e:	687a      	ldr	r2, [r7, #4]
 8002a40:	6cd2      	ldr	r2, [r2, #76]	@ 0x4c
 8002a42:	4311      	orrs	r1, r2
 8002a44:	687a      	ldr	r2, [r7, #4]
 8002a46:	6d12      	ldr	r2, [r2, #80]	@ 0x50
 8002a48:	430a      	orrs	r2, r1
 8002a4a:	431a      	orrs	r2, r3
 8002a4c:	687b      	ldr	r3, [r7, #4]
 8002a4e:	681b      	ldr	r3, [r3, #0]
 8002a50:	f042 0201 	orr.w	r2, r2, #1
 8002a54:	611a      	str	r2, [r3, #16]
 8002a56:	e019      	b.n	8002a8c <HAL_ADC_Init+0x318>
 8002a58:	20000208 	.word	0x20000208
 8002a5c:	053e2d63 	.word	0x053e2d63
 8002a60:	50000100 	.word	0x50000100
 8002a64:	50000400 	.word	0x50000400
 8002a68:	50000500 	.word	0x50000500
 8002a6c:	50000600 	.word	0x50000600
 8002a70:	50000300 	.word	0x50000300
 8002a74:	50000700 	.word	0x50000700
 8002a78:	fff04007 	.word	0xfff04007
 8002a7c:	687b      	ldr	r3, [r7, #4]
 8002a7e:	681b      	ldr	r3, [r3, #0]
 8002a80:	691a      	ldr	r2, [r3, #16]
 8002a82:	687b      	ldr	r3, [r7, #4]
 8002a84:	681b      	ldr	r3, [r3, #0]
 8002a86:	f022 0201 	bic.w	r2, r2, #1
 8002a8a:	611a      	str	r2, [r3, #16]
 8002a8c:	687b      	ldr	r3, [r7, #4]
 8002a8e:	695b      	ldr	r3, [r3, #20]
 8002a90:	2b01      	cmp	r3, #1
 8002a92:	d10c      	bne.n	8002aae <HAL_ADC_Init+0x33a>
 8002a94:	687b      	ldr	r3, [r7, #4]
 8002a96:	681b      	ldr	r3, [r3, #0]
 8002a98:	6b1b      	ldr	r3, [r3, #48]	@ 0x30
 8002a9a:	f023 010f 	bic.w	r1, r3, #15
 8002a9e:	687b      	ldr	r3, [r7, #4]
 8002aa0:	6a1b      	ldr	r3, [r3, #32]
 8002aa2:	1e5a      	subs	r2, r3, #1
 8002aa4:	687b      	ldr	r3, [r7, #4]
 8002aa6:	681b      	ldr	r3, [r3, #0]
 8002aa8:	430a      	orrs	r2, r1
 8002aaa:	631a      	str	r2, [r3, #48]	@ 0x30
 8002aac:	e007      	b.n	8002abe <HAL_ADC_Init+0x34a>
 8002aae:	687b      	ldr	r3, [r7, #4]
 8002ab0:	681b      	ldr	r3, [r3, #0]
 8002ab2:	6b1a      	ldr	r2, [r3, #48]	@ 0x30
 8002ab4:	687b      	ldr	r3, [r7, #4]
 8002ab6:	681b      	ldr	r3, [r3, #0]
 8002ab8:	f022 020f 	bic.w	r2, r2, #15
 8002abc:	631a      	str	r2, [r3, #48]	@ 0x30
 8002abe:	687b      	ldr	r3, [r7, #4]
 8002ac0:	6ddb      	ldr	r3, [r3, #92]	@ 0x5c
 8002ac2:	f023 0303 	bic.w	r3, r3, #3
 8002ac6:	f043 0201 	orr.w	r2, r3, #1
 8002aca:	687b      	ldr	r3, [r7, #4]
 8002acc:	65da      	str	r2, [r3, #92]	@ 0x5c
 8002ace:	e007      	b.n	8002ae0 <HAL_ADC_Init+0x36c>
 8002ad0:	687b      	ldr	r3, [r7, #4]
 8002ad2:	6ddb      	ldr	r3, [r3, #92]	@ 0x5c
 8002ad4:	f043 0210 	orr.w	r2, r3, #16
 8002ad8:	687b      	ldr	r3, [r7, #4]
 8002ada:	65da      	str	r2, [r3, #92]	@ 0x5c
 8002adc:	2301      	movs	r3, #1
 8002ade:	77fb      	strb	r3, [r7, #31]
 8002ae0:	7ffb      	ldrb	r3, [r7, #31]
 8002ae2:	4618      	mov	r0, r3
 8002ae4:	3724      	adds	r7, #36	@ 0x24
 8002ae6:	46bd      	mov	sp, r7
 8002ae8:	bd90      	pop	{r4, r7, pc}
 8002aea:	bf00      	nop

08002aec <HAL_ADC_ConfigChannel>:
 8002aec:	b580      	push	{r7, lr}
 8002aee:	b0b6      	sub	sp, #216	@ 0xd8
 8002af0:	af00      	add	r7, sp, #0
 8002af2:	6078      	str	r0, [r7, #4]
 8002af4:	6039      	str	r1, [r7, #0]
 8002af6:	2300      	movs	r3, #0
 8002af8:	f887 30d7 	strb.w	r3, [r7, #215]	@ 0xd7
 8002afc:	2300      	movs	r3, #0
 8002afe:	60fb      	str	r3, [r7, #12]
 8002b00:	687b      	ldr	r3, [r7, #4]
 8002b02:	f893 3058 	ldrb.w	r3, [r3, #88]	@ 0x58
 8002b06:	2b01      	cmp	r3, #1
 8002b08:	d102      	bne.n	8002b10 <HAL_ADC_ConfigChannel+0x24>
 8002b0a:	2302      	movs	r3, #2
 8002b0c:	f000 bc13 	b.w	8003336 <HAL_ADC_ConfigChannel+0x84a>
 8002b10:	687b      	ldr	r3, [r7, #4]
 8002b12:	2201      	movs	r2, #1
 8002b14:	f883 2058 	strb.w	r2, [r3, #88]	@ 0x58
 8002b18:	687b      	ldr	r3, [r7, #4]
 8002b1a:	681b      	ldr	r3, [r3, #0]
 8002b1c:	4618      	mov	r0, r3
 8002b1e:	f7ff fe02 	bl	8002726 <LL_ADC_REG_IsConversionOngoing>
 8002b22:	4603      	mov	r3, r0
 8002b24:	2b00      	cmp	r3, #0
 8002b26:	f040 83f3 	bne.w	8003310 <HAL_ADC_ConfigChannel+0x824>
 8002b2a:	687b      	ldr	r3, [r7, #4]
 8002b2c:	6818      	ldr	r0, [r3, #0]
 8002b2e:	683b      	ldr	r3, [r7, #0]
 8002b30:	6859      	ldr	r1, [r3, #4]
 8002b32:	683b      	ldr	r3, [r7, #0]
 8002b34:	681b      	ldr	r3, [r3, #0]
 8002b36:	461a      	mov	r2, r3
 8002b38:	f7ff fd18 	bl	800256c <LL_ADC_REG_SetSequencerRanks>
 8002b3c:	687b      	ldr	r3, [r7, #4]
 8002b3e:	681b      	ldr	r3, [r3, #0]
 8002b40:	4618      	mov	r0, r3
 8002b42:	f7ff fdf0 	bl	8002726 <LL_ADC_REG_IsConversionOngoing>
 8002b46:	f8c7 00d0 	str.w	r0, [r7, #208]	@ 0xd0
 8002b4a:	687b      	ldr	r3, [r7, #4]
 8002b4c:	681b      	ldr	r3, [r3, #0]
 8002b4e:	4618      	mov	r0, r3
 8002b50:	f7ff fdfc 	bl	800274c <LL_ADC_INJ_IsConversionOngoing>
 8002b54:	f8c7 00cc 	str.w	r0, [r7, #204]	@ 0xcc
 8002b58:	f8d7 30d0 	ldr.w	r3, [r7, #208]	@ 0xd0
 8002b5c:	2b00      	cmp	r3, #0
 8002b5e:	f040 81d9 	bne.w	8002f14 <HAL_ADC_ConfigChannel+0x428>
 8002b62:	f8d7 30cc 	ldr.w	r3, [r7, #204]	@ 0xcc
 8002b66:	2b00      	cmp	r3, #0
 8002b68:	f040 81d4 	bne.w	8002f14 <HAL_ADC_ConfigChannel+0x428>
 8002b6c:	683b      	ldr	r3, [r7, #0]
 8002b6e:	689b      	ldr	r3, [r3, #8]
 8002b70:	f1b3 4f00 	cmp.w	r3, #2147483648	@ 0x80000000
 8002b74:	d10f      	bne.n	8002b96 <HAL_ADC_ConfigChannel+0xaa>
 8002b76:	687b      	ldr	r3, [r7, #4]
 8002b78:	6818      	ldr	r0, [r3, #0]
 8002b7a:	683b      	ldr	r3, [r7, #0]
 8002b7c:	681b      	ldr	r3, [r3, #0]
 8002b7e:	2200      	movs	r2, #0
 8002b80:	4619      	mov	r1, r3
 8002b82:	f7ff fd1f 	bl	80025c4 <LL_ADC_SetChannelSamplingTime>
 8002b86:	687b      	ldr	r3, [r7, #4]
 8002b88:	681b      	ldr	r3, [r3, #0]
 8002b8a:	f04f 4100 	mov.w	r1, #2147483648	@ 0x80000000
 8002b8e:	4618      	mov	r0, r3
 8002b90:	f7ff fcd9 	bl	8002546 <LL_ADC_SetSamplingTimeCommonConfig>
 8002b94:	e00e      	b.n	8002bb4 <HAL_ADC_ConfigChannel+0xc8>
 8002b96:	687b      	ldr	r3, [r7, #4]
 8002b98:	6818      	ldr	r0, [r3, #0]
 8002b9a:	683b      	ldr	r3, [r7, #0]
 8002b9c:	6819      	ldr	r1, [r3, #0]
 8002b9e:	683b      	ldr	r3, [r7, #0]
 8002ba0:	689b      	ldr	r3, [r3, #8]
 8002ba2:	461a      	mov	r2, r3
 8002ba4:	f7ff fd0e 	bl	80025c4 <LL_ADC_SetChannelSamplingTime>
 8002ba8:	687b      	ldr	r3, [r7, #4]
 8002baa:	681b      	ldr	r3, [r3, #0]
 8002bac:	2100      	movs	r1, #0
 8002bae:	4618      	mov	r0, r3
 8002bb0:	f7ff fcc9 	bl	8002546 <LL_ADC_SetSamplingTimeCommonConfig>
 8002bb4:	683b      	ldr	r3, [r7, #0]
 8002bb6:	695a      	ldr	r2, [r3, #20]
 8002bb8:	687b      	ldr	r3, [r7, #4]
 8002bba:	681b      	ldr	r3, [r3, #0]
 8002bbc:	68db      	ldr	r3, [r3, #12]
 8002bbe:	08db      	lsrs	r3, r3, #3
 8002bc0:	f003 0303 	and.w	r3, r3, #3
 8002bc4:	005b      	lsls	r3, r3, #1
 8002bc6:	fa02 f303 	lsl.w	r3, r2, r3
 8002bca:	f8c7 30c8 	str.w	r3, [r7, #200]	@ 0xc8
 8002bce:	683b      	ldr	r3, [r7, #0]
 8002bd0:	691b      	ldr	r3, [r3, #16]
 8002bd2:	2b04      	cmp	r3, #4
 8002bd4:	d022      	beq.n	8002c1c <HAL_ADC_ConfigChannel+0x130>
 8002bd6:	687b      	ldr	r3, [r7, #4]
 8002bd8:	6818      	ldr	r0, [r3, #0]
 8002bda:	683b      	ldr	r3, [r7, #0]
 8002bdc:	6919      	ldr	r1, [r3, #16]
 8002bde:	683b      	ldr	r3, [r7, #0]
 8002be0:	681a      	ldr	r2, [r3, #0]
 8002be2:	f8d7 30c8 	ldr.w	r3, [r7, #200]	@ 0xc8
 8002be6:	f7ff fc23 	bl	8002430 <LL_ADC_SetOffset>
 8002bea:	687b      	ldr	r3, [r7, #4]
 8002bec:	6818      	ldr	r0, [r3, #0]
 8002bee:	683b      	ldr	r3, [r7, #0]
 8002bf0:	6919      	ldr	r1, [r3, #16]
 8002bf2:	683b      	ldr	r3, [r7, #0]
 8002bf4:	699b      	ldr	r3, [r3, #24]
 8002bf6:	461a      	mov	r2, r3
 8002bf8:	f7ff fc6f 	bl	80024da <LL_ADC_SetOffsetSign>
 8002bfc:	687b      	ldr	r3, [r7, #4]
 8002bfe:	6818      	ldr	r0, [r3, #0]
 8002c00:	683b      	ldr	r3, [r7, #0]
 8002c02:	6919      	ldr	r1, [r3, #16]
 8002c04:	683b      	ldr	r3, [r7, #0]
 8002c06:	7f1b      	ldrb	r3, [r3, #28]
 8002c08:	2b01      	cmp	r3, #1
 8002c0a:	d102      	bne.n	8002c12 <HAL_ADC_ConfigChannel+0x126>
 8002c0c:	f04f 7300 	mov.w	r3, #33554432	@ 0x2000000
 8002c10:	e000      	b.n	8002c14 <HAL_ADC_ConfigChannel+0x128>
 8002c12:	2300      	movs	r3, #0
 8002c14:	461a      	mov	r2, r3
 8002c16:	f7ff fc7b 	bl	8002510 <LL_ADC_SetOffsetSaturation>
 8002c1a:	e17b      	b.n	8002f14 <HAL_ADC_ConfigChannel+0x428>
 8002c1c:	687b      	ldr	r3, [r7, #4]
 8002c1e:	681b      	ldr	r3, [r3, #0]
 8002c20:	2100      	movs	r1, #0
 8002c22:	4618      	mov	r0, r3
 8002c24:	f7ff fc28 	bl	8002478 <LL_ADC_GetOffsetChannel>
 8002c28:	4603      	mov	r3, r0
 8002c2a:	f3c3 0312 	ubfx	r3, r3, #0, #19
 8002c2e:	2b00      	cmp	r3, #0
 8002c30:	d10a      	bne.n	8002c48 <HAL_ADC_ConfigChannel+0x15c>
 8002c32:	687b      	ldr	r3, [r7, #4]
 8002c34:	681b      	ldr	r3, [r3, #0]
 8002c36:	2100      	movs	r1, #0
 8002c38:	4618      	mov	r0, r3
 8002c3a:	f7ff fc1d 	bl	8002478 <LL_ADC_GetOffsetChannel>
 8002c3e:	4603      	mov	r3, r0
 8002c40:	0e9b      	lsrs	r3, r3, #26
 8002c42:	f003 021f 	and.w	r2, r3, #31
 8002c46:	e01e      	b.n	8002c86 <HAL_ADC_ConfigChannel+0x19a>
 8002c48:	687b      	ldr	r3, [r7, #4]
 8002c4a:	681b      	ldr	r3, [r3, #0]
 8002c4c:	2100      	movs	r1, #0
 8002c4e:	4618      	mov	r0, r3
 8002c50:	f7ff fc12 	bl	8002478 <LL_ADC_GetOffsetChannel>
 8002c54:	4603      	mov	r3, r0
 8002c56:	f8c7 30bc 	str.w	r3, [r7, #188]	@ 0xbc
 8002c5a:	f8d7 30bc 	ldr.w	r3, [r7, #188]	@ 0xbc
 8002c5e:	fa93 f3a3 	rbit	r3, r3
 8002c62:	f8c7 30c0 	str.w	r3, [r7, #192]	@ 0xc0
 8002c66:	f8d7 30c0 	ldr.w	r3, [r7, #192]	@ 0xc0
 8002c6a:	f8c7 30b8 	str.w	r3, [r7, #184]	@ 0xb8
 8002c6e:	f8d7 30b8 	ldr.w	r3, [r7, #184]	@ 0xb8
 8002c72:	2b00      	cmp	r3, #0
 8002c74:	d101      	bne.n	8002c7a <HAL_ADC_ConfigChannel+0x18e>
 8002c76:	2320      	movs	r3, #32
 8002c78:	e004      	b.n	8002c84 <HAL_ADC_ConfigChannel+0x198>
 8002c7a:	f8d7 30b8 	ldr.w	r3, [r7, #184]	@ 0xb8
 8002c7e:	fab3 f383 	clz	r3, r3
 8002c82:	b2db      	uxtb	r3, r3
 8002c84:	461a      	mov	r2, r3
 8002c86:	683b      	ldr	r3, [r7, #0]
 8002c88:	681b      	ldr	r3, [r3, #0]
 8002c8a:	f3c3 0312 	ubfx	r3, r3, #0, #19
 8002c8e:	2b00      	cmp	r3, #0
 8002c90:	d105      	bne.n	8002c9e <HAL_ADC_ConfigChannel+0x1b2>
 8002c92:	683b      	ldr	r3, [r7, #0]
 8002c94:	681b      	ldr	r3, [r3, #0]
 8002c96:	0e9b      	lsrs	r3, r3, #26
 8002c98:	f003 031f 	and.w	r3, r3, #31
 8002c9c:	e018      	b.n	8002cd0 <HAL_ADC_ConfigChannel+0x1e4>
 8002c9e:	683b      	ldr	r3, [r7, #0]
 8002ca0:	681b      	ldr	r3, [r3, #0]
 8002ca2:	f8c7 30b0 	str.w	r3, [r7, #176]	@ 0xb0
 8002ca6:	f8d7 30b0 	ldr.w	r3, [r7, #176]	@ 0xb0
 8002caa:	fa93 f3a3 	rbit	r3, r3
 8002cae:	f8c7 30ac 	str.w	r3, [r7, #172]	@ 0xac
 8002cb2:	f8d7 30ac 	ldr.w	r3, [r7, #172]	@ 0xac
 8002cb6:	f8c7 30b4 	str.w	r3, [r7, #180]	@ 0xb4
 8002cba:	f8d7 30b4 	ldr.w	r3, [r7, #180]	@ 0xb4
 8002cbe:	2b00      	cmp	r3, #0
 8002cc0:	d101      	bne.n	8002cc6 <HAL_ADC_ConfigChannel+0x1da>
 8002cc2:	2320      	movs	r3, #32
 8002cc4:	e004      	b.n	8002cd0 <HAL_ADC_ConfigChannel+0x1e4>
 8002cc6:	f8d7 30b4 	ldr.w	r3, [r7, #180]	@ 0xb4
 8002cca:	fab3 f383 	clz	r3, r3
 8002cce:	b2db      	uxtb	r3, r3
 8002cd0:	429a      	cmp	r2, r3
 8002cd2:	d106      	bne.n	8002ce2 <HAL_ADC_ConfigChannel+0x1f6>
 8002cd4:	687b      	ldr	r3, [r7, #4]
 8002cd6:	681b      	ldr	r3, [r3, #0]
 8002cd8:	2200      	movs	r2, #0
 8002cda:	2100      	movs	r1, #0
 8002cdc:	4618      	mov	r0, r3
 8002cde:	f7ff fbe1 	bl	80024a4 <LL_ADC_SetOffsetState>
 8002ce2:	687b      	ldr	r3, [r7, #4]
 8002ce4:	681b      	ldr	r3, [r3, #0]
 8002ce6:	2101      	movs	r1, #1
 8002ce8:	4618      	mov	r0, r3
 8002cea:	f7ff fbc5 	bl	8002478 <LL_ADC_GetOffsetChannel>
 8002cee:	4603      	mov	r3, r0
 8002cf0:	f3c3 0312 	ubfx	r3, r3, #0, #19
 8002cf4:	2b00      	cmp	r3, #0
 8002cf6:	d10a      	bne.n	8002d0e <HAL_ADC_ConfigChannel+0x222>
 8002cf8:	687b      	ldr	r3, [r7, #4]
 8002cfa:	681b      	ldr	r3, [r3, #0]
 8002cfc:	2101      	movs	r1, #1
 8002cfe:	4618      	mov	r0, r3
 8002d00:	f7ff fbba 	bl	8002478 <LL_ADC_GetOffsetChannel>
 8002d04:	4603      	mov	r3, r0
 8002d06:	0e9b      	lsrs	r3, r3, #26
 8002d08:	f003 021f 	and.w	r2, r3, #31
 8002d0c:	e01e      	b.n	8002d4c <HAL_ADC_ConfigChannel+0x260>
 8002d0e:	687b      	ldr	r3, [r7, #4]
 8002d10:	681b      	ldr	r3, [r3, #0]
 8002d12:	2101      	movs	r1, #1
 8002d14:	4618      	mov	r0, r3
 8002d16:	f7ff fbaf 	bl	8002478 <LL_ADC_GetOffsetChannel>
 8002d1a:	4603      	mov	r3, r0
 8002d1c:	f8c7 30a4 	str.w	r3, [r7, #164]	@ 0xa4
 8002d20:	f8d7 30a4 	ldr.w	r3, [r7, #164]	@ 0xa4
 8002d24:	fa93 f3a3 	rbit	r3, r3
 8002d28:	f8c7 30a0 	str.w	r3, [r7, #160]	@ 0xa0
 8002d2c:	f8d7 30a0 	ldr.w	r3, [r7, #160]	@ 0xa0
 8002d30:	f8c7 30a8 	str.w	r3, [r7, #168]	@ 0xa8
 8002d34:	f8d7 30a8 	ldr.w	r3, [r7, #168]	@ 0xa8
 8002d38:	2b00      	cmp	r3, #0
 8002d3a:	d101      	bne.n	8002d40 <HAL_ADC_ConfigChannel+0x254>
 8002d3c:	2320      	movs	r3, #32
 8002d3e:	e004      	b.n	8002d4a <HAL_ADC_ConfigChannel+0x25e>
 8002d40:	f8d7 30a8 	ldr.w	r3, [r7, #168]	@ 0xa8
 8002d44:	fab3 f383 	clz	r3, r3
 8002d48:	b2db      	uxtb	r3, r3
 8002d4a:	461a      	mov	r2, r3
 8002d4c:	683b      	ldr	r3, [r7, #0]
 8002d4e:	681b      	ldr	r3, [r3, #0]
 8002d50:	f3c3 0312 	ubfx	r3, r3, #0, #19
 8002d54:	2b00      	cmp	r3, #0
 8002d56:	d105      	bne.n	8002d64 <HAL_ADC_ConfigChannel+0x278>
 8002d58:	683b      	ldr	r3, [r7, #0]
 8002d5a:	681b      	ldr	r3, [r3, #0]
 8002d5c:	0e9b      	lsrs	r3, r3, #26
 8002d5e:	f003 031f 	and.w	r3, r3, #31
 8002d62:	e018      	b.n	8002d96 <HAL_ADC_ConfigChannel+0x2aa>
 8002d64:	683b      	ldr	r3, [r7, #0]
 8002d66:	681b      	ldr	r3, [r3, #0]
 8002d68:	f8c7 3098 	str.w	r3, [r7, #152]	@ 0x98
 8002d6c:	f8d7 3098 	ldr.w	r3, [r7, #152]	@ 0x98
 8002d70:	fa93 f3a3 	rbit	r3, r3
 8002d74:	f8c7 3094 	str.w	r3, [r7, #148]	@ 0x94
 8002d78:	f8d7 3094 	ldr.w	r3, [r7, #148]	@ 0x94
 8002d7c:	f8c7 309c 	str.w	r3, [r7, #156]	@ 0x9c
 8002d80:	f8d7 309c 	ldr.w	r3, [r7, #156]	@ 0x9c
 8002d84:	2b00      	cmp	r3, #0
 8002d86:	d101      	bne.n	8002d8c <HAL_ADC_ConfigChannel+0x2a0>
 8002d88:	2320      	movs	r3, #32
 8002d8a:	e004      	b.n	8002d96 <HAL_ADC_ConfigChannel+0x2aa>
 8002d8c:	f8d7 309c 	ldr.w	r3, [r7, #156]	@ 0x9c
 8002d90:	fab3 f383 	clz	r3, r3
 8002d94:	b2db      	uxtb	r3, r3
 8002d96:	429a      	cmp	r2, r3
 8002d98:	d106      	bne.n	8002da8 <HAL_ADC_ConfigChannel+0x2bc>
 8002d9a:	687b      	ldr	r3, [r7, #4]
 8002d9c:	681b      	ldr	r3, [r3, #0]
 8002d9e:	2200      	movs	r2, #0
 8002da0:	2101      	movs	r1, #1
 8002da2:	4618      	mov	r0, r3
 8002da4:	f7ff fb7e 	bl	80024a4 <LL_ADC_SetOffsetState>
 8002da8:	687b      	ldr	r3, [r7, #4]
 8002daa:	681b      	ldr	r3, [r3, #0]
 8002dac:	2102      	movs	r1, #2
 8002dae:	4618      	mov	r0, r3
 8002db0:	f7ff fb62 	bl	8002478 <LL_ADC_GetOffsetChannel>
 8002db4:	4603      	mov	r3, r0
 8002db6:	f3c3 0312 	ubfx	r3, r3, #0, #19
 8002dba:	2b00      	cmp	r3, #0
 8002dbc:	d10a      	bne.n	8002dd4 <HAL_ADC_ConfigChannel+0x2e8>
 8002dbe:	687b      	ldr	r3, [r7, #4]
 8002dc0:	681b      	ldr	r3, [r3, #0]
 8002dc2:	2102      	movs	r1, #2
 8002dc4:	4618      	mov	r0, r3
 8002dc6:	f7ff fb57 	bl	8002478 <LL_ADC_GetOffsetChannel>
 8002dca:	4603      	mov	r3, r0
 8002dcc:	0e9b      	lsrs	r3, r3, #26
 8002dce:	f003 021f 	and.w	r2, r3, #31
 8002dd2:	e01e      	b.n	8002e12 <HAL_ADC_ConfigChannel+0x326>
 8002dd4:	687b      	ldr	r3, [r7, #4]
 8002dd6:	681b      	ldr	r3, [r3, #0]
 8002dd8:	2102      	movs	r1, #2
 8002dda:	4618      	mov	r0, r3
 8002ddc:	f7ff fb4c 	bl	8002478 <LL_ADC_GetOffsetChannel>
 8002de0:	4603      	mov	r3, r0
 8002de2:	f8c7 308c 	str.w	r3, [r7, #140]	@ 0x8c
 8002de6:	f8d7 308c 	ldr.w	r3, [r7, #140]	@ 0x8c
 8002dea:	fa93 f3a3 	rbit	r3, r3
 8002dee:	f8c7 3088 	str.w	r3, [r7, #136]	@ 0x88
 8002df2:	f8d7 3088 	ldr.w	r3, [r7, #136]	@ 0x88
 8002df6:	f8c7 3090 	str.w	r3, [r7, #144]	@ 0x90
 8002dfa:	f8d7 3090 	ldr.w	r3, [r7, #144]	@ 0x90
 8002dfe:	2b00      	cmp	r3, #0
 8002e00:	d101      	bne.n	8002e06 <HAL_ADC_ConfigChannel+0x31a>
 8002e02:	2320      	movs	r3, #32
 8002e04:	e004      	b.n	8002e10 <HAL_ADC_ConfigChannel+0x324>
 8002e06:	f8d7 3090 	ldr.w	r3, [r7, #144]	@ 0x90
 8002e0a:	fab3 f383 	clz	r3, r3
 8002e0e:	b2db      	uxtb	r3, r3
 8002e10:	461a      	mov	r2, r3
 8002e12:	683b      	ldr	r3, [r7, #0]
 8002e14:	681b      	ldr	r3, [r3, #0]
 8002e16:	f3c3 0312 	ubfx	r3, r3, #0, #19
 8002e1a:	2b00      	cmp	r3, #0
 8002e1c:	d105      	bne.n	8002e2a <HAL_ADC_ConfigChannel+0x33e>
 8002e1e:	683b      	ldr	r3, [r7, #0]
 8002e20:	681b      	ldr	r3, [r3, #0]
 8002e22:	0e9b      	lsrs	r3, r3, #26
 8002e24:	f003 031f 	and.w	r3, r3, #31
 8002e28:	e016      	b.n	8002e58 <HAL_ADC_ConfigChannel+0x36c>
 8002e2a:	683b      	ldr	r3, [r7, #0]
 8002e2c:	681b      	ldr	r3, [r3, #0]
 8002e2e:	f8c7 3080 	str.w	r3, [r7, #128]	@ 0x80
 8002e32:	f8d7 3080 	ldr.w	r3, [r7, #128]	@ 0x80
 8002e36:	fa93 f3a3 	rbit	r3, r3
 8002e3a:	67fb      	str	r3, [r7, #124]	@ 0x7c
 8002e3c:	6ffb      	ldr	r3, [r7, #124]	@ 0x7c
 8002e3e:	f8c7 3084 	str.w	r3, [r7, #132]	@ 0x84
 8002e42:	f8d7 3084 	ldr.w	r3, [r7, #132]	@ 0x84
 8002e46:	2b00      	cmp	r3, #0
 8002e48:	d101      	bne.n	8002e4e <HAL_ADC_ConfigChannel+0x362>
 8002e4a:	2320      	movs	r3, #32
 8002e4c:	e004      	b.n	8002e58 <HAL_ADC_ConfigChannel+0x36c>
 8002e4e:	f8d7 3084 	ldr.w	r3, [r7, #132]	@ 0x84
 8002e52:	fab3 f383 	clz	r3, r3
 8002e56:	b2db      	uxtb	r3, r3
 8002e58:	429a      	cmp	r2, r3
 8002e5a:	d106      	bne.n	8002e6a <HAL_ADC_ConfigChannel+0x37e>
 8002e5c:	687b      	ldr	r3, [r7, #4]
 8002e5e:	681b      	ldr	r3, [r3, #0]
 8002e60:	2200      	movs	r2, #0
 8002e62:	2102      	movs	r1, #2
 8002e64:	4618      	mov	r0, r3
 8002e66:	f7ff fb1d 	bl	80024a4 <LL_ADC_SetOffsetState>
 8002e6a:	687b      	ldr	r3, [r7, #4]
 8002e6c:	681b      	ldr	r3, [r3, #0]
 8002e6e:	2103      	movs	r1, #3
 8002e70:	4618      	mov	r0, r3
 8002e72:	f7ff fb01 	bl	8002478 <LL_ADC_GetOffsetChannel>
 8002e76:	4603      	mov	r3, r0
 8002e78:	f3c3 0312 	ubfx	r3, r3, #0, #19
 8002e7c:	2b00      	cmp	r3, #0
 8002e7e:	d10a      	bne.n	8002e96 <HAL_ADC_ConfigChannel+0x3aa>
 8002e80:	687b      	ldr	r3, [r7, #4]
 8002e82:	681b      	ldr	r3, [r3, #0]
 8002e84:	2103      	movs	r1, #3
 8002e86:	4618      	mov	r0, r3
 8002e88:	f7ff faf6 	bl	8002478 <LL_ADC_GetOffsetChannel>
 8002e8c:	4603      	mov	r3, r0
 8002e8e:	0e9b      	lsrs	r3, r3, #26
 8002e90:	f003 021f 	and.w	r2, r3, #31
 8002e94:	e017      	b.n	8002ec6 <HAL_ADC_ConfigChannel+0x3da>
 8002e96:	687b      	ldr	r3, [r7, #4]
 8002e98:	681b      	ldr	r3, [r3, #0]
 8002e9a:	2103      	movs	r1, #3
 8002e9c:	4618      	mov	r0, r3
 8002e9e:	f7ff faeb 	bl	8002478 <LL_ADC_GetOffsetChannel>
 8002ea2:	4603      	mov	r3, r0
 8002ea4:	677b      	str	r3, [r7, #116]	@ 0x74
 8002ea6:	6f7b      	ldr	r3, [r7, #116]	@ 0x74
 8002ea8:	fa93 f3a3 	rbit	r3, r3
 8002eac:	673b      	str	r3, [r7, #112]	@ 0x70
 8002eae:	6f3b      	ldr	r3, [r7, #112]	@ 0x70
 8002eb0:	67bb      	str	r3, [r7, #120]	@ 0x78
 8002eb2:	6fbb      	ldr	r3, [r7, #120]	@ 0x78
 8002eb4:	2b00      	cmp	r3, #0
 8002eb6:	d101      	bne.n	8002ebc <HAL_ADC_ConfigChannel+0x3d0>
 8002eb8:	2320      	movs	r3, #32
 8002eba:	e003      	b.n	8002ec4 <HAL_ADC_ConfigChannel+0x3d8>
 8002ebc:	6fbb      	ldr	r3, [r7, #120]	@ 0x78
 8002ebe:	fab3 f383 	clz	r3, r3
 8002ec2:	b2db      	uxtb	r3, r3
 8002ec4:	461a      	mov	r2, r3
 8002ec6:	683b      	ldr	r3, [r7, #0]
 8002ec8:	681b      	ldr	r3, [r3, #0]
 8002eca:	f3c3 0312 	ubfx	r3, r3, #0, #19
 8002ece:	2b00      	cmp	r3, #0
 8002ed0:	d105      	bne.n	8002ede <HAL_ADC_ConfigChannel+0x3f2>
 8002ed2:	683b      	ldr	r3, [r7, #0]
 8002ed4:	681b      	ldr	r3, [r3, #0]
 8002ed6:	0e9b      	lsrs	r3, r3, #26
 8002ed8:	f003 031f 	and.w	r3, r3, #31
 8002edc:	e011      	b.n	8002f02 <HAL_ADC_ConfigChannel+0x416>
 8002ede:	683b      	ldr	r3, [r7, #0]
 8002ee0:	681b      	ldr	r3, [r3, #0]
 8002ee2:	66bb      	str	r3, [r7, #104]	@ 0x68
 8002ee4:	6ebb      	ldr	r3, [r7, #104]	@ 0x68
 8002ee6:	fa93 f3a3 	rbit	r3, r3
 8002eea:	667b      	str	r3, [r7, #100]	@ 0x64
 8002eec:	6e7b      	ldr	r3, [r7, #100]	@ 0x64
 8002eee:	66fb      	str	r3, [r7, #108]	@ 0x6c
 8002ef0:	6efb      	ldr	r3, [r7, #108]	@ 0x6c
 8002ef2:	2b00      	cmp	r3, #0
 8002ef4:	d101      	bne.n	8002efa <HAL_ADC_ConfigChannel+0x40e>
 8002ef6:	2320      	movs	r3, #32
 8002ef8:	e003      	b.n	8002f02 <HAL_ADC_ConfigChannel+0x416>
 8002efa:	6efb      	ldr	r3, [r7, #108]	@ 0x6c
 8002efc:	fab3 f383 	clz	r3, r3
 8002f00:	b2db      	uxtb	r3, r3
 8002f02:	429a      	cmp	r2, r3
 8002f04:	d106      	bne.n	8002f14 <HAL_ADC_ConfigChannel+0x428>
 8002f06:	687b      	ldr	r3, [r7, #4]
 8002f08:	681b      	ldr	r3, [r3, #0]
 8002f0a:	2200      	movs	r2, #0
 8002f0c:	2103      	movs	r1, #3
 8002f0e:	4618      	mov	r0, r3
 8002f10:	f7ff fac8 	bl	80024a4 <LL_ADC_SetOffsetState>
 8002f14:	687b      	ldr	r3, [r7, #4]
 8002f16:	681b      	ldr	r3, [r3, #0]
 8002f18:	4618      	mov	r0, r3
 8002f1a:	f7ff fbf1 	bl	8002700 <LL_ADC_IsEnabled>
 8002f1e:	4603      	mov	r3, r0
 8002f20:	2b00      	cmp	r3, #0
 8002f22:	f040 813d 	bne.w	80031a0 <HAL_ADC_ConfigChannel+0x6b4>
 8002f26:	687b      	ldr	r3, [r7, #4]
 8002f28:	6818      	ldr	r0, [r3, #0]
 8002f2a:	683b      	ldr	r3, [r7, #0]
 8002f2c:	6819      	ldr	r1, [r3, #0]
 8002f2e:	683b      	ldr	r3, [r7, #0]
 8002f30:	68db      	ldr	r3, [r3, #12]
 8002f32:	461a      	mov	r2, r3
 8002f34:	f7ff fb72 	bl	800261c <LL_ADC_SetChannelSingleDiff>
 8002f38:	683b      	ldr	r3, [r7, #0]
 8002f3a:	68db      	ldr	r3, [r3, #12]
 8002f3c:	4aa2      	ldr	r2, [pc, #648]	@ (80031c8 <HAL_ADC_ConfigChannel+0x6dc>)
 8002f3e:	4293      	cmp	r3, r2
 8002f40:	f040 812e 	bne.w	80031a0 <HAL_ADC_ConfigChannel+0x6b4>
 8002f44:	687b      	ldr	r3, [r7, #4]
 8002f46:	6818      	ldr	r0, [r3, #0]
 8002f48:	683b      	ldr	r3, [r7, #0]
 8002f4a:	681b      	ldr	r3, [r3, #0]
 8002f4c:	f3c3 0312 	ubfx	r3, r3, #0, #19
 8002f50:	2b00      	cmp	r3, #0
 8002f52:	d10b      	bne.n	8002f6c <HAL_ADC_ConfigChannel+0x480>
 8002f54:	683b      	ldr	r3, [r7, #0]
 8002f56:	681b      	ldr	r3, [r3, #0]
 8002f58:	0e9b      	lsrs	r3, r3, #26
 8002f5a:	3301      	adds	r3, #1
 8002f5c:	f003 031f 	and.w	r3, r3, #31
 8002f60:	2b09      	cmp	r3, #9
 8002f62:	bf94      	ite	ls
 8002f64:	2301      	movls	r3, #1
 8002f66:	2300      	movhi	r3, #0
 8002f68:	b2db      	uxtb	r3, r3
 8002f6a:	e019      	b.n	8002fa0 <HAL_ADC_ConfigChannel+0x4b4>
 8002f6c:	683b      	ldr	r3, [r7, #0]
 8002f6e:	681b      	ldr	r3, [r3, #0]
 8002f70:	65fb      	str	r3, [r7, #92]	@ 0x5c
 8002f72:	6dfb      	ldr	r3, [r7, #92]	@ 0x5c
 8002f74:	fa93 f3a3 	rbit	r3, r3
 8002f78:	65bb      	str	r3, [r7, #88]	@ 0x58
 8002f7a:	6dbb      	ldr	r3, [r7, #88]	@ 0x58
 8002f7c:	663b      	str	r3, [r7, #96]	@ 0x60
 8002f7e:	6e3b      	ldr	r3, [r7, #96]	@ 0x60
 8002f80:	2b00      	cmp	r3, #0
 8002f82:	d101      	bne.n	8002f88 <HAL_ADC_ConfigChannel+0x49c>
 8002f84:	2320      	movs	r3, #32
 8002f86:	e003      	b.n	8002f90 <HAL_ADC_ConfigChannel+0x4a4>
 8002f88:	6e3b      	ldr	r3, [r7, #96]	@ 0x60
 8002f8a:	fab3 f383 	clz	r3, r3
 8002f8e:	b2db      	uxtb	r3, r3
 8002f90:	3301      	adds	r3, #1
 8002f92:	f003 031f 	and.w	r3, r3, #31
 8002f96:	2b09      	cmp	r3, #9
 8002f98:	bf94      	ite	ls
 8002f9a:	2301      	movls	r3, #1
 8002f9c:	2300      	movhi	r3, #0
 8002f9e:	b2db      	uxtb	r3, r3
 8002fa0:	2b00      	cmp	r3, #0
 8002fa2:	d079      	beq.n	8003098 <HAL_ADC_ConfigChannel+0x5ac>
 8002fa4:	683b      	ldr	r3, [r7, #0]
 8002fa6:	681b      	ldr	r3, [r3, #0]
 8002fa8:	f3c3 0312 	ubfx	r3, r3, #0, #19
 8002fac:	2b00      	cmp	r3, #0
 8002fae:	d107      	bne.n	8002fc0 <HAL_ADC_ConfigChannel+0x4d4>
 8002fb0:	683b      	ldr	r3, [r7, #0]
 8002fb2:	681b      	ldr	r3, [r3, #0]
 8002fb4:	0e9b      	lsrs	r3, r3, #26
 8002fb6:	3301      	adds	r3, #1
 8002fb8:	069b      	lsls	r3, r3, #26
 8002fba:	f003 42f8 	and.w	r2, r3, #2080374784	@ 0x7c000000
 8002fbe:	e015      	b.n	8002fec <HAL_ADC_ConfigChannel+0x500>
 8002fc0:	683b      	ldr	r3, [r7, #0]
 8002fc2:	681b      	ldr	r3, [r3, #0]
 8002fc4:	653b      	str	r3, [r7, #80]	@ 0x50
 8002fc6:	6d3b      	ldr	r3, [r7, #80]	@ 0x50
 8002fc8:	fa93 f3a3 	rbit	r3, r3
 8002fcc:	64fb      	str	r3, [r7, #76]	@ 0x4c
 8002fce:	6cfb      	ldr	r3, [r7, #76]	@ 0x4c
 8002fd0:	657b      	str	r3, [r7, #84]	@ 0x54
 8002fd2:	6d7b      	ldr	r3, [r7, #84]	@ 0x54
 8002fd4:	2b00      	cmp	r3, #0
 8002fd6:	d101      	bne.n	8002fdc <HAL_ADC_ConfigChannel+0x4f0>
 8002fd8:	2320      	movs	r3, #32
 8002fda:	e003      	b.n	8002fe4 <HAL_ADC_ConfigChannel+0x4f8>
 8002fdc:	6d7b      	ldr	r3, [r7, #84]	@ 0x54
 8002fde:	fab3 f383 	clz	r3, r3
 8002fe2:	b2db      	uxtb	r3, r3
 8002fe4:	3301      	adds	r3, #1
 8002fe6:	069b      	lsls	r3, r3, #26
 8002fe8:	f003 42f8 	and.w	r2, r3, #2080374784	@ 0x7c000000
 8002fec:	683b      	ldr	r3, [r7, #0]
 8002fee:	681b      	ldr	r3, [r3, #0]
 8002ff0:	f3c3 0312 	ubfx	r3, r3, #0, #19
 8002ff4:	2b00      	cmp	r3, #0
 8002ff6:	d109      	bne.n	800300c <HAL_ADC_ConfigChannel+0x520>
 8002ff8:	683b      	ldr	r3, [r7, #0]
 8002ffa:	681b      	ldr	r3, [r3, #0]
 8002ffc:	0e9b      	lsrs	r3, r3, #26
 8002ffe:	3301      	adds	r3, #1
 8003000:	f003 031f 	and.w	r3, r3, #31
 8003004:	2101      	movs	r1, #1
 8003006:	fa01 f303 	lsl.w	r3, r1, r3
 800300a:	e017      	b.n	800303c <HAL_ADC_ConfigChannel+0x550>
 800300c:	683b      	ldr	r3, [r7, #0]
 800300e:	681b      	ldr	r3, [r3, #0]
 8003010:	647b      	str	r3, [r7, #68]	@ 0x44
 8003012:	6c7b      	ldr	r3, [r7, #68]	@ 0x44
 8003014:	fa93 f3a3 	rbit	r3, r3
 8003018:	643b      	str	r3, [r7, #64]	@ 0x40
 800301a:	6c3b      	ldr	r3, [r7, #64]	@ 0x40
 800301c:	64bb      	str	r3, [r7, #72]	@ 0x48
 800301e:	6cbb      	ldr	r3, [r7, #72]	@ 0x48
 8003020:	2b00      	cmp	r3, #0
 8003022:	d101      	bne.n	8003028 <HAL_ADC_ConfigChannel+0x53c>
 8003024:	2320      	movs	r3, #32
 8003026:	e003      	b.n	8003030 <HAL_ADC_ConfigChannel+0x544>
 8003028:	6cbb      	ldr	r3, [r7, #72]	@ 0x48
 800302a:	fab3 f383 	clz	r3, r3
 800302e:	b2db      	uxtb	r3, r3
 8003030:	3301      	adds	r3, #1
 8003032:	f003 031f 	and.w	r3, r3, #31
 8003036:	2101      	movs	r1, #1
 8003038:	fa01 f303 	lsl.w	r3, r1, r3
 800303c:	ea42 0103 	orr.w	r1, r2, r3
 8003040:	683b      	ldr	r3, [r7, #0]
 8003042:	681b      	ldr	r3, [r3, #0]
 8003044:	f3c3 0312 	ubfx	r3, r3, #0, #19
 8003048:	2b00      	cmp	r3, #0
 800304a:	d10a      	bne.n	8003062 <HAL_ADC_ConfigChannel+0x576>
 800304c:	683b      	ldr	r3, [r7, #0]
 800304e:	681b      	ldr	r3, [r3, #0]
 8003050:	0e9b      	lsrs	r3, r3, #26
 8003052:	3301      	adds	r3, #1
 8003054:	f003 021f 	and.w	r2, r3, #31
 8003058:	4613      	mov	r3, r2
 800305a:	005b      	lsls	r3, r3, #1
 800305c:	4413      	add	r3, r2
 800305e:	051b      	lsls	r3, r3, #20
 8003060:	e018      	b.n	8003094 <HAL_ADC_ConfigChannel+0x5a8>
 8003062:	683b      	ldr	r3, [r7, #0]
 8003064:	681b      	ldr	r3, [r3, #0]
 8003066:	63bb      	str	r3, [r7, #56]	@ 0x38
 8003068:	6bbb      	ldr	r3, [r7, #56]	@ 0x38
 800306a:	fa93 f3a3 	rbit	r3, r3
 800306e:	637b      	str	r3, [r7, #52]	@ 0x34
 8003070:	6b7b      	ldr	r3, [r7, #52]	@ 0x34
 8003072:	63fb      	str	r3, [r7, #60]	@ 0x3c
 8003074:	6bfb      	ldr	r3, [r7, #60]	@ 0x3c
 8003076:	2b00      	cmp	r3, #0
 8003078:	d101      	bne.n	800307e <HAL_ADC_ConfigChannel+0x592>
 800307a:	2320      	movs	r3, #32
 800307c:	e003      	b.n	8003086 <HAL_ADC_ConfigChannel+0x59a>
 800307e:	6bfb      	ldr	r3, [r7, #60]	@ 0x3c
 8003080:	fab3 f383 	clz	r3, r3
 8003084:	b2db      	uxtb	r3, r3
 8003086:	3301      	adds	r3, #1
 8003088:	f003 021f 	and.w	r2, r3, #31
 800308c:	4613      	mov	r3, r2
 800308e:	005b      	lsls	r3, r3, #1
 8003090:	4413      	add	r3, r2
 8003092:	051b      	lsls	r3, r3, #20
 8003094:	430b      	orrs	r3, r1
 8003096:	e07e      	b.n	8003196 <HAL_ADC_ConfigChannel+0x6aa>
 8003098:	683b      	ldr	r3, [r7, #0]
 800309a:	681b      	ldr	r3, [r3, #0]
 800309c:	f3c3 0312 	ubfx	r3, r3, #0, #19
 80030a0:	2b00      	cmp	r3, #0
 80030a2:	d107      	bne.n	80030b4 <HAL_ADC_ConfigChannel+0x5c8>
 80030a4:	683b      	ldr	r3, [r7, #0]
 80030a6:	681b      	ldr	r3, [r3, #0]
 80030a8:	0e9b      	lsrs	r3, r3, #26
 80030aa:	3301      	adds	r3, #1
 80030ac:	069b      	lsls	r3, r3, #26
 80030ae:	f003 42f8 	and.w	r2, r3, #2080374784	@ 0x7c000000
 80030b2:	e015      	b.n	80030e0 <HAL_ADC_ConfigChannel+0x5f4>
 80030b4:	683b      	ldr	r3, [r7, #0]
 80030b6:	681b      	ldr	r3, [r3, #0]
 80030b8:	62fb      	str	r3, [r7, #44]	@ 0x2c
 80030ba:	6afb      	ldr	r3, [r7, #44]	@ 0x2c
 80030bc:	fa93 f3a3 	rbit	r3, r3
 80030c0:	62bb      	str	r3, [r7, #40]	@ 0x28
 80030c2:	6abb      	ldr	r3, [r7, #40]	@ 0x28
 80030c4:	633b      	str	r3, [r7, #48]	@ 0x30
 80030c6:	6b3b      	ldr	r3, [r7, #48]	@ 0x30
 80030c8:	2b00      	cmp	r3, #0
 80030ca:	d101      	bne.n	80030d0 <HAL_ADC_ConfigChannel+0x5e4>
 80030cc:	2320      	movs	r3, #32
 80030ce:	e003      	b.n	80030d8 <HAL_ADC_ConfigChannel+0x5ec>
 80030d0:	6b3b      	ldr	r3, [r7, #48]	@ 0x30
 80030d2:	fab3 f383 	clz	r3, r3
 80030d6:	b2db      	uxtb	r3, r3
 80030d8:	3301      	adds	r3, #1
 80030da:	069b      	lsls	r3, r3, #26
 80030dc:	f003 42f8 	and.w	r2, r3, #2080374784	@ 0x7c000000
 80030e0:	683b      	ldr	r3, [r7, #0]
 80030e2:	681b      	ldr	r3, [r3, #0]
 80030e4:	f3c3 0312 	ubfx	r3, r3, #0, #19
 80030e8:	2b00      	cmp	r3, #0
 80030ea:	d109      	bne.n	8003100 <HAL_ADC_ConfigChannel+0x614>
 80030ec:	683b      	ldr	r3, [r7, #0]
 80030ee:	681b      	ldr	r3, [r3, #0]
 80030f0:	0e9b      	lsrs	r3, r3, #26
 80030f2:	3301      	adds	r3, #1
 80030f4:	f003 031f 	and.w	r3, r3, #31
 80030f8:	2101      	movs	r1, #1
 80030fa:	fa01 f303 	lsl.w	r3, r1, r3
 80030fe:	e017      	b.n	8003130 <HAL_ADC_ConfigChannel+0x644>
 8003100:	683b      	ldr	r3, [r7, #0]
 8003102:	681b      	ldr	r3, [r3, #0]
 8003104:	623b      	str	r3, [r7, #32]
 8003106:	6a3b      	ldr	r3, [r7, #32]
 8003108:	fa93 f3a3 	rbit	r3, r3
 800310c:	61fb      	str	r3, [r7, #28]
 800310e:	69fb      	ldr	r3, [r7, #28]
 8003110:	627b      	str	r3, [r7, #36]	@ 0x24
 8003112:	6a7b      	ldr	r3, [r7, #36]	@ 0x24
 8003114:	2b00      	cmp	r3, #0
 8003116:	d101      	bne.n	800311c <HAL_ADC_ConfigChannel+0x630>
 8003118:	2320      	movs	r3, #32
 800311a:	e003      	b.n	8003124 <HAL_ADC_ConfigChannel+0x638>
 800311c:	6a7b      	ldr	r3, [r7, #36]	@ 0x24
 800311e:	fab3 f383 	clz	r3, r3
 8003122:	b2db      	uxtb	r3, r3
 8003124:	3301      	adds	r3, #1
 8003126:	f003 031f 	and.w	r3, r3, #31
 800312a:	2101      	movs	r1, #1
 800312c:	fa01 f303 	lsl.w	r3, r1, r3
 8003130:	ea42 0103 	orr.w	r1, r2, r3
 8003134:	683b      	ldr	r3, [r7, #0]
 8003136:	681b      	ldr	r3, [r3, #0]
 8003138:	f3c3 0312 	ubfx	r3, r3, #0, #19
 800313c:	2b00      	cmp	r3, #0
 800313e:	d10d      	bne.n	800315c <HAL_ADC_ConfigChannel+0x670>
 8003140:	683b      	ldr	r3, [r7, #0]
 8003142:	681b      	ldr	r3, [r3, #0]
 8003144:	0e9b      	lsrs	r3, r3, #26
 8003146:	3301      	adds	r3, #1
 8003148:	f003 021f 	and.w	r2, r3, #31
 800314c:	4613      	mov	r3, r2
 800314e:	005b      	lsls	r3, r3, #1
 8003150:	4413      	add	r3, r2
 8003152:	3b1e      	subs	r3, #30
 8003154:	051b      	lsls	r3, r3, #20
 8003156:	f043 7300 	orr.w	r3, r3, #33554432	@ 0x2000000
 800315a:	e01b      	b.n	8003194 <HAL_ADC_ConfigChannel+0x6a8>
 800315c:	683b      	ldr	r3, [r7, #0]
 800315e:	681b      	ldr	r3, [r3, #0]
 8003160:	617b      	str	r3, [r7, #20]
 8003162:	697b      	ldr	r3, [r7, #20]
 8003164:	fa93 f3a3 	rbit	r3, r3
 8003168:	613b      	str	r3, [r7, #16]
 800316a:	693b      	ldr	r3, [r7, #16]
 800316c:	61bb      	str	r3, [r7, #24]
 800316e:	69bb      	ldr	r3, [r7, #24]
 8003170:	2b00      	cmp	r3, #0
 8003172:	d101      	bne.n	8003178 <HAL_ADC_ConfigChannel+0x68c>
 8003174:	2320      	movs	r3, #32
 8003176:	e003      	b.n	8003180 <HAL_ADC_ConfigChannel+0x694>
 8003178:	69bb      	ldr	r3, [r7, #24]
 800317a:	fab3 f383 	clz	r3, r3
 800317e:	b2db      	uxtb	r3, r3
 8003180:	3301      	adds	r3, #1
 8003182:	f003 021f 	and.w	r2, r3, #31
 8003186:	4613      	mov	r3, r2
 8003188:	005b      	lsls	r3, r3, #1
 800318a:	4413      	add	r3, r2
 800318c:	3b1e      	subs	r3, #30
 800318e:	051b      	lsls	r3, r3, #20
 8003190:	f043 7300 	orr.w	r3, r3, #33554432	@ 0x2000000
 8003194:	430b      	orrs	r3, r1
 8003196:	683a      	ldr	r2, [r7, #0]
 8003198:	6892      	ldr	r2, [r2, #8]
 800319a:	4619      	mov	r1, r3
 800319c:	f7ff fa12 	bl	80025c4 <LL_ADC_SetChannelSamplingTime>
 80031a0:	683b      	ldr	r3, [r7, #0]
 80031a2:	681a      	ldr	r2, [r3, #0]
 80031a4:	4b09      	ldr	r3, [pc, #36]	@ (80031cc <HAL_ADC_ConfigChannel+0x6e0>)
 80031a6:	4013      	ands	r3, r2
 80031a8:	2b00      	cmp	r3, #0
 80031aa:	f000 80be 	beq.w	800332a <HAL_ADC_ConfigChannel+0x83e>
 80031ae:	687b      	ldr	r3, [r7, #4]
 80031b0:	681b      	ldr	r3, [r3, #0]
 80031b2:	f1b3 4fa0 	cmp.w	r3, #1342177280	@ 0x50000000
 80031b6:	d004      	beq.n	80031c2 <HAL_ADC_ConfigChannel+0x6d6>
 80031b8:	687b      	ldr	r3, [r7, #4]
 80031ba:	681b      	ldr	r3, [r3, #0]
 80031bc:	4a04      	ldr	r2, [pc, #16]	@ (80031d0 <HAL_ADC_ConfigChannel+0x6e4>)
 80031be:	4293      	cmp	r3, r2
 80031c0:	d10a      	bne.n	80031d8 <HAL_ADC_ConfigChannel+0x6ec>
 80031c2:	4b04      	ldr	r3, [pc, #16]	@ (80031d4 <HAL_ADC_ConfigChannel+0x6e8>)
 80031c4:	e009      	b.n	80031da <HAL_ADC_ConfigChannel+0x6ee>
 80031c6:	bf00      	nop
 80031c8:	407f0000 	.word	0x407f0000
 80031cc:	80080000 	.word	0x80080000
 80031d0:	50000100 	.word	0x50000100
 80031d4:	50000300 	.word	0x50000300
 80031d8:	4b59      	ldr	r3, [pc, #356]	@ (8003340 <HAL_ADC_ConfigChannel+0x854>)
 80031da:	4618      	mov	r0, r3
 80031dc:	f7ff f91a 	bl	8002414 <LL_ADC_GetCommonPathInternalCh>
 80031e0:	f8c7 00c4 	str.w	r0, [r7, #196]	@ 0xc4
 80031e4:	683b      	ldr	r3, [r7, #0]
 80031e6:	681b      	ldr	r3, [r3, #0]
 80031e8:	4a56      	ldr	r2, [pc, #344]	@ (8003344 <HAL_ADC_ConfigChannel+0x858>)
 80031ea:	4293      	cmp	r3, r2
 80031ec:	d004      	beq.n	80031f8 <HAL_ADC_ConfigChannel+0x70c>
 80031ee:	683b      	ldr	r3, [r7, #0]
 80031f0:	681b      	ldr	r3, [r3, #0]
 80031f2:	4a55      	ldr	r2, [pc, #340]	@ (8003348 <HAL_ADC_ConfigChannel+0x85c>)
 80031f4:	4293      	cmp	r3, r2
 80031f6:	d13a      	bne.n	800326e <HAL_ADC_ConfigChannel+0x782>
 80031f8:	f8d7 30c4 	ldr.w	r3, [r7, #196]	@ 0xc4
 80031fc:	f403 0300 	and.w	r3, r3, #8388608	@ 0x800000
 8003200:	2b00      	cmp	r3, #0
 8003202:	d134      	bne.n	800326e <HAL_ADC_ConfigChannel+0x782>
 8003204:	687b      	ldr	r3, [r7, #4]
 8003206:	681b      	ldr	r3, [r3, #0]
 8003208:	f1b3 4fa0 	cmp.w	r3, #1342177280	@ 0x50000000
 800320c:	d005      	beq.n	800321a <HAL_ADC_ConfigChannel+0x72e>
 800320e:	687b      	ldr	r3, [r7, #4]
 8003210:	681b      	ldr	r3, [r3, #0]
 8003212:	4a4e      	ldr	r2, [pc, #312]	@ (800334c <HAL_ADC_ConfigChannel+0x860>)
 8003214:	4293      	cmp	r3, r2
 8003216:	f040 8085 	bne.w	8003324 <HAL_ADC_ConfigChannel+0x838>
 800321a:	687b      	ldr	r3, [r7, #4]
 800321c:	681b      	ldr	r3, [r3, #0]
 800321e:	f1b3 4fa0 	cmp.w	r3, #1342177280	@ 0x50000000
 8003222:	d004      	beq.n	800322e <HAL_ADC_ConfigChannel+0x742>
 8003224:	687b      	ldr	r3, [r7, #4]
 8003226:	681b      	ldr	r3, [r3, #0]
 8003228:	4a49      	ldr	r2, [pc, #292]	@ (8003350 <HAL_ADC_ConfigChannel+0x864>)
 800322a:	4293      	cmp	r3, r2
 800322c:	d101      	bne.n	8003232 <HAL_ADC_ConfigChannel+0x746>
 800322e:	4a49      	ldr	r2, [pc, #292]	@ (8003354 <HAL_ADC_ConfigChannel+0x868>)
 8003230:	e000      	b.n	8003234 <HAL_ADC_ConfigChannel+0x748>
 8003232:	4a43      	ldr	r2, [pc, #268]	@ (8003340 <HAL_ADC_ConfigChannel+0x854>)
 8003234:	f8d7 30c4 	ldr.w	r3, [r7, #196]	@ 0xc4
 8003238:	f443 0300 	orr.w	r3, r3, #8388608	@ 0x800000
 800323c:	4619      	mov	r1, r3
 800323e:	4610      	mov	r0, r2
 8003240:	f7ff f8d5 	bl	80023ee <LL_ADC_SetCommonPathInternalCh>
 8003244:	4b44      	ldr	r3, [pc, #272]	@ (8003358 <HAL_ADC_ConfigChannel+0x86c>)
 8003246:	681b      	ldr	r3, [r3, #0]
 8003248:	099b      	lsrs	r3, r3, #6
 800324a:	4a44      	ldr	r2, [pc, #272]	@ (800335c <HAL_ADC_ConfigChannel+0x870>)
 800324c:	fba2 2303 	umull	r2, r3, r2, r3
 8003250:	099b      	lsrs	r3, r3, #6
 8003252:	1c5a      	adds	r2, r3, #1
 8003254:	4613      	mov	r3, r2
 8003256:	005b      	lsls	r3, r3, #1
 8003258:	4413      	add	r3, r2
 800325a:	009b      	lsls	r3, r3, #2
 800325c:	60fb      	str	r3, [r7, #12]
 800325e:	e002      	b.n	8003266 <HAL_ADC_ConfigChannel+0x77a>
 8003260:	68fb      	ldr	r3, [r7, #12]
 8003262:	3b01      	subs	r3, #1
 8003264:	60fb      	str	r3, [r7, #12]
 8003266:	68fb      	ldr	r3, [r7, #12]
 8003268:	2b00      	cmp	r3, #0
 800326a:	d1f9      	bne.n	8003260 <HAL_ADC_ConfigChannel+0x774>
 800326c:	e05a      	b.n	8003324 <HAL_ADC_ConfigChannel+0x838>
 800326e:	683b      	ldr	r3, [r7, #0]
 8003270:	681b      	ldr	r3, [r3, #0]
 8003272:	4a3b      	ldr	r2, [pc, #236]	@ (8003360 <HAL_ADC_ConfigChannel+0x874>)
 8003274:	4293      	cmp	r3, r2
 8003276:	d125      	bne.n	80032c4 <HAL_ADC_ConfigChannel+0x7d8>
 8003278:	f8d7 30c4 	ldr.w	r3, [r7, #196]	@ 0xc4
 800327c:	f003 7380 	and.w	r3, r3, #16777216	@ 0x1000000
 8003280:	2b00      	cmp	r3, #0
 8003282:	d11f      	bne.n	80032c4 <HAL_ADC_ConfigChannel+0x7d8>
 8003284:	687b      	ldr	r3, [r7, #4]
 8003286:	681b      	ldr	r3, [r3, #0]
 8003288:	4a31      	ldr	r2, [pc, #196]	@ (8003350 <HAL_ADC_ConfigChannel+0x864>)
 800328a:	4293      	cmp	r3, r2
 800328c:	d104      	bne.n	8003298 <HAL_ADC_ConfigChannel+0x7ac>
 800328e:	687b      	ldr	r3, [r7, #4]
 8003290:	681b      	ldr	r3, [r3, #0]
 8003292:	4a34      	ldr	r2, [pc, #208]	@ (8003364 <HAL_ADC_ConfigChannel+0x878>)
 8003294:	4293      	cmp	r3, r2
 8003296:	d047      	beq.n	8003328 <HAL_ADC_ConfigChannel+0x83c>
 8003298:	687b      	ldr	r3, [r7, #4]
 800329a:	681b      	ldr	r3, [r3, #0]
 800329c:	f1b3 4fa0 	cmp.w	r3, #1342177280	@ 0x50000000
 80032a0:	d004      	beq.n	80032ac <HAL_ADC_ConfigChannel+0x7c0>
 80032a2:	687b      	ldr	r3, [r7, #4]
 80032a4:	681b      	ldr	r3, [r3, #0]
 80032a6:	4a2a      	ldr	r2, [pc, #168]	@ (8003350 <HAL_ADC_ConfigChannel+0x864>)
 80032a8:	4293      	cmp	r3, r2
 80032aa:	d101      	bne.n	80032b0 <HAL_ADC_ConfigChannel+0x7c4>
 80032ac:	4a29      	ldr	r2, [pc, #164]	@ (8003354 <HAL_ADC_ConfigChannel+0x868>)
 80032ae:	e000      	b.n	80032b2 <HAL_ADC_ConfigChannel+0x7c6>
 80032b0:	4a23      	ldr	r2, [pc, #140]	@ (8003340 <HAL_ADC_ConfigChannel+0x854>)
 80032b2:	f8d7 30c4 	ldr.w	r3, [r7, #196]	@ 0xc4
 80032b6:	f043 7380 	orr.w	r3, r3, #16777216	@ 0x1000000
 80032ba:	4619      	mov	r1, r3
 80032bc:	4610      	mov	r0, r2
 80032be:	f7ff f896 	bl	80023ee <LL_ADC_SetCommonPathInternalCh>
 80032c2:	e031      	b.n	8003328 <HAL_ADC_ConfigChannel+0x83c>
 80032c4:	683b      	ldr	r3, [r7, #0]
 80032c6:	681b      	ldr	r3, [r3, #0]
 80032c8:	4a27      	ldr	r2, [pc, #156]	@ (8003368 <HAL_ADC_ConfigChannel+0x87c>)
 80032ca:	4293      	cmp	r3, r2
 80032cc:	d12d      	bne.n	800332a <HAL_ADC_ConfigChannel+0x83e>
 80032ce:	f8d7 30c4 	ldr.w	r3, [r7, #196]	@ 0xc4
 80032d2:	f403 0380 	and.w	r3, r3, #4194304	@ 0x400000
 80032d6:	2b00      	cmp	r3, #0
 80032d8:	d127      	bne.n	800332a <HAL_ADC_ConfigChannel+0x83e>
 80032da:	687b      	ldr	r3, [r7, #4]
 80032dc:	681b      	ldr	r3, [r3, #0]
 80032de:	4a1c      	ldr	r2, [pc, #112]	@ (8003350 <HAL_ADC_ConfigChannel+0x864>)
 80032e0:	4293      	cmp	r3, r2
 80032e2:	d022      	beq.n	800332a <HAL_ADC_ConfigChannel+0x83e>
 80032e4:	687b      	ldr	r3, [r7, #4]
 80032e6:	681b      	ldr	r3, [r3, #0]
 80032e8:	f1b3 4fa0 	cmp.w	r3, #1342177280	@ 0x50000000
 80032ec:	d004      	beq.n	80032f8 <HAL_ADC_ConfigChannel+0x80c>
 80032ee:	687b      	ldr	r3, [r7, #4]
 80032f0:	681b      	ldr	r3, [r3, #0]
 80032f2:	4a17      	ldr	r2, [pc, #92]	@ (8003350 <HAL_ADC_ConfigChannel+0x864>)
 80032f4:	4293      	cmp	r3, r2
 80032f6:	d101      	bne.n	80032fc <HAL_ADC_ConfigChannel+0x810>
 80032f8:	4a16      	ldr	r2, [pc, #88]	@ (8003354 <HAL_ADC_ConfigChannel+0x868>)
 80032fa:	e000      	b.n	80032fe <HAL_ADC_ConfigChannel+0x812>
 80032fc:	4a10      	ldr	r2, [pc, #64]	@ (8003340 <HAL_ADC_ConfigChannel+0x854>)
 80032fe:	f8d7 30c4 	ldr.w	r3, [r7, #196]	@ 0xc4
 8003302:	f443 0380 	orr.w	r3, r3, #4194304	@ 0x400000
 8003306:	4619      	mov	r1, r3
 8003308:	4610      	mov	r0, r2
 800330a:	f7ff f870 	bl	80023ee <LL_ADC_SetCommonPathInternalCh>
 800330e:	e00c      	b.n	800332a <HAL_ADC_ConfigChannel+0x83e>
 8003310:	687b      	ldr	r3, [r7, #4]
 8003312:	6ddb      	ldr	r3, [r3, #92]	@ 0x5c
 8003314:	f043 0220 	orr.w	r2, r3, #32
 8003318:	687b      	ldr	r3, [r7, #4]
 800331a:	65da      	str	r2, [r3, #92]	@ 0x5c
 800331c:	2301      	movs	r3, #1
 800331e:	f887 30d7 	strb.w	r3, [r7, #215]	@ 0xd7
 8003322:	e002      	b.n	800332a <HAL_ADC_ConfigChannel+0x83e>
 8003324:	bf00      	nop
 8003326:	e000      	b.n	800332a <HAL_ADC_ConfigChannel+0x83e>
 8003328:	bf00      	nop
 800332a:	687b      	ldr	r3, [r7, #4]
 800332c:	2200      	movs	r2, #0
 800332e:	f883 2058 	strb.w	r2, [r3, #88]	@ 0x58
 8003332:	f897 30d7 	ldrb.w	r3, [r7, #215]	@ 0xd7
 8003336:	4618      	mov	r0, r3
 8003338:	37d8      	adds	r7, #216	@ 0xd8
 800333a:	46bd      	mov	sp, r7
 800333c:	bd80      	pop	{r7, pc}
 800333e:	bf00      	nop
 8003340:	50000700 	.word	0x50000700
 8003344:	c3210000 	.word	0xc3210000
 8003348:	90c00010 	.word	0x90c00010
 800334c:	50000600 	.word	0x50000600
 8003350:	50000100 	.word	0x50000100
 8003354:	50000300 	.word	0x50000300
 8003358:	20000208 	.word	0x20000208
 800335c:	053e2d63 	.word	0x053e2d63
 8003360:	c7520000 	.word	0xc7520000
 8003364:	50000500 	.word	0x50000500
 8003368:	cb840000 	.word	0xcb840000

0800336c <LL_ADC_IsEnabled>:
 800336c:	b480      	push	{r7}
 800336e:	b083      	sub	sp, #12
 8003370:	af00      	add	r7, sp, #0
 8003372:	6078      	str	r0, [r7, #4]
 8003374:	687b      	ldr	r3, [r7, #4]
 8003376:	689b      	ldr	r3, [r3, #8]
 8003378:	f003 0301 	and.w	r3, r3, #1
 800337c:	2b01      	cmp	r3, #1
 800337e:	d101      	bne.n	8003384 <LL_ADC_IsEnabled+0x18>
 8003380:	2301      	movs	r3, #1
 8003382:	e000      	b.n	8003386 <LL_ADC_IsEnabled+0x1a>
 8003384:	2300      	movs	r3, #0
 8003386:	4618      	mov	r0, r3
 8003388:	370c      	adds	r7, #12
 800338a:	46bd      	mov	sp, r7
 800338c:	f85d 7b04 	ldr.w	r7, [sp], #4
 8003390:	4770      	bx	lr

08003392 <LL_ADC_REG_IsConversionOngoing>:
 8003392:	b480      	push	{r7}
 8003394:	b083      	sub	sp, #12
 8003396:	af00      	add	r7, sp, #0
 8003398:	6078      	str	r0, [r7, #4]
 800339a:	687b      	ldr	r3, [r7, #4]
 800339c:	689b      	ldr	r3, [r3, #8]
 800339e:	f003 0304 	and.w	r3, r3, #4
 80033a2:	2b04      	cmp	r3, #4
 80033a4:	d101      	bne.n	80033aa <LL_ADC_REG_IsConversionOngoing+0x18>
 80033a6:	2301      	movs	r3, #1
 80033a8:	e000      	b.n	80033ac <LL_ADC_REG_IsConversionOngoing+0x1a>
 80033aa:	2300      	movs	r3, #0
 80033ac:	4618      	mov	r0, r3
 80033ae:	370c      	adds	r7, #12
 80033b0:	46bd      	mov	sp, r7
 80033b2:	f85d 7b04 	ldr.w	r7, [sp], #4
 80033b6:	4770      	bx	lr

080033b8 <HAL_ADCEx_MultiModeConfigChannel>:
 80033b8:	b590      	push	{r4, r7, lr}
 80033ba:	b0a1      	sub	sp, #132	@ 0x84
 80033bc:	af00      	add	r7, sp, #0
 80033be:	6078      	str	r0, [r7, #4]
 80033c0:	6039      	str	r1, [r7, #0]
 80033c2:	2300      	movs	r3, #0
 80033c4:	f887 307f 	strb.w	r3, [r7, #127]	@ 0x7f
 80033c8:	687b      	ldr	r3, [r7, #4]
 80033ca:	f893 3058 	ldrb.w	r3, [r3, #88]	@ 0x58
 80033ce:	2b01      	cmp	r3, #1
 80033d0:	d101      	bne.n	80033d6 <HAL_ADCEx_MultiModeConfigChannel+0x1e>
 80033d2:	2302      	movs	r3, #2
 80033d4:	e0e7      	b.n	80035a6 <HAL_ADCEx_MultiModeConfigChannel+0x1ee>
 80033d6:	687b      	ldr	r3, [r7, #4]
 80033d8:	2201      	movs	r2, #1
 80033da:	f883 2058 	strb.w	r2, [r3, #88]	@ 0x58
 80033de:	2300      	movs	r3, #0
 80033e0:	667b      	str	r3, [r7, #100]	@ 0x64
 80033e2:	2300      	movs	r3, #0
 80033e4:	66bb      	str	r3, [r7, #104]	@ 0x68
 80033e6:	687b      	ldr	r3, [r7, #4]
 80033e8:	681b      	ldr	r3, [r3, #0]
 80033ea:	f1b3 4fa0 	cmp.w	r3, #1342177280	@ 0x50000000
 80033ee:	d102      	bne.n	80033f6 <HAL_ADCEx_MultiModeConfigChannel+0x3e>
 80033f0:	4b6f      	ldr	r3, [pc, #444]	@ (80035b0 <HAL_ADCEx_MultiModeConfigChannel+0x1f8>)
 80033f2:	60bb      	str	r3, [r7, #8]
 80033f4:	e009      	b.n	800340a <HAL_ADCEx_MultiModeConfigChannel+0x52>
 80033f6:	687b      	ldr	r3, [r7, #4]
 80033f8:	681b      	ldr	r3, [r3, #0]
 80033fa:	4a6e      	ldr	r2, [pc, #440]	@ (80035b4 <HAL_ADCEx_MultiModeConfigChannel+0x1fc>)
 80033fc:	4293      	cmp	r3, r2
 80033fe:	d102      	bne.n	8003406 <HAL_ADCEx_MultiModeConfigChannel+0x4e>
 8003400:	4b6d      	ldr	r3, [pc, #436]	@ (80035b8 <HAL_ADCEx_MultiModeConfigChannel+0x200>)
 8003402:	60bb      	str	r3, [r7, #8]
 8003404:	e001      	b.n	800340a <HAL_ADCEx_MultiModeConfigChannel+0x52>
 8003406:	2300      	movs	r3, #0
 8003408:	60bb      	str	r3, [r7, #8]
 800340a:	68bb      	ldr	r3, [r7, #8]
 800340c:	2b00      	cmp	r3, #0
 800340e:	d10b      	bne.n	8003428 <HAL_ADCEx_MultiModeConfigChannel+0x70>
 8003410:	687b      	ldr	r3, [r7, #4]
 8003412:	6ddb      	ldr	r3, [r3, #92]	@ 0x5c
 8003414:	f043 0220 	orr.w	r2, r3, #32
 8003418:	687b      	ldr	r3, [r7, #4]
 800341a:	65da      	str	r2, [r3, #92]	@ 0x5c
 800341c:	687b      	ldr	r3, [r7, #4]
 800341e:	2200      	movs	r2, #0
 8003420:	f883 2058 	strb.w	r2, [r3, #88]	@ 0x58
 8003424:	2301      	movs	r3, #1
 8003426:	e0be      	b.n	80035a6 <HAL_ADCEx_MultiModeConfigChannel+0x1ee>
 8003428:	68bb      	ldr	r3, [r7, #8]
 800342a:	4618      	mov	r0, r3
 800342c:	f7ff ffb1 	bl	8003392 <LL_ADC_REG_IsConversionOngoing>
 8003430:	67b8      	str	r0, [r7, #120]	@ 0x78
 8003432:	687b      	ldr	r3, [r7, #4]
 8003434:	681b      	ldr	r3, [r3, #0]
 8003436:	4618      	mov	r0, r3
 8003438:	f7ff ffab 	bl	8003392 <LL_ADC_REG_IsConversionOngoing>
 800343c:	4603      	mov	r3, r0
 800343e:	2b00      	cmp	r3, #0
 8003440:	f040 80a0 	bne.w	8003584 <HAL_ADCEx_MultiModeConfigChannel+0x1cc>
 8003444:	6fbb      	ldr	r3, [r7, #120]	@ 0x78
 8003446:	2b00      	cmp	r3, #0
 8003448:	f040 809c 	bne.w	8003584 <HAL_ADCEx_MultiModeConfigChannel+0x1cc>
 800344c:	687b      	ldr	r3, [r7, #4]
 800344e:	681b      	ldr	r3, [r3, #0]
 8003450:	f1b3 4fa0 	cmp.w	r3, #1342177280	@ 0x50000000
 8003454:	d004      	beq.n	8003460 <HAL_ADCEx_MultiModeConfigChannel+0xa8>
 8003456:	687b      	ldr	r3, [r7, #4]
 8003458:	681b      	ldr	r3, [r3, #0]
 800345a:	4a55      	ldr	r2, [pc, #340]	@ (80035b0 <HAL_ADCEx_MultiModeConfigChannel+0x1f8>)
 800345c:	4293      	cmp	r3, r2
 800345e:	d101      	bne.n	8003464 <HAL_ADCEx_MultiModeConfigChannel+0xac>
 8003460:	4b56      	ldr	r3, [pc, #344]	@ (80035bc <HAL_ADCEx_MultiModeConfigChannel+0x204>)
 8003462:	e000      	b.n	8003466 <HAL_ADCEx_MultiModeConfigChannel+0xae>
 8003464:	4b56      	ldr	r3, [pc, #344]	@ (80035c0 <HAL_ADCEx_MultiModeConfigChannel+0x208>)
 8003466:	677b      	str	r3, [r7, #116]	@ 0x74
 8003468:	683b      	ldr	r3, [r7, #0]
 800346a:	681b      	ldr	r3, [r3, #0]
 800346c:	2b00      	cmp	r3, #0
 800346e:	d04b      	beq.n	8003508 <HAL_ADCEx_MultiModeConfigChannel+0x150>
 8003470:	6f7b      	ldr	r3, [r7, #116]	@ 0x74
 8003472:	689b      	ldr	r3, [r3, #8]
 8003474:	f423 4260 	bic.w	r2, r3, #57344	@ 0xe000
 8003478:	683b      	ldr	r3, [r7, #0]
 800347a:	6859      	ldr	r1, [r3, #4]
 800347c:	687b      	ldr	r3, [r7, #4]
 800347e:	f893 3038 	ldrb.w	r3, [r3, #56]	@ 0x38
 8003482:	035b      	lsls	r3, r3, #13
 8003484:	430b      	orrs	r3, r1
 8003486:	431a      	orrs	r2, r3
 8003488:	6f7b      	ldr	r3, [r7, #116]	@ 0x74
 800348a:	609a      	str	r2, [r3, #8]
 800348c:	687b      	ldr	r3, [r7, #4]
 800348e:	681b      	ldr	r3, [r3, #0]
 8003490:	f1b3 4fa0 	cmp.w	r3, #1342177280	@ 0x50000000
 8003494:	d004      	beq.n	80034a0 <HAL_ADCEx_MultiModeConfigChannel+0xe8>
 8003496:	687b      	ldr	r3, [r7, #4]
 8003498:	681b      	ldr	r3, [r3, #0]
 800349a:	4a45      	ldr	r2, [pc, #276]	@ (80035b0 <HAL_ADCEx_MultiModeConfigChannel+0x1f8>)
 800349c:	4293      	cmp	r3, r2
 800349e:	d10f      	bne.n	80034c0 <HAL_ADCEx_MultiModeConfigChannel+0x108>
 80034a0:	f04f 40a0 	mov.w	r0, #1342177280	@ 0x50000000
 80034a4:	f7ff ff62 	bl	800336c <LL_ADC_IsEnabled>
 80034a8:	4604      	mov	r4, r0
 80034aa:	4841      	ldr	r0, [pc, #260]	@ (80035b0 <HAL_ADCEx_MultiModeConfigChannel+0x1f8>)
 80034ac:	f7ff ff5e 	bl	800336c <LL_ADC_IsEnabled>
 80034b0:	4603      	mov	r3, r0
 80034b2:	4323      	orrs	r3, r4
 80034b4:	2b00      	cmp	r3, #0
 80034b6:	bf0c      	ite	eq
 80034b8:	2301      	moveq	r3, #1
 80034ba:	2300      	movne	r3, #0
 80034bc:	b2db      	uxtb	r3, r3
 80034be:	e012      	b.n	80034e6 <HAL_ADCEx_MultiModeConfigChannel+0x12e>
 80034c0:	483c      	ldr	r0, [pc, #240]	@ (80035b4 <HAL_ADCEx_MultiModeConfigChannel+0x1fc>)
 80034c2:	f7ff ff53 	bl	800336c <LL_ADC_IsEnabled>
 80034c6:	4604      	mov	r4, r0
 80034c8:	483b      	ldr	r0, [pc, #236]	@ (80035b8 <HAL_ADCEx_MultiModeConfigChannel+0x200>)
 80034ca:	f7ff ff4f 	bl	800336c <LL_ADC_IsEnabled>
 80034ce:	4603      	mov	r3, r0
 80034d0:	431c      	orrs	r4, r3
 80034d2:	483c      	ldr	r0, [pc, #240]	@ (80035c4 <HAL_ADCEx_MultiModeConfigChannel+0x20c>)
 80034d4:	f7ff ff4a 	bl	800336c <LL_ADC_IsEnabled>
 80034d8:	4603      	mov	r3, r0
 80034da:	4323      	orrs	r3, r4
 80034dc:	2b00      	cmp	r3, #0
 80034de:	bf0c      	ite	eq
 80034e0:	2301      	moveq	r3, #1
 80034e2:	2300      	movne	r3, #0
 80034e4:	b2db      	uxtb	r3, r3
 80034e6:	2b00      	cmp	r3, #0
 80034e8:	d056      	beq.n	8003598 <HAL_ADCEx_MultiModeConfigChannel+0x1e0>
 80034ea:	6f7b      	ldr	r3, [r7, #116]	@ 0x74
 80034ec:	689b      	ldr	r3, [r3, #8]
 80034ee:	f423 6371 	bic.w	r3, r3, #3856	@ 0xf10
 80034f2:	f023 030f 	bic.w	r3, r3, #15
 80034f6:	683a      	ldr	r2, [r7, #0]
 80034f8:	6811      	ldr	r1, [r2, #0]
 80034fa:	683a      	ldr	r2, [r7, #0]
 80034fc:	6892      	ldr	r2, [r2, #8]
 80034fe:	430a      	orrs	r2, r1
 8003500:	431a      	orrs	r2, r3
 8003502:	6f7b      	ldr	r3, [r7, #116]	@ 0x74
 8003504:	609a      	str	r2, [r3, #8]
 8003506:	e047      	b.n	8003598 <HAL_ADCEx_MultiModeConfigChannel+0x1e0>
 8003508:	6f7b      	ldr	r3, [r7, #116]	@ 0x74
 800350a:	689b      	ldr	r3, [r3, #8]
 800350c:	f423 4260 	bic.w	r2, r3, #57344	@ 0xe000
 8003510:	6f7b      	ldr	r3, [r7, #116]	@ 0x74
 8003512:	609a      	str	r2, [r3, #8]
 8003514:	687b      	ldr	r3, [r7, #4]
 8003516:	681b      	ldr	r3, [r3, #0]
 8003518:	f1b3 4fa0 	cmp.w	r3, #1342177280	@ 0x50000000
 800351c:	d004      	beq.n	8003528 <HAL_ADCEx_MultiModeConfigChannel+0x170>
 800351e:	687b      	ldr	r3, [r7, #4]
 8003520:	681b      	ldr	r3, [r3, #0]
 8003522:	4a23      	ldr	r2, [pc, #140]	@ (80035b0 <HAL_ADCEx_MultiModeConfigChannel+0x1f8>)
 8003524:	4293      	cmp	r3, r2
 8003526:	d10f      	bne.n	8003548 <HAL_ADCEx_MultiModeConfigChannel+0x190>
 8003528:	f04f 40a0 	mov.w	r0, #1342177280	@ 0x50000000
 800352c:	f7ff ff1e 	bl	800336c <LL_ADC_IsEnabled>
 8003530:	4604      	mov	r4, r0
 8003532:	481f      	ldr	r0, [pc, #124]	@ (80035b0 <HAL_ADCEx_MultiModeConfigChannel+0x1f8>)
 8003534:	f7ff ff1a 	bl	800336c <LL_ADC_IsEnabled>
 8003538:	4603      	mov	r3, r0
 800353a:	4323      	orrs	r3, r4
 800353c:	2b00      	cmp	r3, #0
 800353e:	bf0c      	ite	eq
 8003540:	2301      	moveq	r3, #1
 8003542:	2300      	movne	r3, #0
 8003544:	b2db      	uxtb	r3, r3
 8003546:	e012      	b.n	800356e <HAL_ADCEx_MultiModeConfigChannel+0x1b6>
 8003548:	481a      	ldr	r0, [pc, #104]	@ (80035b4 <HAL_ADCEx_MultiModeConfigChannel+0x1fc>)
 800354a:	f7ff ff0f 	bl	800336c <LL_ADC_IsEnabled>
 800354e:	4604      	mov	r4, r0
 8003550:	4819      	ldr	r0, [pc, #100]	@ (80035b8 <HAL_ADCEx_MultiModeConfigChannel+0x200>)
 8003552:	f7ff ff0b 	bl	800336c <LL_ADC_IsEnabled>
 8003556:	4603      	mov	r3, r0
 8003558:	431c      	orrs	r4, r3
 800355a:	481a      	ldr	r0, [pc, #104]	@ (80035c4 <HAL_ADCEx_MultiModeConfigChannel+0x20c>)
 800355c:	f7ff ff06 	bl	800336c <LL_ADC_IsEnabled>
 8003560:	4603      	mov	r3, r0
 8003562:	4323      	orrs	r3, r4
 8003564:	2b00      	cmp	r3, #0
 8003566:	bf0c      	ite	eq
 8003568:	2301      	moveq	r3, #1
 800356a:	2300      	movne	r3, #0
 800356c:	b2db      	uxtb	r3, r3
 800356e:	2b00      	cmp	r3, #0
 8003570:	d012      	beq.n	8003598 <HAL_ADCEx_MultiModeConfigChannel+0x1e0>
 8003572:	6f7b      	ldr	r3, [r7, #116]	@ 0x74
 8003574:	689b      	ldr	r3, [r3, #8]
 8003576:	f423 6371 	bic.w	r3, r3, #3856	@ 0xf10
 800357a:	f023 030f 	bic.w	r3, r3, #15
 800357e:	6f7a      	ldr	r2, [r7, #116]	@ 0x74
 8003580:	6093      	str	r3, [r2, #8]
 8003582:	e009      	b.n	8003598 <HAL_ADCEx_MultiModeConfigChannel+0x1e0>
 8003584:	687b      	ldr	r3, [r7, #4]
 8003586:	6ddb      	ldr	r3, [r3, #92]	@ 0x5c
 8003588:	f043 0220 	orr.w	r2, r3, #32
 800358c:	687b      	ldr	r3, [r7, #4]
 800358e:	65da      	str	r2, [r3, #92]	@ 0x5c
 8003590:	2301      	movs	r3, #1
 8003592:	f887 307f 	strb.w	r3, [r7, #127]	@ 0x7f
 8003596:	e000      	b.n	800359a <HAL_ADCEx_MultiModeConfigChannel+0x1e2>
 8003598:	bf00      	nop
 800359a:	687b      	ldr	r3, [r7, #4]
 800359c:	2200      	movs	r2, #0
 800359e:	f883 2058 	strb.w	r2, [r3, #88]	@ 0x58
 80035a2:	f897 307f 	ldrb.w	r3, [r7, #127]	@ 0x7f
 80035a6:	4618      	mov	r0, r3
 80035a8:	3784      	adds	r7, #132	@ 0x84
 80035aa:	46bd      	mov	sp, r7
 80035ac:	bd90      	pop	{r4, r7, pc}
 80035ae:	bf00      	nop
 80035b0:	50000100 	.word	0x50000100
 80035b4:	50000400 	.word	0x50000400
 80035b8:	50000500 	.word	0x50000500
 80035bc:	50000300 	.word	0x50000300
 80035c0:	50000700 	.word	0x50000700
 80035c4:	50000600 	.word	0x50000600

080035c8 <__NVIC_SetPriorityGrouping>:
 80035c8:	b480      	push	{r7}
 80035ca:	b085      	sub	sp, #20
 80035cc:	af00      	add	r7, sp, #0
 80035ce:	6078      	str	r0, [r7, #4]
 80035d0:	687b      	ldr	r3, [r7, #4]
 80035d2:	f003 0307 	and.w	r3, r3, #7
 80035d6:	60fb      	str	r3, [r7, #12]
 80035d8:	4b0c      	ldr	r3, [pc, #48]	@ (800360c <__NVIC_SetPriorityGrouping+0x44>)
 80035da:	68db      	ldr	r3, [r3, #12]
 80035dc:	60bb      	str	r3, [r7, #8]
 80035de:	68ba      	ldr	r2, [r7, #8]
 80035e0:	f64f 03ff 	movw	r3, #63743	@ 0xf8ff
 80035e4:	4013      	ands	r3, r2
 80035e6:	60bb      	str	r3, [r7, #8]
 80035e8:	68fb      	ldr	r3, [r7, #12]
 80035ea:	021a      	lsls	r2, r3, #8
 80035ec:	68bb      	ldr	r3, [r7, #8]
 80035ee:	4313      	orrs	r3, r2
 80035f0:	f043 63bf 	orr.w	r3, r3, #100139008	@ 0x5f80000
 80035f4:	f443 3300 	orr.w	r3, r3, #131072	@ 0x20000
 80035f8:	60bb      	str	r3, [r7, #8]
 80035fa:	4a04      	ldr	r2, [pc, #16]	@ (800360c <__NVIC_SetPriorityGrouping+0x44>)
 80035fc:	68bb      	ldr	r3, [r7, #8]
 80035fe:	60d3      	str	r3, [r2, #12]
 8003600:	bf00      	nop
 8003602:	3714      	adds	r7, #20
 8003604:	46bd      	mov	sp, r7
 8003606:	f85d 7b04 	ldr.w	r7, [sp], #4
 800360a:	4770      	bx	lr
 800360c:	e000ed00 	.word	0xe000ed00

08003610 <__NVIC_GetPriorityGrouping>:
 8003610:	b480      	push	{r7}
 8003612:	af00      	add	r7, sp, #0
 8003614:	4b04      	ldr	r3, [pc, #16]	@ (8003628 <__NVIC_GetPriorityGrouping+0x18>)
 8003616:	68db      	ldr	r3, [r3, #12]
 8003618:	0a1b      	lsrs	r3, r3, #8
 800361a:	f003 0307 	and.w	r3, r3, #7
 800361e:	4618      	mov	r0, r3
 8003620:	46bd      	mov	sp, r7
 8003622:	f85d 7b04 	ldr.w	r7, [sp], #4
 8003626:	4770      	bx	lr
 8003628:	e000ed00 	.word	0xe000ed00

0800362c <__NVIC_EnableIRQ>:
 800362c:	b480      	push	{r7}
 800362e:	b083      	sub	sp, #12
 8003630:	af00      	add	r7, sp, #0
 8003632:	4603      	mov	r3, r0
 8003634:	71fb      	strb	r3, [r7, #7]
 8003636:	f997 3007 	ldrsb.w	r3, [r7, #7]
 800363a:	2b00      	cmp	r3, #0
 800363c:	db0b      	blt.n	8003656 <__NVIC_EnableIRQ+0x2a>
 800363e:	79fb      	ldrb	r3, [r7, #7]
 8003640:	f003 021f 	and.w	r2, r3, #31
 8003644:	4907      	ldr	r1, [pc, #28]	@ (8003664 <__NVIC_EnableIRQ+0x38>)
 8003646:	f997 3007 	ldrsb.w	r3, [r7, #7]
 800364a:	095b      	lsrs	r3, r3, #5
 800364c:	2001      	movs	r0, #1
 800364e:	fa00 f202 	lsl.w	r2, r0, r2
 8003652:	f841 2023 	str.w	r2, [r1, r3, lsl #2]
 8003656:	bf00      	nop
 8003658:	370c      	adds	r7, #12
 800365a:	46bd      	mov	sp, r7
 800365c:	f85d 7b04 	ldr.w	r7, [sp], #4
 8003660:	4770      	bx	lr
 8003662:	bf00      	nop
 8003664:	e000e100 	.word	0xe000e100

08003668 <__NVIC_SetPriority>:
 8003668:	b480      	push	{r7}
 800366a:	b083      	sub	sp, #12
 800366c:	af00      	add	r7, sp, #0
 800366e:	4603      	mov	r3, r0
 8003670:	6039      	str	r1, [r7, #0]
 8003672:	71fb      	strb	r3, [r7, #7]
 8003674:	f997 3007 	ldrsb.w	r3, [r7, #7]
 8003678:	2b00      	cmp	r3, #0
 800367a:	db0a      	blt.n	8003692 <__NVIC_SetPriority+0x2a>
 800367c:	683b      	ldr	r3, [r7, #0]
 800367e:	b2da      	uxtb	r2, r3
 8003680:	490c      	ldr	r1, [pc, #48]	@ (80036b4 <__NVIC_SetPriority+0x4c>)
 8003682:	f997 3007 	ldrsb.w	r3, [r7, #7]
 8003686:	0112      	lsls	r2, r2, #4
 8003688:	b2d2      	uxtb	r2, r2
 800368a:	440b      	add	r3, r1
 800368c:	f883 2300 	strb.w	r2, [r3, #768]	@ 0x300
 8003690:	e00a      	b.n	80036a8 <__NVIC_SetPriority+0x40>
 8003692:	683b      	ldr	r3, [r7, #0]
 8003694:	b2da      	uxtb	r2, r3
 8003696:	4908      	ldr	r1, [pc, #32]	@ (80036b8 <__NVIC_SetPriority+0x50>)
 8003698:	79fb      	ldrb	r3, [r7, #7]
 800369a:	f003 030f 	and.w	r3, r3, #15
 800369e:	3b04      	subs	r3, #4
 80036a0:	0112      	lsls	r2, r2, #4
 80036a2:	b2d2      	uxtb	r2, r2
 80036a4:	440b      	add	r3, r1
 80036a6:	761a      	strb	r2, [r3, #24]
 80036a8:	bf00      	nop
 80036aa:	370c      	adds	r7, #12
 80036ac:	46bd      	mov	sp, r7
 80036ae:	f85d 7b04 	ldr.w	r7, [sp], #4
 80036b2:	4770      	bx	lr
 80036b4:	e000e100 	.word	0xe000e100
 80036b8:	e000ed00 	.word	0xe000ed00

080036bc <NVIC_EncodePriority>:
 80036bc:	b480      	push	{r7}
 80036be:	b089      	sub	sp, #36	@ 0x24
 80036c0:	af00      	add	r7, sp, #0
 80036c2:	60f8      	str	r0, [r7, #12]
 80036c4:	60b9      	str	r1, [r7, #8]
 80036c6:	607a      	str	r2, [r7, #4]
 80036c8:	68fb      	ldr	r3, [r7, #12]
 80036ca:	f003 0307 	and.w	r3, r3, #7
 80036ce:	61fb      	str	r3, [r7, #28]
 80036d0:	69fb      	ldr	r3, [r7, #28]
 80036d2:	f1c3 0307 	rsb	r3, r3, #7
 80036d6:	2b04      	cmp	r3, #4
 80036d8:	bf28      	it	cs
 80036da:	2304      	movcs	r3, #4
 80036dc:	61bb      	str	r3, [r7, #24]
 80036de:	69fb      	ldr	r3, [r7, #28]
 80036e0:	3304      	adds	r3, #4
 80036e2:	2b06      	cmp	r3, #6
 80036e4:	d902      	bls.n	80036ec <NVIC_EncodePriority+0x30>
 80036e6:	69fb      	ldr	r3, [r7, #28]
 80036e8:	3b03      	subs	r3, #3
 80036ea:	e000      	b.n	80036ee <NVIC_EncodePriority+0x32>
 80036ec:	2300      	movs	r3, #0
 80036ee:	617b      	str	r3, [r7, #20]
 80036f0:	f04f 32ff 	mov.w	r2, #4294967295
 80036f4:	69bb      	ldr	r3, [r7, #24]
 80036f6:	fa02 f303 	lsl.w	r3, r2, r3
 80036fa:	43da      	mvns	r2, r3
 80036fc:	68bb      	ldr	r3, [r7, #8]
 80036fe:	401a      	ands	r2, r3
 8003700:	697b      	ldr	r3, [r7, #20]
 8003702:	409a      	lsls	r2, r3
 8003704:	f04f 31ff 	mov.w	r1, #4294967295
 8003708:	697b      	ldr	r3, [r7, #20]
 800370a:	fa01 f303 	lsl.w	r3, r1, r3
 800370e:	43d9      	mvns	r1, r3
 8003710:	687b      	ldr	r3, [r7, #4]
 8003712:	400b      	ands	r3, r1
 8003714:	4313      	orrs	r3, r2
 8003716:	4618      	mov	r0, r3
 8003718:	3724      	adds	r7, #36	@ 0x24
 800371a:	46bd      	mov	sp, r7
 800371c:	f85d 7b04 	ldr.w	r7, [sp], #4
 8003720:	4770      	bx	lr
	...

08003724 <SysTick_Config>:
 8003724:	b580      	push	{r7, lr}
 8003726:	b082      	sub	sp, #8
 8003728:	af00      	add	r7, sp, #0
 800372a:	6078      	str	r0, [r7, #4]
 800372c:	687b      	ldr	r3, [r7, #4]
 800372e:	3b01      	subs	r3, #1
 8003730:	f1b3 7f80 	cmp.w	r3, #16777216	@ 0x1000000
 8003734:	d301      	bcc.n	800373a <SysTick_Config+0x16>
 8003736:	2301      	movs	r3, #1
 8003738:	e00f      	b.n	800375a <SysTick_Config+0x36>
 800373a:	4a0a      	ldr	r2, [pc, #40]	@ (8003764 <SysTick_Config+0x40>)
 800373c:	687b      	ldr	r3, [r7, #4]
 800373e:	3b01      	subs	r3, #1
 8003740:	6053      	str	r3, [r2, #4]
 8003742:	210f      	movs	r1, #15
 8003744:	f04f 30ff 	mov.w	r0, #4294967295
 8003748:	f7ff ff8e 	bl	8003668 <__NVIC_SetPriority>
 800374c:	4b05      	ldr	r3, [pc, #20]	@ (8003764 <SysTick_Config+0x40>)
 800374e:	2200      	movs	r2, #0
 8003750:	609a      	str	r2, [r3, #8]
 8003752:	4b04      	ldr	r3, [pc, #16]	@ (8003764 <SysTick_Config+0x40>)
 8003754:	2207      	movs	r2, #7
 8003756:	601a      	str	r2, [r3, #0]
 8003758:	2300      	movs	r3, #0
 800375a:	4618      	mov	r0, r3
 800375c:	3708      	adds	r7, #8
 800375e:	46bd      	mov	sp, r7
 8003760:	bd80      	pop	{r7, pc}
 8003762:	bf00      	nop
 8003764:	e000e010 	.word	0xe000e010

08003768 <HAL_NVIC_SetPriorityGrouping>:
 8003768:	b580      	push	{r7, lr}
 800376a:	b082      	sub	sp, #8
 800376c:	af00      	add	r7, sp, #0
 800376e:	6078      	str	r0, [r7, #4]
 8003770:	6878      	ldr	r0, [r7, #4]
 8003772:	f7ff ff29 	bl	80035c8 <__NVIC_SetPriorityGrouping>
 8003776:	bf00      	nop
 8003778:	3708      	adds	r7, #8
 800377a:	46bd      	mov	sp, r7
 800377c:	bd80      	pop	{r7, pc}

0800377e <HAL_NVIC_SetPriority>:
 800377e:	b580      	push	{r7, lr}
 8003780:	b086      	sub	sp, #24
 8003782:	af00      	add	r7, sp, #0
 8003784:	4603      	mov	r3, r0
 8003786:	60b9      	str	r1, [r7, #8]
 8003788:	607a      	str	r2, [r7, #4]
 800378a:	73fb      	strb	r3, [r7, #15]
 800378c:	f7ff ff40 	bl	8003610 <__NVIC_GetPriorityGrouping>
 8003790:	6178      	str	r0, [r7, #20]
 8003792:	687a      	ldr	r2, [r7, #4]
 8003794:	68b9      	ldr	r1, [r7, #8]
 8003796:	6978      	ldr	r0, [r7, #20]
 8003798:	f7ff ff90 	bl	80036bc <NVIC_EncodePriority>
 800379c:	4602      	mov	r2, r0
 800379e:	f997 300f 	ldrsb.w	r3, [r7, #15]
 80037a2:	4611      	mov	r1, r2
 80037a4:	4618      	mov	r0, r3
 80037a6:	f7ff ff5f 	bl	8003668 <__NVIC_SetPriority>
 80037aa:	bf00      	nop
 80037ac:	3718      	adds	r7, #24
 80037ae:	46bd      	mov	sp, r7
 80037b0:	bd80      	pop	{r7, pc}

080037b2 <HAL_NVIC_EnableIRQ>:
 80037b2:	b580      	push	{r7, lr}
 80037b4:	b082      	sub	sp, #8
 80037b6:	af00      	add	r7, sp, #0
 80037b8:	4603      	mov	r3, r0
 80037ba:	71fb      	strb	r3, [r7, #7]
 80037bc:	f997 3007 	ldrsb.w	r3, [r7, #7]
 80037c0:	4618      	mov	r0, r3
 80037c2:	f7ff ff33 	bl	800362c <__NVIC_EnableIRQ>
 80037c6:	bf00      	nop
 80037c8:	3708      	adds	r7, #8
 80037ca:	46bd      	mov	sp, r7
 80037cc:	bd80      	pop	{r7, pc}

080037ce <HAL_SYSTICK_Config>:
 80037ce:	b580      	push	{r7, lr}
 80037d0:	b082      	sub	sp, #8
 80037d2:	af00      	add	r7, sp, #0
 80037d4:	6078      	str	r0, [r7, #4]
 80037d6:	6878      	ldr	r0, [r7, #4]
 80037d8:	f7ff ffa4 	bl	8003724 <SysTick_Config>
 80037dc:	4603      	mov	r3, r0
 80037de:	4618      	mov	r0, r3
 80037e0:	3708      	adds	r7, #8
 80037e2:	46bd      	mov	sp, r7
 80037e4:	bd80      	pop	{r7, pc}
	...

080037e8 <HAL_DMA_Init>:
 80037e8:	b580      	push	{r7, lr}
 80037ea:	b084      	sub	sp, #16
 80037ec:	af00      	add	r7, sp, #0
 80037ee:	6078      	str	r0, [r7, #4]
 80037f0:	687b      	ldr	r3, [r7, #4]
 80037f2:	2b00      	cmp	r3, #0
 80037f4:	d101      	bne.n	80037fa <HAL_DMA_Init+0x12>
 80037f6:	2301      	movs	r3, #1
 80037f8:	e08d      	b.n	8003916 <HAL_DMA_Init+0x12e>
 80037fa:	687b      	ldr	r3, [r7, #4]
 80037fc:	681b      	ldr	r3, [r3, #0]
 80037fe:	461a      	mov	r2, r3
 8003800:	4b47      	ldr	r3, [pc, #284]	@ (8003920 <HAL_DMA_Init+0x138>)
 8003802:	429a      	cmp	r2, r3
 8003804:	d80f      	bhi.n	8003826 <HAL_DMA_Init+0x3e>
 8003806:	687b      	ldr	r3, [r7, #4]
 8003808:	681b      	ldr	r3, [r3, #0]
 800380a:	461a      	mov	r2, r3
 800380c:	4b45      	ldr	r3, [pc, #276]	@ (8003924 <HAL_DMA_Init+0x13c>)
 800380e:	4413      	add	r3, r2
 8003810:	4a45      	ldr	r2, [pc, #276]	@ (8003928 <HAL_DMA_Init+0x140>)
 8003812:	fba2 2303 	umull	r2, r3, r2, r3
 8003816:	091b      	lsrs	r3, r3, #4
 8003818:	009a      	lsls	r2, r3, #2
 800381a:	687b      	ldr	r3, [r7, #4]
 800381c:	645a      	str	r2, [r3, #68]	@ 0x44
 800381e:	687b      	ldr	r3, [r7, #4]
 8003820:	4a42      	ldr	r2, [pc, #264]	@ (800392c <HAL_DMA_Init+0x144>)
 8003822:	641a      	str	r2, [r3, #64]	@ 0x40
 8003824:	e00e      	b.n	8003844 <HAL_DMA_Init+0x5c>
 8003826:	687b      	ldr	r3, [r7, #4]
 8003828:	681b      	ldr	r3, [r3, #0]
 800382a:	461a      	mov	r2, r3
 800382c:	4b40      	ldr	r3, [pc, #256]	@ (8003930 <HAL_DMA_Init+0x148>)
 800382e:	4413      	add	r3, r2
 8003830:	4a3d      	ldr	r2, [pc, #244]	@ (8003928 <HAL_DMA_Init+0x140>)
 8003832:	fba2 2303 	umull	r2, r3, r2, r3
 8003836:	091b      	lsrs	r3, r3, #4
 8003838:	009a      	lsls	r2, r3, #2
 800383a:	687b      	ldr	r3, [r7, #4]
 800383c:	645a      	str	r2, [r3, #68]	@ 0x44
 800383e:	687b      	ldr	r3, [r7, #4]
 8003840:	4a3c      	ldr	r2, [pc, #240]	@ (8003934 <HAL_DMA_Init+0x14c>)
 8003842:	641a      	str	r2, [r3, #64]	@ 0x40
 8003844:	687b      	ldr	r3, [r7, #4]
 8003846:	2202      	movs	r2, #2
 8003848:	f883 2025 	strb.w	r2, [r3, #37]	@ 0x25
 800384c:	687b      	ldr	r3, [r7, #4]
 800384e:	681b      	ldr	r3, [r3, #0]
 8003850:	681b      	ldr	r3, [r3, #0]
 8003852:	60fb      	str	r3, [r7, #12]
 8003854:	68fb      	ldr	r3, [r7, #12]
 8003856:	f423 43ff 	bic.w	r3, r3, #32640	@ 0x7f80
 800385a:	f023 0370 	bic.w	r3, r3, #112	@ 0x70
 800385e:	60fb      	str	r3, [r7, #12]
 8003860:	687b      	ldr	r3, [r7, #4]
 8003862:	689a      	ldr	r2, [r3, #8]
 8003864:	687b      	ldr	r3, [r7, #4]
 8003866:	68db      	ldr	r3, [r3, #12]
 8003868:	431a      	orrs	r2, r3
 800386a:	687b      	ldr	r3, [r7, #4]
 800386c:	691b      	ldr	r3, [r3, #16]
 800386e:	431a      	orrs	r2, r3
 8003870:	687b      	ldr	r3, [r7, #4]
 8003872:	695b      	ldr	r3, [r3, #20]
 8003874:	431a      	orrs	r2, r3
 8003876:	687b      	ldr	r3, [r7, #4]
 8003878:	699b      	ldr	r3, [r3, #24]
 800387a:	431a      	orrs	r2, r3
 800387c:	687b      	ldr	r3, [r7, #4]
 800387e:	69db      	ldr	r3, [r3, #28]
 8003880:	431a      	orrs	r2, r3
 8003882:	687b      	ldr	r3, [r7, #4]
 8003884:	6a1b      	ldr	r3, [r3, #32]
 8003886:	4313      	orrs	r3, r2
 8003888:	68fa      	ldr	r2, [r7, #12]
 800388a:	4313      	orrs	r3, r2
 800388c:	60fb      	str	r3, [r7, #12]
 800388e:	687b      	ldr	r3, [r7, #4]
 8003890:	681b      	ldr	r3, [r3, #0]
 8003892:	68fa      	ldr	r2, [r7, #12]
 8003894:	601a      	str	r2, [r3, #0]
 8003896:	6878      	ldr	r0, [r7, #4]
 8003898:	f000 fa82 	bl	8003da0 <DMA_CalcDMAMUXChannelBaseAndMask>
 800389c:	687b      	ldr	r3, [r7, #4]
 800389e:	689b      	ldr	r3, [r3, #8]
 80038a0:	f5b3 4f80 	cmp.w	r3, #16384	@ 0x4000
 80038a4:	d102      	bne.n	80038ac <HAL_DMA_Init+0xc4>
 80038a6:	687b      	ldr	r3, [r7, #4]
 80038a8:	2200      	movs	r2, #0
 80038aa:	605a      	str	r2, [r3, #4]
 80038ac:	687b      	ldr	r3, [r7, #4]
 80038ae:	685a      	ldr	r2, [r3, #4]
 80038b0:	687b      	ldr	r3, [r7, #4]
 80038b2:	6c9b      	ldr	r3, [r3, #72]	@ 0x48
 80038b4:	b2d2      	uxtb	r2, r2
 80038b6:	601a      	str	r2, [r3, #0]
 80038b8:	687b      	ldr	r3, [r7, #4]
 80038ba:	6cdb      	ldr	r3, [r3, #76]	@ 0x4c
 80038bc:	687a      	ldr	r2, [r7, #4]
 80038be:	6d12      	ldr	r2, [r2, #80]	@ 0x50
 80038c0:	605a      	str	r2, [r3, #4]
 80038c2:	687b      	ldr	r3, [r7, #4]
 80038c4:	685b      	ldr	r3, [r3, #4]
 80038c6:	2b00      	cmp	r3, #0
 80038c8:	d010      	beq.n	80038ec <HAL_DMA_Init+0x104>
 80038ca:	687b      	ldr	r3, [r7, #4]
 80038cc:	685b      	ldr	r3, [r3, #4]
 80038ce:	2b04      	cmp	r3, #4
 80038d0:	d80c      	bhi.n	80038ec <HAL_DMA_Init+0x104>
 80038d2:	6878      	ldr	r0, [r7, #4]
 80038d4:	f000 faa2 	bl	8003e1c <DMA_CalcDMAMUXRequestGenBaseAndMask>
 80038d8:	687b      	ldr	r3, [r7, #4]
 80038da:	6d5b      	ldr	r3, [r3, #84]	@ 0x54
 80038dc:	2200      	movs	r2, #0
 80038de:	601a      	str	r2, [r3, #0]
 80038e0:	687b      	ldr	r3, [r7, #4]
 80038e2:	6d9b      	ldr	r3, [r3, #88]	@ 0x58
 80038e4:	687a      	ldr	r2, [r7, #4]
 80038e6:	6dd2      	ldr	r2, [r2, #92]	@ 0x5c
 80038e8:	605a      	str	r2, [r3, #4]
 80038ea:	e008      	b.n	80038fe <HAL_DMA_Init+0x116>
 80038ec:	687b      	ldr	r3, [r7, #4]
 80038ee:	2200      	movs	r2, #0
 80038f0:	655a      	str	r2, [r3, #84]	@ 0x54
 80038f2:	687b      	ldr	r3, [r7, #4]
 80038f4:	2200      	movs	r2, #0
 80038f6:	659a      	str	r2, [r3, #88]	@ 0x58
 80038f8:	687b      	ldr	r3, [r7, #4]
 80038fa:	2200      	movs	r2, #0
 80038fc:	65da      	str	r2, [r3, #92]	@ 0x5c
 80038fe:	687b      	ldr	r3, [r7, #4]
 8003900:	2200      	movs	r2, #0
 8003902:	63da      	str	r2, [r3, #60]	@ 0x3c
 8003904:	687b      	ldr	r3, [r7, #4]
 8003906:	2201      	movs	r2, #1
 8003908:	f883 2025 	strb.w	r2, [r3, #37]	@ 0x25
 800390c:	687b      	ldr	r3, [r7, #4]
 800390e:	2200      	movs	r2, #0
 8003910:	f883 2024 	strb.w	r2, [r3, #36]	@ 0x24
 8003914:	2300      	movs	r3, #0
 8003916:	4618      	mov	r0, r3
 8003918:	3710      	adds	r7, #16
 800391a:	46bd      	mov	sp, r7
 800391c:	bd80      	pop	{r7, pc}
 800391e:	bf00      	nop
 8003920:	40020407 	.word	0x40020407
 8003924:	bffdfff8 	.word	0xbffdfff8
 8003928:	cccccccd 	.word	0xcccccccd
 800392c:	40020000 	.word	0x40020000
 8003930:	bffdfbf8 	.word	0xbffdfbf8
 8003934:	40020400 	.word	0x40020400

08003938 <HAL_DMA_Start_IT>:
 8003938:	b580      	push	{r7, lr}
 800393a:	b086      	sub	sp, #24
 800393c:	af00      	add	r7, sp, #0
 800393e:	60f8      	str	r0, [r7, #12]
 8003940:	60b9      	str	r1, [r7, #8]
 8003942:	607a      	str	r2, [r7, #4]
 8003944:	603b      	str	r3, [r7, #0]
 8003946:	2300      	movs	r3, #0
 8003948:	75fb      	strb	r3, [r7, #23]
 800394a:	68fb      	ldr	r3, [r7, #12]
 800394c:	f893 3024 	ldrb.w	r3, [r3, #36]	@ 0x24
 8003950:	2b01      	cmp	r3, #1
 8003952:	d101      	bne.n	8003958 <HAL_DMA_Start_IT+0x20>
 8003954:	2302      	movs	r3, #2
 8003956:	e066      	b.n	8003a26 <HAL_DMA_Start_IT+0xee>
 8003958:	68fb      	ldr	r3, [r7, #12]
 800395a:	2201      	movs	r2, #1
 800395c:	f883 2024 	strb.w	r2, [r3, #36]	@ 0x24
 8003960:	68fb      	ldr	r3, [r7, #12]
 8003962:	f893 3025 	ldrb.w	r3, [r3, #37]	@ 0x25
 8003966:	b2db      	uxtb	r3, r3
 8003968:	2b01      	cmp	r3, #1
 800396a:	d155      	bne.n	8003a18 <HAL_DMA_Start_IT+0xe0>
 800396c:	68fb      	ldr	r3, [r7, #12]
 800396e:	2202      	movs	r2, #2
 8003970:	f883 2025 	strb.w	r2, [r3, #37]	@ 0x25
 8003974:	68fb      	ldr	r3, [r7, #12]
 8003976:	2200      	movs	r2, #0
 8003978:	63da      	str	r2, [r3, #60]	@ 0x3c
 800397a:	68fb      	ldr	r3, [r7, #12]
 800397c:	681b      	ldr	r3, [r3, #0]
 800397e:	681a      	ldr	r2, [r3, #0]
 8003980:	68fb      	ldr	r3, [r7, #12]
 8003982:	681b      	ldr	r3, [r3, #0]
 8003984:	f022 0201 	bic.w	r2, r2, #1
 8003988:	601a      	str	r2, [r3, #0]
 800398a:	683b      	ldr	r3, [r7, #0]
 800398c:	687a      	ldr	r2, [r7, #4]
 800398e:	68b9      	ldr	r1, [r7, #8]
 8003990:	68f8      	ldr	r0, [r7, #12]
 8003992:	f000 f9c7 	bl	8003d24 <DMA_SetConfig>
 8003996:	68fb      	ldr	r3, [r7, #12]
 8003998:	6b1b      	ldr	r3, [r3, #48]	@ 0x30
 800399a:	2b00      	cmp	r3, #0
 800399c:	d008      	beq.n	80039b0 <HAL_DMA_Start_IT+0x78>
 800399e:	68fb      	ldr	r3, [r7, #12]
 80039a0:	681b      	ldr	r3, [r3, #0]
 80039a2:	681a      	ldr	r2, [r3, #0]
 80039a4:	68fb      	ldr	r3, [r7, #12]
 80039a6:	681b      	ldr	r3, [r3, #0]
 80039a8:	f042 020e 	orr.w	r2, r2, #14
 80039ac:	601a      	str	r2, [r3, #0]
 80039ae:	e00f      	b.n	80039d0 <HAL_DMA_Start_IT+0x98>
 80039b0:	68fb      	ldr	r3, [r7, #12]
 80039b2:	681b      	ldr	r3, [r3, #0]
 80039b4:	681a      	ldr	r2, [r3, #0]
 80039b6:	68fb      	ldr	r3, [r7, #12]
 80039b8:	681b      	ldr	r3, [r3, #0]
 80039ba:	f022 0204 	bic.w	r2, r2, #4
 80039be:	601a      	str	r2, [r3, #0]
 80039c0:	68fb      	ldr	r3, [r7, #12]
 80039c2:	681b      	ldr	r3, [r3, #0]
 80039c4:	681a      	ldr	r2, [r3, #0]
 80039c6:	68fb      	ldr	r3, [r7, #12]
 80039c8:	681b      	ldr	r3, [r3, #0]
 80039ca:	f042 020a 	orr.w	r2, r2, #10
 80039ce:	601a      	str	r2, [r3, #0]
 80039d0:	68fb      	ldr	r3, [r7, #12]
 80039d2:	6c9b      	ldr	r3, [r3, #72]	@ 0x48
 80039d4:	681b      	ldr	r3, [r3, #0]
 80039d6:	f403 3380 	and.w	r3, r3, #65536	@ 0x10000
 80039da:	2b00      	cmp	r3, #0
 80039dc:	d007      	beq.n	80039ee <HAL_DMA_Start_IT+0xb6>
 80039de:	68fb      	ldr	r3, [r7, #12]
 80039e0:	6c9b      	ldr	r3, [r3, #72]	@ 0x48
 80039e2:	681a      	ldr	r2, [r3, #0]
 80039e4:	68fb      	ldr	r3, [r7, #12]
 80039e6:	6c9b      	ldr	r3, [r3, #72]	@ 0x48
 80039e8:	f442 7280 	orr.w	r2, r2, #256	@ 0x100
 80039ec:	601a      	str	r2, [r3, #0]
 80039ee:	68fb      	ldr	r3, [r7, #12]
 80039f0:	6d5b      	ldr	r3, [r3, #84]	@ 0x54
 80039f2:	2b00      	cmp	r3, #0
 80039f4:	d007      	beq.n	8003a06 <HAL_DMA_Start_IT+0xce>
 80039f6:	68fb      	ldr	r3, [r7, #12]
 80039f8:	6d5b      	ldr	r3, [r3, #84]	@ 0x54
 80039fa:	681a      	ldr	r2, [r3, #0]
 80039fc:	68fb      	ldr	r3, [r7, #12]
 80039fe:	6d5b      	ldr	r3, [r3, #84]	@ 0x54
 8003a00:	f442 7280 	orr.w	r2, r2, #256	@ 0x100
 8003a04:	601a      	str	r2, [r3, #0]
 8003a06:	68fb      	ldr	r3, [r7, #12]
 8003a08:	681b      	ldr	r3, [r3, #0]
 8003a0a:	681a      	ldr	r2, [r3, #0]
 8003a0c:	68fb      	ldr	r3, [r7, #12]
 8003a0e:	681b      	ldr	r3, [r3, #0]
 8003a10:	f042 0201 	orr.w	r2, r2, #1
 8003a14:	601a      	str	r2, [r3, #0]
 8003a16:	e005      	b.n	8003a24 <HAL_DMA_Start_IT+0xec>
 8003a18:	68fb      	ldr	r3, [r7, #12]
 8003a1a:	2200      	movs	r2, #0
 8003a1c:	f883 2024 	strb.w	r2, [r3, #36]	@ 0x24
 8003a20:	2302      	movs	r3, #2
 8003a22:	75fb      	strb	r3, [r7, #23]
 8003a24:	7dfb      	ldrb	r3, [r7, #23]
 8003a26:	4618      	mov	r0, r3
 8003a28:	3718      	adds	r7, #24
 8003a2a:	46bd      	mov	sp, r7
 8003a2c:	bd80      	pop	{r7, pc}

08003a2e <HAL_DMA_Abort>:
 8003a2e:	b480      	push	{r7}
 8003a30:	b085      	sub	sp, #20
 8003a32:	af00      	add	r7, sp, #0
 8003a34:	6078      	str	r0, [r7, #4]
 8003a36:	2300      	movs	r3, #0
 8003a38:	73fb      	strb	r3, [r7, #15]
 8003a3a:	687b      	ldr	r3, [r7, #4]
 8003a3c:	f893 3025 	ldrb.w	r3, [r3, #37]	@ 0x25
 8003a40:	b2db      	uxtb	r3, r3
 8003a42:	2b02      	cmp	r3, #2
 8003a44:	d005      	beq.n	8003a52 <HAL_DMA_Abort+0x24>
 8003a46:	687b      	ldr	r3, [r7, #4]
 8003a48:	2204      	movs	r2, #4
 8003a4a:	63da      	str	r2, [r3, #60]	@ 0x3c
 8003a4c:	2301      	movs	r3, #1
 8003a4e:	73fb      	strb	r3, [r7, #15]
 8003a50:	e037      	b.n	8003ac2 <HAL_DMA_Abort+0x94>
 8003a52:	687b      	ldr	r3, [r7, #4]
 8003a54:	681b      	ldr	r3, [r3, #0]
 8003a56:	681a      	ldr	r2, [r3, #0]
 8003a58:	687b      	ldr	r3, [r7, #4]
 8003a5a:	681b      	ldr	r3, [r3, #0]
 8003a5c:	f022 020e 	bic.w	r2, r2, #14
 8003a60:	601a      	str	r2, [r3, #0]
 8003a62:	687b      	ldr	r3, [r7, #4]
 8003a64:	6c9b      	ldr	r3, [r3, #72]	@ 0x48
 8003a66:	681a      	ldr	r2, [r3, #0]
 8003a68:	687b      	ldr	r3, [r7, #4]
 8003a6a:	6c9b      	ldr	r3, [r3, #72]	@ 0x48
 8003a6c:	f422 7280 	bic.w	r2, r2, #256	@ 0x100
 8003a70:	601a      	str	r2, [r3, #0]
 8003a72:	687b      	ldr	r3, [r7, #4]
 8003a74:	681b      	ldr	r3, [r3, #0]
 8003a76:	681a      	ldr	r2, [r3, #0]
 8003a78:	687b      	ldr	r3, [r7, #4]
 8003a7a:	681b      	ldr	r3, [r3, #0]
 8003a7c:	f022 0201 	bic.w	r2, r2, #1
 8003a80:	601a      	str	r2, [r3, #0]
 8003a82:	687b      	ldr	r3, [r7, #4]
 8003a84:	6c5b      	ldr	r3, [r3, #68]	@ 0x44
 8003a86:	f003 021f 	and.w	r2, r3, #31
 8003a8a:	687b      	ldr	r3, [r7, #4]
 8003a8c:	6c1b      	ldr	r3, [r3, #64]	@ 0x40
 8003a8e:	2101      	movs	r1, #1
 8003a90:	fa01 f202 	lsl.w	r2, r1, r2
 8003a94:	605a      	str	r2, [r3, #4]
 8003a96:	687b      	ldr	r3, [r7, #4]
 8003a98:	6cdb      	ldr	r3, [r3, #76]	@ 0x4c
 8003a9a:	687a      	ldr	r2, [r7, #4]
 8003a9c:	6d12      	ldr	r2, [r2, #80]	@ 0x50
 8003a9e:	605a      	str	r2, [r3, #4]
 8003aa0:	687b      	ldr	r3, [r7, #4]
 8003aa2:	6d5b      	ldr	r3, [r3, #84]	@ 0x54
 8003aa4:	2b00      	cmp	r3, #0
 8003aa6:	d00c      	beq.n	8003ac2 <HAL_DMA_Abort+0x94>
 8003aa8:	687b      	ldr	r3, [r7, #4]
 8003aaa:	6d5b      	ldr	r3, [r3, #84]	@ 0x54
 8003aac:	681a      	ldr	r2, [r3, #0]
 8003aae:	687b      	ldr	r3, [r7, #4]
 8003ab0:	6d5b      	ldr	r3, [r3, #84]	@ 0x54
 8003ab2:	f422 7280 	bic.w	r2, r2, #256	@ 0x100
 8003ab6:	601a      	str	r2, [r3, #0]
 8003ab8:	687b      	ldr	r3, [r7, #4]
 8003aba:	6d9b      	ldr	r3, [r3, #88]	@ 0x58
 8003abc:	687a      	ldr	r2, [r7, #4]
 8003abe:	6dd2      	ldr	r2, [r2, #92]	@ 0x5c
 8003ac0:	605a      	str	r2, [r3, #4]
 8003ac2:	687b      	ldr	r3, [r7, #4]
 8003ac4:	2201      	movs	r2, #1
 8003ac6:	f883 2025 	strb.w	r2, [r3, #37]	@ 0x25
 8003aca:	687b      	ldr	r3, [r7, #4]
 8003acc:	2200      	movs	r2, #0
 8003ace:	f883 2024 	strb.w	r2, [r3, #36]	@ 0x24
 8003ad2:	7bfb      	ldrb	r3, [r7, #15]
 8003ad4:	4618      	mov	r0, r3
 8003ad6:	3714      	adds	r7, #20
 8003ad8:	46bd      	mov	sp, r7
 8003ada:	f85d 7b04 	ldr.w	r7, [sp], #4
 8003ade:	4770      	bx	lr

08003ae0 <HAL_DMA_Abort_IT>:
 8003ae0:	b580      	push	{r7, lr}
 8003ae2:	b084      	sub	sp, #16
 8003ae4:	af00      	add	r7, sp, #0
 8003ae6:	6078      	str	r0, [r7, #4]
 8003ae8:	2300      	movs	r3, #0
 8003aea:	73fb      	strb	r3, [r7, #15]
 8003aec:	687b      	ldr	r3, [r7, #4]
 8003aee:	f893 3025 	ldrb.w	r3, [r3, #37]	@ 0x25
 8003af2:	b2db      	uxtb	r3, r3
 8003af4:	2b02      	cmp	r3, #2
 8003af6:	d00d      	beq.n	8003b14 <HAL_DMA_Abort_IT+0x34>
 8003af8:	687b      	ldr	r3, [r7, #4]
 8003afa:	2204      	movs	r2, #4
 8003afc:	63da      	str	r2, [r3, #60]	@ 0x3c
 8003afe:	687b      	ldr	r3, [r7, #4]
 8003b00:	2201      	movs	r2, #1
 8003b02:	f883 2025 	strb.w	r2, [r3, #37]	@ 0x25
 8003b06:	687b      	ldr	r3, [r7, #4]
 8003b08:	2200      	movs	r2, #0
 8003b0a:	f883 2024 	strb.w	r2, [r3, #36]	@ 0x24
 8003b0e:	2301      	movs	r3, #1
 8003b10:	73fb      	strb	r3, [r7, #15]
 8003b12:	e047      	b.n	8003ba4 <HAL_DMA_Abort_IT+0xc4>
 8003b14:	687b      	ldr	r3, [r7, #4]
 8003b16:	681b      	ldr	r3, [r3, #0]
 8003b18:	681a      	ldr	r2, [r3, #0]
 8003b1a:	687b      	ldr	r3, [r7, #4]
 8003b1c:	681b      	ldr	r3, [r3, #0]
 8003b1e:	f022 020e 	bic.w	r2, r2, #14
 8003b22:	601a      	str	r2, [r3, #0]
 8003b24:	687b      	ldr	r3, [r7, #4]
 8003b26:	681b      	ldr	r3, [r3, #0]
 8003b28:	681a      	ldr	r2, [r3, #0]
 8003b2a:	687b      	ldr	r3, [r7, #4]
 8003b2c:	681b      	ldr	r3, [r3, #0]
 8003b2e:	f022 0201 	bic.w	r2, r2, #1
 8003b32:	601a      	str	r2, [r3, #0]
 8003b34:	687b      	ldr	r3, [r7, #4]
 8003b36:	6c9b      	ldr	r3, [r3, #72]	@ 0x48
 8003b38:	681a      	ldr	r2, [r3, #0]
 8003b3a:	687b      	ldr	r3, [r7, #4]
 8003b3c:	6c9b      	ldr	r3, [r3, #72]	@ 0x48
 8003b3e:	f422 7280 	bic.w	r2, r2, #256	@ 0x100
 8003b42:	601a      	str	r2, [r3, #0]
 8003b44:	687b      	ldr	r3, [r7, #4]
 8003b46:	6c5b      	ldr	r3, [r3, #68]	@ 0x44
 8003b48:	f003 021f 	and.w	r2, r3, #31
 8003b4c:	687b      	ldr	r3, [r7, #4]
 8003b4e:	6c1b      	ldr	r3, [r3, #64]	@ 0x40
 8003b50:	2101      	movs	r1, #1
 8003b52:	fa01 f202 	lsl.w	r2, r1, r2
 8003b56:	605a      	str	r2, [r3, #4]
 8003b58:	687b      	ldr	r3, [r7, #4]
 8003b5a:	6cdb      	ldr	r3, [r3, #76]	@ 0x4c
 8003b5c:	687a      	ldr	r2, [r7, #4]
 8003b5e:	6d12      	ldr	r2, [r2, #80]	@ 0x50
 8003b60:	605a      	str	r2, [r3, #4]
 8003b62:	687b      	ldr	r3, [r7, #4]
 8003b64:	6d5b      	ldr	r3, [r3, #84]	@ 0x54
 8003b66:	2b00      	cmp	r3, #0
 8003b68:	d00c      	beq.n	8003b84 <HAL_DMA_Abort_IT+0xa4>
 8003b6a:	687b      	ldr	r3, [r7, #4]
 8003b6c:	6d5b      	ldr	r3, [r3, #84]	@ 0x54
 8003b6e:	681a      	ldr	r2, [r3, #0]
 8003b70:	687b      	ldr	r3, [r7, #4]
 8003b72:	6d5b      	ldr	r3, [r3, #84]	@ 0x54
 8003b74:	f422 7280 	bic.w	r2, r2, #256	@ 0x100
 8003b78:	601a      	str	r2, [r3, #0]
 8003b7a:	687b      	ldr	r3, [r7, #4]
 8003b7c:	6d9b      	ldr	r3, [r3, #88]	@ 0x58
 8003b7e:	687a      	ldr	r2, [r7, #4]
 8003b80:	6dd2      	ldr	r2, [r2, #92]	@ 0x5c
 8003b82:	605a      	str	r2, [r3, #4]
 8003b84:	687b      	ldr	r3, [r7, #4]
 8003b86:	2201      	movs	r2, #1
 8003b88:	f883 2025 	strb.w	r2, [r3, #37]	@ 0x25
 8003b8c:	687b      	ldr	r3, [r7, #4]
 8003b8e:	2200      	movs	r2, #0
 8003b90:	f883 2024 	strb.w	r2, [r3, #36]	@ 0x24
 8003b94:	687b      	ldr	r3, [r7, #4]
 8003b96:	6b9b      	ldr	r3, [r3, #56]	@ 0x38
 8003b98:	2b00      	cmp	r3, #0
 8003b9a:	d003      	beq.n	8003ba4 <HAL_DMA_Abort_IT+0xc4>
 8003b9c:	687b      	ldr	r3, [r7, #4]
 8003b9e:	6b9b      	ldr	r3, [r3, #56]	@ 0x38
 8003ba0:	6878      	ldr	r0, [r7, #4]
 8003ba2:	4798      	blx	r3
 8003ba4:	7bfb      	ldrb	r3, [r7, #15]
 8003ba6:	4618      	mov	r0, r3
 8003ba8:	3710      	adds	r7, #16
 8003baa:	46bd      	mov	sp, r7
 8003bac:	bd80      	pop	{r7, pc}

08003bae <HAL_DMA_IRQHandler>:
 8003bae:	b580      	push	{r7, lr}
 8003bb0:	b084      	sub	sp, #16
 8003bb2:	af00      	add	r7, sp, #0
 8003bb4:	6078      	str	r0, [r7, #4]
 8003bb6:	687b      	ldr	r3, [r7, #4]
 8003bb8:	6c1b      	ldr	r3, [r3, #64]	@ 0x40
 8003bba:	681b      	ldr	r3, [r3, #0]
 8003bbc:	60fb      	str	r3, [r7, #12]
 8003bbe:	687b      	ldr	r3, [r7, #4]
 8003bc0:	681b      	ldr	r3, [r3, #0]
 8003bc2:	681b      	ldr	r3, [r3, #0]
 8003bc4:	60bb      	str	r3, [r7, #8]
 8003bc6:	687b      	ldr	r3, [r7, #4]
 8003bc8:	6c5b      	ldr	r3, [r3, #68]	@ 0x44
 8003bca:	f003 031f 	and.w	r3, r3, #31
 8003bce:	2204      	movs	r2, #4
 8003bd0:	409a      	lsls	r2, r3
 8003bd2:	68fb      	ldr	r3, [r7, #12]
 8003bd4:	4013      	ands	r3, r2
 8003bd6:	2b00      	cmp	r3, #0
 8003bd8:	d026      	beq.n	8003c28 <HAL_DMA_IRQHandler+0x7a>
 8003bda:	68bb      	ldr	r3, [r7, #8]
 8003bdc:	f003 0304 	and.w	r3, r3, #4
 8003be0:	2b00      	cmp	r3, #0
 8003be2:	d021      	beq.n	8003c28 <HAL_DMA_IRQHandler+0x7a>
 8003be4:	687b      	ldr	r3, [r7, #4]
 8003be6:	681b      	ldr	r3, [r3, #0]
 8003be8:	681b      	ldr	r3, [r3, #0]
 8003bea:	f003 0320 	and.w	r3, r3, #32
 8003bee:	2b00      	cmp	r3, #0
 8003bf0:	d107      	bne.n	8003c02 <HAL_DMA_IRQHandler+0x54>
 8003bf2:	687b      	ldr	r3, [r7, #4]
 8003bf4:	681b      	ldr	r3, [r3, #0]
 8003bf6:	681a      	ldr	r2, [r3, #0]
 8003bf8:	687b      	ldr	r3, [r7, #4]
 8003bfa:	681b      	ldr	r3, [r3, #0]
 8003bfc:	f022 0204 	bic.w	r2, r2, #4
 8003c00:	601a      	str	r2, [r3, #0]
 8003c02:	687b      	ldr	r3, [r7, #4]
 8003c04:	6c5b      	ldr	r3, [r3, #68]	@ 0x44
 8003c06:	f003 021f 	and.w	r2, r3, #31
 8003c0a:	687b      	ldr	r3, [r7, #4]
 8003c0c:	6c1b      	ldr	r3, [r3, #64]	@ 0x40
 8003c0e:	2104      	movs	r1, #4
 8003c10:	fa01 f202 	lsl.w	r2, r1, r2
 8003c14:	605a      	str	r2, [r3, #4]
 8003c16:	687b      	ldr	r3, [r7, #4]
 8003c18:	6b1b      	ldr	r3, [r3, #48]	@ 0x30
 8003c1a:	2b00      	cmp	r3, #0
 8003c1c:	d071      	beq.n	8003d02 <HAL_DMA_IRQHandler+0x154>
 8003c1e:	687b      	ldr	r3, [r7, #4]
 8003c20:	6b1b      	ldr	r3, [r3, #48]	@ 0x30
 8003c22:	6878      	ldr	r0, [r7, #4]
 8003c24:	4798      	blx	r3
 8003c26:	e06c      	b.n	8003d02 <HAL_DMA_IRQHandler+0x154>
 8003c28:	687b      	ldr	r3, [r7, #4]
 8003c2a:	6c5b      	ldr	r3, [r3, #68]	@ 0x44
 8003c2c:	f003 031f 	and.w	r3, r3, #31
 8003c30:	2202      	movs	r2, #2
 8003c32:	409a      	lsls	r2, r3
 8003c34:	68fb      	ldr	r3, [r7, #12]
 8003c36:	4013      	ands	r3, r2
 8003c38:	2b00      	cmp	r3, #0
 8003c3a:	d02e      	beq.n	8003c9a <HAL_DMA_IRQHandler+0xec>
 8003c3c:	68bb      	ldr	r3, [r7, #8]
 8003c3e:	f003 0302 	and.w	r3, r3, #2
 8003c42:	2b00      	cmp	r3, #0
 8003c44:	d029      	beq.n	8003c9a <HAL_DMA_IRQHandler+0xec>
 8003c46:	687b      	ldr	r3, [r7, #4]
 8003c48:	681b      	ldr	r3, [r3, #0]
 8003c4a:	681b      	ldr	r3, [r3, #0]
 8003c4c:	f003 0320 	and.w	r3, r3, #32
 8003c50:	2b00      	cmp	r3, #0
 8003c52:	d10b      	bne.n	8003c6c <HAL_DMA_IRQHandler+0xbe>
 8003c54:	687b      	ldr	r3, [r7, #4]
 8003c56:	681b      	ldr	r3, [r3, #0]
 8003c58:	681a      	ldr	r2, [r3, #0]
 8003c5a:	687b      	ldr	r3, [r7, #4]
 8003c5c:	681b      	ldr	r3, [r3, #0]
 8003c5e:	f022 020a 	bic.w	r2, r2, #10
 8003c62:	601a      	str	r2, [r3, #0]
 8003c64:	687b      	ldr	r3, [r7, #4]
 8003c66:	2201      	movs	r2, #1
 8003c68:	f883 2025 	strb.w	r2, [r3, #37]	@ 0x25
 8003c6c:	687b      	ldr	r3, [r7, #4]
 8003c6e:	6c5b      	ldr	r3, [r3, #68]	@ 0x44
 8003c70:	f003 021f 	and.w	r2, r3, #31
 8003c74:	687b      	ldr	r3, [r7, #4]
 8003c76:	6c1b      	ldr	r3, [r3, #64]	@ 0x40
 8003c78:	2102      	movs	r1, #2
 8003c7a:	fa01 f202 	lsl.w	r2, r1, r2
 8003c7e:	605a      	str	r2, [r3, #4]
 8003c80:	687b      	ldr	r3, [r7, #4]
 8003c82:	2200      	movs	r2, #0
 8003c84:	f883 2024 	strb.w	r2, [r3, #36]	@ 0x24
 8003c88:	687b      	ldr	r3, [r7, #4]
 8003c8a:	6adb      	ldr	r3, [r3, #44]	@ 0x2c
 8003c8c:	2b00      	cmp	r3, #0
 8003c8e:	d038      	beq.n	8003d02 <HAL_DMA_IRQHandler+0x154>
 8003c90:	687b      	ldr	r3, [r7, #4]
 8003c92:	6adb      	ldr	r3, [r3, #44]	@ 0x2c
 8003c94:	6878      	ldr	r0, [r7, #4]
 8003c96:	4798      	blx	r3
 8003c98:	e033      	b.n	8003d02 <HAL_DMA_IRQHandler+0x154>
 8003c9a:	687b      	ldr	r3, [r7, #4]
 8003c9c:	6c5b      	ldr	r3, [r3, #68]	@ 0x44
 8003c9e:	f003 031f 	and.w	r3, r3, #31
 8003ca2:	2208      	movs	r2, #8
 8003ca4:	409a      	lsls	r2, r3
 8003ca6:	68fb      	ldr	r3, [r7, #12]
 8003ca8:	4013      	ands	r3, r2
 8003caa:	2b00      	cmp	r3, #0
 8003cac:	d02a      	beq.n	8003d04 <HAL_DMA_IRQHandler+0x156>
 8003cae:	68bb      	ldr	r3, [r7, #8]
 8003cb0:	f003 0308 	and.w	r3, r3, #8
 8003cb4:	2b00      	cmp	r3, #0
 8003cb6:	d025      	beq.n	8003d04 <HAL_DMA_IRQHandler+0x156>
 8003cb8:	687b      	ldr	r3, [r7, #4]
 8003cba:	681b      	ldr	r3, [r3, #0]
 8003cbc:	681a      	ldr	r2, [r3, #0]
 8003cbe:	687b      	ldr	r3, [r7, #4]
 8003cc0:	681b      	ldr	r3, [r3, #0]
 8003cc2:	f022 020e 	bic.w	r2, r2, #14
 8003cc6:	601a      	str	r2, [r3, #0]
 8003cc8:	687b      	ldr	r3, [r7, #4]
 8003cca:	6c5b      	ldr	r3, [r3, #68]	@ 0x44
 8003ccc:	f003 021f 	and.w	r2, r3, #31
 8003cd0:	687b      	ldr	r3, [r7, #4]
 8003cd2:	6c1b      	ldr	r3, [r3, #64]	@ 0x40
 8003cd4:	2101      	movs	r1, #1
 8003cd6:	fa01 f202 	lsl.w	r2, r1, r2
 8003cda:	605a      	str	r2, [r3, #4]
 8003cdc:	687b      	ldr	r3, [r7, #4]
 8003cde:	2201      	movs	r2, #1
 8003ce0:	63da      	str	r2, [r3, #60]	@ 0x3c
 8003ce2:	687b      	ldr	r3, [r7, #4]
 8003ce4:	2201      	movs	r2, #1
 8003ce6:	f883 2025 	strb.w	r2, [r3, #37]	@ 0x25
 8003cea:	687b      	ldr	r3, [r7, #4]
 8003cec:	2200      	movs	r2, #0
 8003cee:	f883 2024 	strb.w	r2, [r3, #36]	@ 0x24
 8003cf2:	687b      	ldr	r3, [r7, #4]
 8003cf4:	6b5b      	ldr	r3, [r3, #52]	@ 0x34
 8003cf6:	2b00      	cmp	r3, #0
 8003cf8:	d004      	beq.n	8003d04 <HAL_DMA_IRQHandler+0x156>
 8003cfa:	687b      	ldr	r3, [r7, #4]
 8003cfc:	6b5b      	ldr	r3, [r3, #52]	@ 0x34
 8003cfe:	6878      	ldr	r0, [r7, #4]
 8003d00:	4798      	blx	r3
 8003d02:	bf00      	nop
 8003d04:	bf00      	nop
 8003d06:	3710      	adds	r7, #16
 8003d08:	46bd      	mov	sp, r7
 8003d0a:	bd80      	pop	{r7, pc}

08003d0c <HAL_DMA_GetError>:
 8003d0c:	b480      	push	{r7}
 8003d0e:	b083      	sub	sp, #12
 8003d10:	af00      	add	r7, sp, #0
 8003d12:	6078      	str	r0, [r7, #4]
 8003d14:	687b      	ldr	r3, [r7, #4]
 8003d16:	6bdb      	ldr	r3, [r3, #60]	@ 0x3c
 8003d18:	4618      	mov	r0, r3
 8003d1a:	370c      	adds	r7, #12
 8003d1c:	46bd      	mov	sp, r7
 8003d1e:	f85d 7b04 	ldr.w	r7, [sp], #4
 8003d22:	4770      	bx	lr

08003d24 <DMA_SetConfig>:
 8003d24:	b480      	push	{r7}
 8003d26:	b085      	sub	sp, #20
 8003d28:	af00      	add	r7, sp, #0
 8003d2a:	60f8      	str	r0, [r7, #12]
 8003d2c:	60b9      	str	r1, [r7, #8]
 8003d2e:	607a      	str	r2, [r7, #4]
 8003d30:	603b      	str	r3, [r7, #0]
 8003d32:	68fb      	ldr	r3, [r7, #12]
 8003d34:	6cdb      	ldr	r3, [r3, #76]	@ 0x4c
 8003d36:	68fa      	ldr	r2, [r7, #12]
 8003d38:	6d12      	ldr	r2, [r2, #80]	@ 0x50
 8003d3a:	605a      	str	r2, [r3, #4]
 8003d3c:	68fb      	ldr	r3, [r7, #12]
 8003d3e:	6d5b      	ldr	r3, [r3, #84]	@ 0x54
 8003d40:	2b00      	cmp	r3, #0
 8003d42:	d004      	beq.n	8003d4e <DMA_SetConfig+0x2a>
 8003d44:	68fb      	ldr	r3, [r7, #12]
 8003d46:	6d9b      	ldr	r3, [r3, #88]	@ 0x58
 8003d48:	68fa      	ldr	r2, [r7, #12]
 8003d4a:	6dd2      	ldr	r2, [r2, #92]	@ 0x5c
 8003d4c:	605a      	str	r2, [r3, #4]
 8003d4e:	68fb      	ldr	r3, [r7, #12]
 8003d50:	6c5b      	ldr	r3, [r3, #68]	@ 0x44
 8003d52:	f003 021f 	and.w	r2, r3, #31
 8003d56:	68fb      	ldr	r3, [r7, #12]
 8003d58:	6c1b      	ldr	r3, [r3, #64]	@ 0x40
 8003d5a:	2101      	movs	r1, #1
 8003d5c:	fa01 f202 	lsl.w	r2, r1, r2
 8003d60:	605a      	str	r2, [r3, #4]
 8003d62:	68fb      	ldr	r3, [r7, #12]
 8003d64:	681b      	ldr	r3, [r3, #0]
 8003d66:	683a      	ldr	r2, [r7, #0]
 8003d68:	605a      	str	r2, [r3, #4]
 8003d6a:	68fb      	ldr	r3, [r7, #12]
 8003d6c:	689b      	ldr	r3, [r3, #8]
 8003d6e:	2b10      	cmp	r3, #16
 8003d70:	d108      	bne.n	8003d84 <DMA_SetConfig+0x60>
 8003d72:	68fb      	ldr	r3, [r7, #12]
 8003d74:	681b      	ldr	r3, [r3, #0]
 8003d76:	687a      	ldr	r2, [r7, #4]
 8003d78:	609a      	str	r2, [r3, #8]
 8003d7a:	68fb      	ldr	r3, [r7, #12]
 8003d7c:	681b      	ldr	r3, [r3, #0]
 8003d7e:	68ba      	ldr	r2, [r7, #8]
 8003d80:	60da      	str	r2, [r3, #12]
 8003d82:	e007      	b.n	8003d94 <DMA_SetConfig+0x70>
 8003d84:	68fb      	ldr	r3, [r7, #12]
 8003d86:	681b      	ldr	r3, [r3, #0]
 8003d88:	68ba      	ldr	r2, [r7, #8]
 8003d8a:	609a      	str	r2, [r3, #8]
 8003d8c:	68fb      	ldr	r3, [r7, #12]
 8003d8e:	681b      	ldr	r3, [r3, #0]
 8003d90:	687a      	ldr	r2, [r7, #4]
 8003d92:	60da      	str	r2, [r3, #12]
 8003d94:	bf00      	nop
 8003d96:	3714      	adds	r7, #20
 8003d98:	46bd      	mov	sp, r7
 8003d9a:	f85d 7b04 	ldr.w	r7, [sp], #4
 8003d9e:	4770      	bx	lr

08003da0 <DMA_CalcDMAMUXChannelBaseAndMask>:
 8003da0:	b480      	push	{r7}
 8003da2:	b087      	sub	sp, #28
 8003da4:	af00      	add	r7, sp, #0
 8003da6:	6078      	str	r0, [r7, #4]
 8003da8:	687b      	ldr	r3, [r7, #4]
 8003daa:	681b      	ldr	r3, [r3, #0]
 8003dac:	461a      	mov	r2, r3
 8003dae:	4b16      	ldr	r3, [pc, #88]	@ (8003e08 <DMA_CalcDMAMUXChannelBaseAndMask+0x68>)
 8003db0:	429a      	cmp	r2, r3
 8003db2:	d802      	bhi.n	8003dba <DMA_CalcDMAMUXChannelBaseAndMask+0x1a>
 8003db4:	4b15      	ldr	r3, [pc, #84]	@ (8003e0c <DMA_CalcDMAMUXChannelBaseAndMask+0x6c>)
 8003db6:	617b      	str	r3, [r7, #20]
 8003db8:	e001      	b.n	8003dbe <DMA_CalcDMAMUXChannelBaseAndMask+0x1e>
 8003dba:	4b15      	ldr	r3, [pc, #84]	@ (8003e10 <DMA_CalcDMAMUXChannelBaseAndMask+0x70>)
 8003dbc:	617b      	str	r3, [r7, #20]
 8003dbe:	697b      	ldr	r3, [r7, #20]
 8003dc0:	613b      	str	r3, [r7, #16]
 8003dc2:	687b      	ldr	r3, [r7, #4]
 8003dc4:	681b      	ldr	r3, [r3, #0]
 8003dc6:	b2db      	uxtb	r3, r3
 8003dc8:	3b08      	subs	r3, #8
 8003dca:	4a12      	ldr	r2, [pc, #72]	@ (8003e14 <DMA_CalcDMAMUXChannelBaseAndMask+0x74>)
 8003dcc:	fba2 2303 	umull	r2, r3, r2, r3
 8003dd0:	091b      	lsrs	r3, r3, #4
 8003dd2:	60fb      	str	r3, [r7, #12]
 8003dd4:	687b      	ldr	r3, [r7, #4]
 8003dd6:	6c5b      	ldr	r3, [r3, #68]	@ 0x44
 8003dd8:	089b      	lsrs	r3, r3, #2
 8003dda:	009a      	lsls	r2, r3, #2
 8003ddc:	693b      	ldr	r3, [r7, #16]
 8003dde:	4413      	add	r3, r2
 8003de0:	461a      	mov	r2, r3
 8003de2:	687b      	ldr	r3, [r7, #4]
 8003de4:	649a      	str	r2, [r3, #72]	@ 0x48
 8003de6:	687b      	ldr	r3, [r7, #4]
 8003de8:	4a0b      	ldr	r2, [pc, #44]	@ (8003e18 <DMA_CalcDMAMUXChannelBaseAndMask+0x78>)
 8003dea:	64da      	str	r2, [r3, #76]	@ 0x4c
 8003dec:	68fb      	ldr	r3, [r7, #12]
 8003dee:	f003 031f 	and.w	r3, r3, #31
 8003df2:	2201      	movs	r2, #1
 8003df4:	409a      	lsls	r2, r3
 8003df6:	687b      	ldr	r3, [r7, #4]
 8003df8:	651a      	str	r2, [r3, #80]	@ 0x50
 8003dfa:	bf00      	nop
 8003dfc:	371c      	adds	r7, #28
 8003dfe:	46bd      	mov	sp, r7
 8003e00:	f85d 7b04 	ldr.w	r7, [sp], #4
 8003e04:	4770      	bx	lr
 8003e06:	bf00      	nop
 8003e08:	40020407 	.word	0x40020407
 8003e0c:	40020800 	.word	0x40020800
 8003e10:	40020820 	.word	0x40020820
 8003e14:	cccccccd 	.word	0xcccccccd
 8003e18:	40020880 	.word	0x40020880

08003e1c <DMA_CalcDMAMUXRequestGenBaseAndMask>:
 8003e1c:	b480      	push	{r7}
 8003e1e:	b085      	sub	sp, #20
 8003e20:	af00      	add	r7, sp, #0
 8003e22:	6078      	str	r0, [r7, #4]
 8003e24:	687b      	ldr	r3, [r7, #4]
 8003e26:	685b      	ldr	r3, [r3, #4]
 8003e28:	b2db      	uxtb	r3, r3
 8003e2a:	60fb      	str	r3, [r7, #12]
 8003e2c:	68fa      	ldr	r2, [r7, #12]
 8003e2e:	4b0b      	ldr	r3, [pc, #44]	@ (8003e5c <DMA_CalcDMAMUXRequestGenBaseAndMask+0x40>)
 8003e30:	4413      	add	r3, r2
 8003e32:	009b      	lsls	r3, r3, #2
 8003e34:	461a      	mov	r2, r3
 8003e36:	687b      	ldr	r3, [r7, #4]
 8003e38:	655a      	str	r2, [r3, #84]	@ 0x54
 8003e3a:	687b      	ldr	r3, [r7, #4]
 8003e3c:	4a08      	ldr	r2, [pc, #32]	@ (8003e60 <DMA_CalcDMAMUXRequestGenBaseAndMask+0x44>)
 8003e3e:	659a      	str	r2, [r3, #88]	@ 0x58
 8003e40:	68fb      	ldr	r3, [r7, #12]
 8003e42:	3b01      	subs	r3, #1
 8003e44:	f003 031f 	and.w	r3, r3, #31
 8003e48:	2201      	movs	r2, #1
 8003e4a:	409a      	lsls	r2, r3
 8003e4c:	687b      	ldr	r3, [r7, #4]
 8003e4e:	65da      	str	r2, [r3, #92]	@ 0x5c
 8003e50:	bf00      	nop
 8003e52:	3714      	adds	r7, #20
 8003e54:	46bd      	mov	sp, r7
 8003e56:	f85d 7b04 	ldr.w	r7, [sp], #4
 8003e5a:	4770      	bx	lr
 8003e5c:	1000823f 	.word	0x1000823f
 8003e60:	40020940 	.word	0x40020940

08003e64 <HAL_GPIO_Init>:
 8003e64:	b480      	push	{r7}
 8003e66:	b087      	sub	sp, #28
 8003e68:	af00      	add	r7, sp, #0
 8003e6a:	6078      	str	r0, [r7, #4]
 8003e6c:	6039      	str	r1, [r7, #0]
 8003e6e:	2300      	movs	r3, #0
 8003e70:	617b      	str	r3, [r7, #20]
 8003e72:	e15a      	b.n	800412a <HAL_GPIO_Init+0x2c6>
 8003e74:	683b      	ldr	r3, [r7, #0]
 8003e76:	681a      	ldr	r2, [r3, #0]
 8003e78:	2101      	movs	r1, #1
 8003e7a:	697b      	ldr	r3, [r7, #20]
 8003e7c:	fa01 f303 	lsl.w	r3, r1, r3
 8003e80:	4013      	ands	r3, r2
 8003e82:	60fb      	str	r3, [r7, #12]
 8003e84:	68fb      	ldr	r3, [r7, #12]
 8003e86:	2b00      	cmp	r3, #0
 8003e88:	f000 814c 	beq.w	8004124 <HAL_GPIO_Init+0x2c0>
 8003e8c:	683b      	ldr	r3, [r7, #0]
 8003e8e:	685b      	ldr	r3, [r3, #4]
 8003e90:	f003 0303 	and.w	r3, r3, #3
 8003e94:	2b01      	cmp	r3, #1
 8003e96:	d005      	beq.n	8003ea4 <HAL_GPIO_Init+0x40>
 8003e98:	683b      	ldr	r3, [r7, #0]
 8003e9a:	685b      	ldr	r3, [r3, #4]
 8003e9c:	f003 0303 	and.w	r3, r3, #3
 8003ea0:	2b02      	cmp	r3, #2
 8003ea2:	d130      	bne.n	8003f06 <HAL_GPIO_Init+0xa2>
 8003ea4:	687b      	ldr	r3, [r7, #4]
 8003ea6:	689b      	ldr	r3, [r3, #8]
 8003ea8:	613b      	str	r3, [r7, #16]
 8003eaa:	697b      	ldr	r3, [r7, #20]
 8003eac:	005b      	lsls	r3, r3, #1
 8003eae:	2203      	movs	r2, #3
 8003eb0:	fa02 f303 	lsl.w	r3, r2, r3
 8003eb4:	43db      	mvns	r3, r3
 8003eb6:	693a      	ldr	r2, [r7, #16]
 8003eb8:	4013      	ands	r3, r2
 8003eba:	613b      	str	r3, [r7, #16]
 8003ebc:	683b      	ldr	r3, [r7, #0]
 8003ebe:	68da      	ldr	r2, [r3, #12]
 8003ec0:	697b      	ldr	r3, [r7, #20]
 8003ec2:	005b      	lsls	r3, r3, #1
 8003ec4:	fa02 f303 	lsl.w	r3, r2, r3
 8003ec8:	693a      	ldr	r2, [r7, #16]
 8003eca:	4313      	orrs	r3, r2
 8003ecc:	613b      	str	r3, [r7, #16]
 8003ece:	687b      	ldr	r3, [r7, #4]
 8003ed0:	693a      	ldr	r2, [r7, #16]
 8003ed2:	609a      	str	r2, [r3, #8]
 8003ed4:	687b      	ldr	r3, [r7, #4]
 8003ed6:	685b      	ldr	r3, [r3, #4]
 8003ed8:	613b      	str	r3, [r7, #16]
 8003eda:	2201      	movs	r2, #1
 8003edc:	697b      	ldr	r3, [r7, #20]
 8003ede:	fa02 f303 	lsl.w	r3, r2, r3
 8003ee2:	43db      	mvns	r3, r3
 8003ee4:	693a      	ldr	r2, [r7, #16]
 8003ee6:	4013      	ands	r3, r2
 8003ee8:	613b      	str	r3, [r7, #16]
 8003eea:	683b      	ldr	r3, [r7, #0]
 8003eec:	685b      	ldr	r3, [r3, #4]
 8003eee:	091b      	lsrs	r3, r3, #4
 8003ef0:	f003 0201 	and.w	r2, r3, #1
 8003ef4:	697b      	ldr	r3, [r7, #20]
 8003ef6:	fa02 f303 	lsl.w	r3, r2, r3
 8003efa:	693a      	ldr	r2, [r7, #16]
 8003efc:	4313      	orrs	r3, r2
 8003efe:	613b      	str	r3, [r7, #16]
 8003f00:	687b      	ldr	r3, [r7, #4]
 8003f02:	693a      	ldr	r2, [r7, #16]
 8003f04:	605a      	str	r2, [r3, #4]
 8003f06:	683b      	ldr	r3, [r7, #0]
 8003f08:	685b      	ldr	r3, [r3, #4]
 8003f0a:	f003 0303 	and.w	r3, r3, #3
 8003f0e:	2b03      	cmp	r3, #3
 8003f10:	d017      	beq.n	8003f42 <HAL_GPIO_Init+0xde>
 8003f12:	687b      	ldr	r3, [r7, #4]
 8003f14:	68db      	ldr	r3, [r3, #12]
 8003f16:	613b      	str	r3, [r7, #16]
 8003f18:	697b      	ldr	r3, [r7, #20]
 8003f1a:	005b      	lsls	r3, r3, #1
 8003f1c:	2203      	movs	r2, #3
 8003f1e:	fa02 f303 	lsl.w	r3, r2, r3
 8003f22:	43db      	mvns	r3, r3
 8003f24:	693a      	ldr	r2, [r7, #16]
 8003f26:	4013      	ands	r3, r2
 8003f28:	613b      	str	r3, [r7, #16]
 8003f2a:	683b      	ldr	r3, [r7, #0]
 8003f2c:	689a      	ldr	r2, [r3, #8]
 8003f2e:	697b      	ldr	r3, [r7, #20]
 8003f30:	005b      	lsls	r3, r3, #1
 8003f32:	fa02 f303 	lsl.w	r3, r2, r3
 8003f36:	693a      	ldr	r2, [r7, #16]
 8003f38:	4313      	orrs	r3, r2
 8003f3a:	613b      	str	r3, [r7, #16]
 8003f3c:	687b      	ldr	r3, [r7, #4]
 8003f3e:	693a      	ldr	r2, [r7, #16]
 8003f40:	60da      	str	r2, [r3, #12]
 8003f42:	683b      	ldr	r3, [r7, #0]
 8003f44:	685b      	ldr	r3, [r3, #4]
 8003f46:	f003 0303 	and.w	r3, r3, #3
 8003f4a:	2b02      	cmp	r3, #2
 8003f4c:	d123      	bne.n	8003f96 <HAL_GPIO_Init+0x132>
 8003f4e:	697b      	ldr	r3, [r7, #20]
 8003f50:	08da      	lsrs	r2, r3, #3
 8003f52:	687b      	ldr	r3, [r7, #4]
 8003f54:	3208      	adds	r2, #8
 8003f56:	f853 3022 	ldr.w	r3, [r3, r2, lsl #2]
 8003f5a:	613b      	str	r3, [r7, #16]
 8003f5c:	697b      	ldr	r3, [r7, #20]
 8003f5e:	f003 0307 	and.w	r3, r3, #7
 8003f62:	009b      	lsls	r3, r3, #2
 8003f64:	220f      	movs	r2, #15
 8003f66:	fa02 f303 	lsl.w	r3, r2, r3
 8003f6a:	43db      	mvns	r3, r3
 8003f6c:	693a      	ldr	r2, [r7, #16]
 8003f6e:	4013      	ands	r3, r2
 8003f70:	613b      	str	r3, [r7, #16]
 8003f72:	683b      	ldr	r3, [r7, #0]
 8003f74:	691a      	ldr	r2, [r3, #16]
 8003f76:	697b      	ldr	r3, [r7, #20]
 8003f78:	f003 0307 	and.w	r3, r3, #7
 8003f7c:	009b      	lsls	r3, r3, #2
 8003f7e:	fa02 f303 	lsl.w	r3, r2, r3
 8003f82:	693a      	ldr	r2, [r7, #16]
 8003f84:	4313      	orrs	r3, r2
 8003f86:	613b      	str	r3, [r7, #16]
 8003f88:	697b      	ldr	r3, [r7, #20]
 8003f8a:	08da      	lsrs	r2, r3, #3
 8003f8c:	687b      	ldr	r3, [r7, #4]
 8003f8e:	3208      	adds	r2, #8
 8003f90:	6939      	ldr	r1, [r7, #16]
 8003f92:	f843 1022 	str.w	r1, [r3, r2, lsl #2]
 8003f96:	687b      	ldr	r3, [r7, #4]
 8003f98:	681b      	ldr	r3, [r3, #0]
 8003f9a:	613b      	str	r3, [r7, #16]
 8003f9c:	697b      	ldr	r3, [r7, #20]
 8003f9e:	005b      	lsls	r3, r3, #1
 8003fa0:	2203      	movs	r2, #3
 8003fa2:	fa02 f303 	lsl.w	r3, r2, r3
 8003fa6:	43db      	mvns	r3, r3
 8003fa8:	693a      	ldr	r2, [r7, #16]
 8003faa:	4013      	ands	r3, r2
 8003fac:	613b      	str	r3, [r7, #16]
 8003fae:	683b      	ldr	r3, [r7, #0]
 8003fb0:	685b      	ldr	r3, [r3, #4]
 8003fb2:	f003 0203 	and.w	r2, r3, #3
 8003fb6:	697b      	ldr	r3, [r7, #20]
 8003fb8:	005b      	lsls	r3, r3, #1
 8003fba:	fa02 f303 	lsl.w	r3, r2, r3
 8003fbe:	693a      	ldr	r2, [r7, #16]
 8003fc0:	4313      	orrs	r3, r2
 8003fc2:	613b      	str	r3, [r7, #16]
 8003fc4:	687b      	ldr	r3, [r7, #4]
 8003fc6:	693a      	ldr	r2, [r7, #16]
 8003fc8:	601a      	str	r2, [r3, #0]
 8003fca:	683b      	ldr	r3, [r7, #0]
 8003fcc:	685b      	ldr	r3, [r3, #4]
 8003fce:	f403 3340 	and.w	r3, r3, #196608	@ 0x30000
 8003fd2:	2b00      	cmp	r3, #0
 8003fd4:	f000 80a6 	beq.w	8004124 <HAL_GPIO_Init+0x2c0>
 8003fd8:	4b5b      	ldr	r3, [pc, #364]	@ (8004148 <HAL_GPIO_Init+0x2e4>)
 8003fda:	6e1b      	ldr	r3, [r3, #96]	@ 0x60
 8003fdc:	4a5a      	ldr	r2, [pc, #360]	@ (8004148 <HAL_GPIO_Init+0x2e4>)
 8003fde:	f043 0301 	orr.w	r3, r3, #1
 8003fe2:	6613      	str	r3, [r2, #96]	@ 0x60
 8003fe4:	4b58      	ldr	r3, [pc, #352]	@ (8004148 <HAL_GPIO_Init+0x2e4>)
 8003fe6:	6e1b      	ldr	r3, [r3, #96]	@ 0x60
 8003fe8:	f003 0301 	and.w	r3, r3, #1
 8003fec:	60bb      	str	r3, [r7, #8]
 8003fee:	68bb      	ldr	r3, [r7, #8]
 8003ff0:	4a56      	ldr	r2, [pc, #344]	@ (800414c <HAL_GPIO_Init+0x2e8>)
 8003ff2:	697b      	ldr	r3, [r7, #20]
 8003ff4:	089b      	lsrs	r3, r3, #2
 8003ff6:	3302      	adds	r3, #2
 8003ff8:	f852 3023 	ldr.w	r3, [r2, r3, lsl #2]
 8003ffc:	613b      	str	r3, [r7, #16]
 8003ffe:	697b      	ldr	r3, [r7, #20]
 8004000:	f003 0303 	and.w	r3, r3, #3
 8004004:	009b      	lsls	r3, r3, #2
 8004006:	220f      	movs	r2, #15
 8004008:	fa02 f303 	lsl.w	r3, r2, r3
 800400c:	43db      	mvns	r3, r3
 800400e:	693a      	ldr	r2, [r7, #16]
 8004010:	4013      	ands	r3, r2
 8004012:	613b      	str	r3, [r7, #16]
 8004014:	687b      	ldr	r3, [r7, #4]
 8004016:	f1b3 4f90 	cmp.w	r3, #1207959552	@ 0x48000000
 800401a:	d01f      	beq.n	800405c <HAL_GPIO_Init+0x1f8>
 800401c:	687b      	ldr	r3, [r7, #4]
 800401e:	4a4c      	ldr	r2, [pc, #304]	@ (8004150 <HAL_GPIO_Init+0x2ec>)
 8004020:	4293      	cmp	r3, r2
 8004022:	d019      	beq.n	8004058 <HAL_GPIO_Init+0x1f4>
 8004024:	687b      	ldr	r3, [r7, #4]
 8004026:	4a4b      	ldr	r2, [pc, #300]	@ (8004154 <HAL_GPIO_Init+0x2f0>)
 8004028:	4293      	cmp	r3, r2
 800402a:	d013      	beq.n	8004054 <HAL_GPIO_Init+0x1f0>
 800402c:	687b      	ldr	r3, [r7, #4]
 800402e:	4a4a      	ldr	r2, [pc, #296]	@ (8004158 <HAL_GPIO_Init+0x2f4>)
 8004030:	4293      	cmp	r3, r2
 8004032:	d00d      	beq.n	8004050 <HAL_GPIO_Init+0x1ec>
 8004034:	687b      	ldr	r3, [r7, #4]
 8004036:	4a49      	ldr	r2, [pc, #292]	@ (800415c <HAL_GPIO_Init+0x2f8>)
 8004038:	4293      	cmp	r3, r2
 800403a:	d007      	beq.n	800404c <HAL_GPIO_Init+0x1e8>
 800403c:	687b      	ldr	r3, [r7, #4]
 800403e:	4a48      	ldr	r2, [pc, #288]	@ (8004160 <HAL_GPIO_Init+0x2fc>)
 8004040:	4293      	cmp	r3, r2
 8004042:	d101      	bne.n	8004048 <HAL_GPIO_Init+0x1e4>
 8004044:	2305      	movs	r3, #5
 8004046:	e00a      	b.n	800405e <HAL_GPIO_Init+0x1fa>
 8004048:	2306      	movs	r3, #6
 800404a:	e008      	b.n	800405e <HAL_GPIO_Init+0x1fa>
 800404c:	2304      	movs	r3, #4
 800404e:	e006      	b.n	800405e <HAL_GPIO_Init+0x1fa>
 8004050:	2303      	movs	r3, #3
 8004052:	e004      	b.n	800405e <HAL_GPIO_Init+0x1fa>
 8004054:	2302      	movs	r3, #2
 8004056:	e002      	b.n	800405e <HAL_GPIO_Init+0x1fa>
 8004058:	2301      	movs	r3, #1
 800405a:	e000      	b.n	800405e <HAL_GPIO_Init+0x1fa>
 800405c:	2300      	movs	r3, #0
 800405e:	697a      	ldr	r2, [r7, #20]
 8004060:	f002 0203 	and.w	r2, r2, #3
 8004064:	0092      	lsls	r2, r2, #2
 8004066:	4093      	lsls	r3, r2
 8004068:	693a      	ldr	r2, [r7, #16]
 800406a:	4313      	orrs	r3, r2
 800406c:	613b      	str	r3, [r7, #16]
 800406e:	4937      	ldr	r1, [pc, #220]	@ (800414c <HAL_GPIO_Init+0x2e8>)
 8004070:	697b      	ldr	r3, [r7, #20]
 8004072:	089b      	lsrs	r3, r3, #2
 8004074:	3302      	adds	r3, #2
 8004076:	693a      	ldr	r2, [r7, #16]
 8004078:	f841 2023 	str.w	r2, [r1, r3, lsl #2]
 800407c:	4b39      	ldr	r3, [pc, #228]	@ (8004164 <HAL_GPIO_Init+0x300>)
 800407e:	689b      	ldr	r3, [r3, #8]
 8004080:	613b      	str	r3, [r7, #16]
 8004082:	68fb      	ldr	r3, [r7, #12]
 8004084:	43db      	mvns	r3, r3
 8004086:	693a      	ldr	r2, [r7, #16]
 8004088:	4013      	ands	r3, r2
 800408a:	613b      	str	r3, [r7, #16]
 800408c:	683b      	ldr	r3, [r7, #0]
 800408e:	685b      	ldr	r3, [r3, #4]
 8004090:	f403 1380 	and.w	r3, r3, #1048576	@ 0x100000
 8004094:	2b00      	cmp	r3, #0
 8004096:	d003      	beq.n	80040a0 <HAL_GPIO_Init+0x23c>
 8004098:	693a      	ldr	r2, [r7, #16]
 800409a:	68fb      	ldr	r3, [r7, #12]
 800409c:	4313      	orrs	r3, r2
 800409e:	613b      	str	r3, [r7, #16]
 80040a0:	4a30      	ldr	r2, [pc, #192]	@ (8004164 <HAL_GPIO_Init+0x300>)
 80040a2:	693b      	ldr	r3, [r7, #16]
 80040a4:	6093      	str	r3, [r2, #8]
 80040a6:	4b2f      	ldr	r3, [pc, #188]	@ (8004164 <HAL_GPIO_Init+0x300>)
 80040a8:	68db      	ldr	r3, [r3, #12]
 80040aa:	613b      	str	r3, [r7, #16]
 80040ac:	68fb      	ldr	r3, [r7, #12]
 80040ae:	43db      	mvns	r3, r3
 80040b0:	693a      	ldr	r2, [r7, #16]
 80040b2:	4013      	ands	r3, r2
 80040b4:	613b      	str	r3, [r7, #16]
 80040b6:	683b      	ldr	r3, [r7, #0]
 80040b8:	685b      	ldr	r3, [r3, #4]
 80040ba:	f403 1300 	and.w	r3, r3, #2097152	@ 0x200000
 80040be:	2b00      	cmp	r3, #0
 80040c0:	d003      	beq.n	80040ca <HAL_GPIO_Init+0x266>
 80040c2:	693a      	ldr	r2, [r7, #16]
 80040c4:	68fb      	ldr	r3, [r7, #12]
 80040c6:	4313      	orrs	r3, r2
 80040c8:	613b      	str	r3, [r7, #16]
 80040ca:	4a26      	ldr	r2, [pc, #152]	@ (8004164 <HAL_GPIO_Init+0x300>)
 80040cc:	693b      	ldr	r3, [r7, #16]
 80040ce:	60d3      	str	r3, [r2, #12]
 80040d0:	4b24      	ldr	r3, [pc, #144]	@ (8004164 <HAL_GPIO_Init+0x300>)
 80040d2:	685b      	ldr	r3, [r3, #4]
 80040d4:	613b      	str	r3, [r7, #16]
 80040d6:	68fb      	ldr	r3, [r7, #12]
 80040d8:	43db      	mvns	r3, r3
 80040da:	693a      	ldr	r2, [r7, #16]
 80040dc:	4013      	ands	r3, r2
 80040de:	613b      	str	r3, [r7, #16]
 80040e0:	683b      	ldr	r3, [r7, #0]
 80040e2:	685b      	ldr	r3, [r3, #4]
 80040e4:	f403 3300 	and.w	r3, r3, #131072	@ 0x20000
 80040e8:	2b00      	cmp	r3, #0
 80040ea:	d003      	beq.n	80040f4 <HAL_GPIO_Init+0x290>
 80040ec:	693a      	ldr	r2, [r7, #16]
 80040ee:	68fb      	ldr	r3, [r7, #12]
 80040f0:	4313      	orrs	r3, r2
 80040f2:	613b      	str	r3, [r7, #16]
 80040f4:	4a1b      	ldr	r2, [pc, #108]	@ (8004164 <HAL_GPIO_Init+0x300>)
 80040f6:	693b      	ldr	r3, [r7, #16]
 80040f8:	6053      	str	r3, [r2, #4]
 80040fa:	4b1a      	ldr	r3, [pc, #104]	@ (8004164 <HAL_GPIO_Init+0x300>)
 80040fc:	681b      	ldr	r3, [r3, #0]
 80040fe:	613b      	str	r3, [r7, #16]
 8004100:	68fb      	ldr	r3, [r7, #12]
 8004102:	43db      	mvns	r3, r3
 8004104:	693a      	ldr	r2, [r7, #16]
 8004106:	4013      	ands	r3, r2
 8004108:	613b      	str	r3, [r7, #16]
 800410a:	683b      	ldr	r3, [r7, #0]
 800410c:	685b      	ldr	r3, [r3, #4]
 800410e:	f403 3380 	and.w	r3, r3, #65536	@ 0x10000
 8004112:	2b00      	cmp	r3, #0
 8004114:	d003      	beq.n	800411e <HAL_GPIO_Init+0x2ba>
 8004116:	693a      	ldr	r2, [r7, #16]
 8004118:	68fb      	ldr	r3, [r7, #12]
 800411a:	4313      	orrs	r3, r2
 800411c:	613b      	str	r3, [r7, #16]
 800411e:	4a11      	ldr	r2, [pc, #68]	@ (8004164 <HAL_GPIO_Init+0x300>)
 8004120:	693b      	ldr	r3, [r7, #16]
 8004122:	6013      	str	r3, [r2, #0]
 8004124:	697b      	ldr	r3, [r7, #20]
 8004126:	3301      	adds	r3, #1
 8004128:	617b      	str	r3, [r7, #20]
 800412a:	683b      	ldr	r3, [r7, #0]
 800412c:	681a      	ldr	r2, [r3, #0]
 800412e:	697b      	ldr	r3, [r7, #20]
 8004130:	fa22 f303 	lsr.w	r3, r2, r3
 8004134:	2b00      	cmp	r3, #0
 8004136:	f47f ae9d 	bne.w	8003e74 <HAL_GPIO_Init+0x10>
 800413a:	bf00      	nop
 800413c:	bf00      	nop
 800413e:	371c      	adds	r7, #28
 8004140:	46bd      	mov	sp, r7
 8004142:	f85d 7b04 	ldr.w	r7, [sp], #4
 8004146:	4770      	bx	lr
 8004148:	40021000 	.word	0x40021000
 800414c:	40010000 	.word	0x40010000
 8004150:	48000400 	.word	0x48000400
 8004154:	48000800 	.word	0x48000800
 8004158:	48000c00 	.word	0x48000c00
 800415c:	48001000 	.word	0x48001000
 8004160:	48001400 	.word	0x48001400
 8004164:	40010400 	.word	0x40010400

08004168 <HAL_GPIO_WritePin>:
 8004168:	b480      	push	{r7}
 800416a:	b083      	sub	sp, #12
 800416c:	af00      	add	r7, sp, #0
 800416e:	6078      	str	r0, [r7, #4]
 8004170:	460b      	mov	r3, r1
 8004172:	807b      	strh	r3, [r7, #2]
 8004174:	4613      	mov	r3, r2
 8004176:	707b      	strb	r3, [r7, #1]
 8004178:	787b      	ldrb	r3, [r7, #1]
 800417a:	2b00      	cmp	r3, #0
 800417c:	d003      	beq.n	8004186 <HAL_GPIO_WritePin+0x1e>
 800417e:	887a      	ldrh	r2, [r7, #2]
 8004180:	687b      	ldr	r3, [r7, #4]
 8004182:	619a      	str	r2, [r3, #24]
 8004184:	e002      	b.n	800418c <HAL_GPIO_WritePin+0x24>
 8004186:	887a      	ldrh	r2, [r7, #2]
 8004188:	687b      	ldr	r3, [r7, #4]
 800418a:	629a      	str	r2, [r3, #40]	@ 0x28
 800418c:	bf00      	nop
 800418e:	370c      	adds	r7, #12
 8004190:	46bd      	mov	sp, r7
 8004192:	f85d 7b04 	ldr.w	r7, [sp], #4
 8004196:	4770      	bx	lr

08004198 <HAL_GPIO_EXTI_IRQHandler>:
 8004198:	b580      	push	{r7, lr}
 800419a:	b082      	sub	sp, #8
 800419c:	af00      	add	r7, sp, #0
 800419e:	4603      	mov	r3, r0
 80041a0:	80fb      	strh	r3, [r7, #6]
 80041a2:	4b08      	ldr	r3, [pc, #32]	@ (80041c4 <HAL_GPIO_EXTI_IRQHandler+0x2c>)
 80041a4:	695a      	ldr	r2, [r3, #20]
 80041a6:	88fb      	ldrh	r3, [r7, #6]
 80041a8:	4013      	ands	r3, r2
 80041aa:	2b00      	cmp	r3, #0
 80041ac:	d006      	beq.n	80041bc <HAL_GPIO_EXTI_IRQHandler+0x24>
 80041ae:	4a05      	ldr	r2, [pc, #20]	@ (80041c4 <HAL_GPIO_EXTI_IRQHandler+0x2c>)
 80041b0:	88fb      	ldrh	r3, [r7, #6]
 80041b2:	6153      	str	r3, [r2, #20]
 80041b4:	88fb      	ldrh	r3, [r7, #6]
 80041b6:	4618      	mov	r0, r3
 80041b8:	f7fd fcfc 	bl	8001bb4 <HAL_GPIO_EXTI_Callback>
 80041bc:	bf00      	nop
 80041be:	3708      	adds	r7, #8
 80041c0:	46bd      	mov	sp, r7
 80041c2:	bd80      	pop	{r7, pc}
 80041c4:	40010400 	.word	0x40010400

080041c8 <HAL_PWREx_ControlVoltageScaling>:
 80041c8:	b480      	push	{r7}
 80041ca:	b085      	sub	sp, #20
 80041cc:	af00      	add	r7, sp, #0
 80041ce:	6078      	str	r0, [r7, #4]
 80041d0:	687b      	ldr	r3, [r7, #4]
 80041d2:	2b00      	cmp	r3, #0
 80041d4:	d141      	bne.n	800425a <HAL_PWREx_ControlVoltageScaling+0x92>
 80041d6:	4b4b      	ldr	r3, [pc, #300]	@ (8004304 <HAL_PWREx_ControlVoltageScaling+0x13c>)
 80041d8:	681b      	ldr	r3, [r3, #0]
 80041da:	f403 63c0 	and.w	r3, r3, #1536	@ 0x600
 80041de:	f5b3 6f80 	cmp.w	r3, #1024	@ 0x400
 80041e2:	d131      	bne.n	8004248 <HAL_PWREx_ControlVoltageScaling+0x80>
 80041e4:	4b47      	ldr	r3, [pc, #284]	@ (8004304 <HAL_PWREx_ControlVoltageScaling+0x13c>)
 80041e6:	f8d3 3080 	ldr.w	r3, [r3, #128]	@ 0x80
 80041ea:	4a46      	ldr	r2, [pc, #280]	@ (8004304 <HAL_PWREx_ControlVoltageScaling+0x13c>)
 80041ec:	f423 7380 	bic.w	r3, r3, #256	@ 0x100
 80041f0:	f8c2 3080 	str.w	r3, [r2, #128]	@ 0x80
 80041f4:	4b43      	ldr	r3, [pc, #268]	@ (8004304 <HAL_PWREx_ControlVoltageScaling+0x13c>)
 80041f6:	681b      	ldr	r3, [r3, #0]
 80041f8:	f423 63c0 	bic.w	r3, r3, #1536	@ 0x600
 80041fc:	4a41      	ldr	r2, [pc, #260]	@ (8004304 <HAL_PWREx_ControlVoltageScaling+0x13c>)
 80041fe:	f443 7300 	orr.w	r3, r3, #512	@ 0x200
 8004202:	6013      	str	r3, [r2, #0]
 8004204:	4b40      	ldr	r3, [pc, #256]	@ (8004308 <HAL_PWREx_ControlVoltageScaling+0x140>)
 8004206:	681b      	ldr	r3, [r3, #0]
 8004208:	2232      	movs	r2, #50	@ 0x32
 800420a:	fb02 f303 	mul.w	r3, r2, r3
 800420e:	4a3f      	ldr	r2, [pc, #252]	@ (800430c <HAL_PWREx_ControlVoltageScaling+0x144>)
 8004210:	fba2 2303 	umull	r2, r3, r2, r3
 8004214:	0c9b      	lsrs	r3, r3, #18
 8004216:	3301      	adds	r3, #1
 8004218:	60fb      	str	r3, [r7, #12]
 800421a:	e002      	b.n	8004222 <HAL_PWREx_ControlVoltageScaling+0x5a>
 800421c:	68fb      	ldr	r3, [r7, #12]
 800421e:	3b01      	subs	r3, #1
 8004220:	60fb      	str	r3, [r7, #12]
 8004222:	4b38      	ldr	r3, [pc, #224]	@ (8004304 <HAL_PWREx_ControlVoltageScaling+0x13c>)
 8004224:	695b      	ldr	r3, [r3, #20]
 8004226:	f403 6380 	and.w	r3, r3, #1024	@ 0x400
 800422a:	f5b3 6f80 	cmp.w	r3, #1024	@ 0x400
 800422e:	d102      	bne.n	8004236 <HAL_PWREx_ControlVoltageScaling+0x6e>
 8004230:	68fb      	ldr	r3, [r7, #12]
 8004232:	2b00      	cmp	r3, #0
 8004234:	d1f2      	bne.n	800421c <HAL_PWREx_ControlVoltageScaling+0x54>
 8004236:	4b33      	ldr	r3, [pc, #204]	@ (8004304 <HAL_PWREx_ControlVoltageScaling+0x13c>)
 8004238:	695b      	ldr	r3, [r3, #20]
 800423a:	f403 6380 	and.w	r3, r3, #1024	@ 0x400
 800423e:	f5b3 6f80 	cmp.w	r3, #1024	@ 0x400
 8004242:	d158      	bne.n	80042f6 <HAL_PWREx_ControlVoltageScaling+0x12e>
 8004244:	2303      	movs	r3, #3
 8004246:	e057      	b.n	80042f8 <HAL_PWREx_ControlVoltageScaling+0x130>
 8004248:	4b2e      	ldr	r3, [pc, #184]	@ (8004304 <HAL_PWREx_ControlVoltageScaling+0x13c>)
 800424a:	f8d3 3080 	ldr.w	r3, [r3, #128]	@ 0x80
 800424e:	4a2d      	ldr	r2, [pc, #180]	@ (8004304 <HAL_PWREx_ControlVoltageScaling+0x13c>)
 8004250:	f423 7380 	bic.w	r3, r3, #256	@ 0x100
 8004254:	f8c2 3080 	str.w	r3, [r2, #128]	@ 0x80
 8004258:	e04d      	b.n	80042f6 <HAL_PWREx_ControlVoltageScaling+0x12e>
 800425a:	687b      	ldr	r3, [r7, #4]
 800425c:	f5b3 7f00 	cmp.w	r3, #512	@ 0x200
 8004260:	d141      	bne.n	80042e6 <HAL_PWREx_ControlVoltageScaling+0x11e>
 8004262:	4b28      	ldr	r3, [pc, #160]	@ (8004304 <HAL_PWREx_ControlVoltageScaling+0x13c>)
 8004264:	681b      	ldr	r3, [r3, #0]
 8004266:	f403 63c0 	and.w	r3, r3, #1536	@ 0x600
 800426a:	f5b3 6f80 	cmp.w	r3, #1024	@ 0x400
 800426e:	d131      	bne.n	80042d4 <HAL_PWREx_ControlVoltageScaling+0x10c>
 8004270:	4b24      	ldr	r3, [pc, #144]	@ (8004304 <HAL_PWREx_ControlVoltageScaling+0x13c>)
 8004272:	f8d3 3080 	ldr.w	r3, [r3, #128]	@ 0x80
 8004276:	4a23      	ldr	r2, [pc, #140]	@ (8004304 <HAL_PWREx_ControlVoltageScaling+0x13c>)
 8004278:	f443 7380 	orr.w	r3, r3, #256	@ 0x100
 800427c:	f8c2 3080 	str.w	r3, [r2, #128]	@ 0x80
 8004280:	4b20      	ldr	r3, [pc, #128]	@ (8004304 <HAL_PWREx_ControlVoltageScaling+0x13c>)
 8004282:	681b      	ldr	r3, [r3, #0]
 8004284:	f423 63c0 	bic.w	r3, r3, #1536	@ 0x600
 8004288:	4a1e      	ldr	r2, [pc, #120]	@ (8004304 <HAL_PWREx_ControlVoltageScaling+0x13c>)
 800428a:	f443 7300 	orr.w	r3, r3, #512	@ 0x200
 800428e:	6013      	str	r3, [r2, #0]
 8004290:	4b1d      	ldr	r3, [pc, #116]	@ (8004308 <HAL_PWREx_ControlVoltageScaling+0x140>)
 8004292:	681b      	ldr	r3, [r3, #0]
 8004294:	2232      	movs	r2, #50	@ 0x32
 8004296:	fb02 f303 	mul.w	r3, r2, r3
 800429a:	4a1c      	ldr	r2, [pc, #112]	@ (800430c <HAL_PWREx_ControlVoltageScaling+0x144>)
 800429c:	fba2 2303 	umull	r2, r3, r2, r3
 80042a0:	0c9b      	lsrs	r3, r3, #18
 80042a2:	3301      	adds	r3, #1
 80042a4:	60fb      	str	r3, [r7, #12]
 80042a6:	e002      	b.n	80042ae <HAL_PWREx_ControlVoltageScaling+0xe6>
 80042a8:	68fb      	ldr	r3, [r7, #12]
 80042aa:	3b01      	subs	r3, #1
 80042ac:	60fb      	str	r3, [r7, #12]
 80042ae:	4b15      	ldr	r3, [pc, #84]	@ (8004304 <HAL_PWREx_ControlVoltageScaling+0x13c>)
 80042b0:	695b      	ldr	r3, [r3, #20]
 80042b2:	f403 6380 	and.w	r3, r3, #1024	@ 0x400
 80042b6:	f5b3 6f80 	cmp.w	r3, #1024	@ 0x400
 80042ba:	d102      	bne.n	80042c2 <HAL_PWREx_ControlVoltageScaling+0xfa>
 80042bc:	68fb      	ldr	r3, [r7, #12]
 80042be:	2b00      	cmp	r3, #0
 80042c0:	d1f2      	bne.n	80042a8 <HAL_PWREx_ControlVoltageScaling+0xe0>
 80042c2:	4b10      	ldr	r3, [pc, #64]	@ (8004304 <HAL_PWREx_ControlVoltageScaling+0x13c>)
 80042c4:	695b      	ldr	r3, [r3, #20]
 80042c6:	f403 6380 	and.w	r3, r3, #1024	@ 0x400
 80042ca:	f5b3 6f80 	cmp.w	r3, #1024	@ 0x400
 80042ce:	d112      	bne.n	80042f6 <HAL_PWREx_ControlVoltageScaling+0x12e>
 80042d0:	2303      	movs	r3, #3
 80042d2:	e011      	b.n	80042f8 <HAL_PWREx_ControlVoltageScaling+0x130>
 80042d4:	4b0b      	ldr	r3, [pc, #44]	@ (8004304 <HAL_PWREx_ControlVoltageScaling+0x13c>)
 80042d6:	f8d3 3080 	ldr.w	r3, [r3, #128]	@ 0x80
 80042da:	4a0a      	ldr	r2, [pc, #40]	@ (8004304 <HAL_PWREx_ControlVoltageScaling+0x13c>)
 80042dc:	f443 7380 	orr.w	r3, r3, #256	@ 0x100
 80042e0:	f8c2 3080 	str.w	r3, [r2, #128]	@ 0x80
 80042e4:	e007      	b.n	80042f6 <HAL_PWREx_ControlVoltageScaling+0x12e>
 80042e6:	4b07      	ldr	r3, [pc, #28]	@ (8004304 <HAL_PWREx_ControlVoltageScaling+0x13c>)
 80042e8:	681b      	ldr	r3, [r3, #0]
 80042ea:	f423 63c0 	bic.w	r3, r3, #1536	@ 0x600
 80042ee:	4a05      	ldr	r2, [pc, #20]	@ (8004304 <HAL_PWREx_ControlVoltageScaling+0x13c>)
 80042f0:	f443 6380 	orr.w	r3, r3, #1024	@ 0x400
 80042f4:	6013      	str	r3, [r2, #0]
 80042f6:	2300      	movs	r3, #0
 80042f8:	4618      	mov	r0, r3
 80042fa:	3714      	adds	r7, #20
 80042fc:	46bd      	mov	sp, r7
 80042fe:	f85d 7b04 	ldr.w	r7, [sp], #4
 8004302:	4770      	bx	lr
 8004304:	40007000 	.word	0x40007000
 8004308:	20000208 	.word	0x20000208
 800430c:	431bde83 	.word	0x431bde83

08004310 <HAL_PWREx_DisableUCPDDeadBattery>:
 8004310:	b480      	push	{r7}
 8004312:	af00      	add	r7, sp, #0
 8004314:	4b05      	ldr	r3, [pc, #20]	@ (800432c <HAL_PWREx_DisableUCPDDeadBattery+0x1c>)
 8004316:	689b      	ldr	r3, [r3, #8]
 8004318:	4a04      	ldr	r2, [pc, #16]	@ (800432c <HAL_PWREx_DisableUCPDDeadBattery+0x1c>)
 800431a:	f443 4380 	orr.w	r3, r3, #16384	@ 0x4000
 800431e:	6093      	str	r3, [r2, #8]
 8004320:	bf00      	nop
 8004322:	46bd      	mov	sp, r7
 8004324:	f85d 7b04 	ldr.w	r7, [sp], #4
 8004328:	4770      	bx	lr
 800432a:	bf00      	nop
 800432c:	40007000 	.word	0x40007000

08004330 <HAL_RCC_OscConfig>:
 8004330:	b580      	push	{r7, lr}
 8004332:	b088      	sub	sp, #32
 8004334:	af00      	add	r7, sp, #0
 8004336:	6078      	str	r0, [r7, #4]
 8004338:	687b      	ldr	r3, [r7, #4]
 800433a:	2b00      	cmp	r3, #0
 800433c:	d101      	bne.n	8004342 <HAL_RCC_OscConfig+0x12>
 800433e:	2301      	movs	r3, #1
 8004340:	e2fe      	b.n	8004940 <HAL_RCC_OscConfig+0x610>
 8004342:	687b      	ldr	r3, [r7, #4]
 8004344:	681b      	ldr	r3, [r3, #0]
 8004346:	f003 0301 	and.w	r3, r3, #1
 800434a:	2b00      	cmp	r3, #0
 800434c:	d075      	beq.n	800443a <HAL_RCC_OscConfig+0x10a>
 800434e:	4b97      	ldr	r3, [pc, #604]	@ (80045ac <HAL_RCC_OscConfig+0x27c>)
 8004350:	689b      	ldr	r3, [r3, #8]
 8004352:	f003 030c 	and.w	r3, r3, #12
 8004356:	61bb      	str	r3, [r7, #24]
 8004358:	4b94      	ldr	r3, [pc, #592]	@ (80045ac <HAL_RCC_OscConfig+0x27c>)
 800435a:	68db      	ldr	r3, [r3, #12]
 800435c:	f003 0303 	and.w	r3, r3, #3
 8004360:	617b      	str	r3, [r7, #20]
 8004362:	69bb      	ldr	r3, [r7, #24]
 8004364:	2b0c      	cmp	r3, #12
 8004366:	d102      	bne.n	800436e <HAL_RCC_OscConfig+0x3e>
 8004368:	697b      	ldr	r3, [r7, #20]
 800436a:	2b03      	cmp	r3, #3
 800436c:	d002      	beq.n	8004374 <HAL_RCC_OscConfig+0x44>
 800436e:	69bb      	ldr	r3, [r7, #24]
 8004370:	2b08      	cmp	r3, #8
 8004372:	d10b      	bne.n	800438c <HAL_RCC_OscConfig+0x5c>
 8004374:	4b8d      	ldr	r3, [pc, #564]	@ (80045ac <HAL_RCC_OscConfig+0x27c>)
 8004376:	681b      	ldr	r3, [r3, #0]
 8004378:	f403 3300 	and.w	r3, r3, #131072	@ 0x20000
 800437c:	2b00      	cmp	r3, #0
 800437e:	d05b      	beq.n	8004438 <HAL_RCC_OscConfig+0x108>
 8004380:	687b      	ldr	r3, [r7, #4]
 8004382:	685b      	ldr	r3, [r3, #4]
 8004384:	2b00      	cmp	r3, #0
 8004386:	d157      	bne.n	8004438 <HAL_RCC_OscConfig+0x108>
 8004388:	2301      	movs	r3, #1
 800438a:	e2d9      	b.n	8004940 <HAL_RCC_OscConfig+0x610>
 800438c:	687b      	ldr	r3, [r7, #4]
 800438e:	685b      	ldr	r3, [r3, #4]
 8004390:	f5b3 3f80 	cmp.w	r3, #65536	@ 0x10000
 8004394:	d106      	bne.n	80043a4 <HAL_RCC_OscConfig+0x74>
 8004396:	4b85      	ldr	r3, [pc, #532]	@ (80045ac <HAL_RCC_OscConfig+0x27c>)
 8004398:	681b      	ldr	r3, [r3, #0]
 800439a:	4a84      	ldr	r2, [pc, #528]	@ (80045ac <HAL_RCC_OscConfig+0x27c>)
 800439c:	f443 3380 	orr.w	r3, r3, #65536	@ 0x10000
 80043a0:	6013      	str	r3, [r2, #0]
 80043a2:	e01d      	b.n	80043e0 <HAL_RCC_OscConfig+0xb0>
 80043a4:	687b      	ldr	r3, [r7, #4]
 80043a6:	685b      	ldr	r3, [r3, #4]
 80043a8:	f5b3 2fa0 	cmp.w	r3, #327680	@ 0x50000
 80043ac:	d10c      	bne.n	80043c8 <HAL_RCC_OscConfig+0x98>
 80043ae:	4b7f      	ldr	r3, [pc, #508]	@ (80045ac <HAL_RCC_OscConfig+0x27c>)
 80043b0:	681b      	ldr	r3, [r3, #0]
 80043b2:	4a7e      	ldr	r2, [pc, #504]	@ (80045ac <HAL_RCC_OscConfig+0x27c>)
 80043b4:	f443 2380 	orr.w	r3, r3, #262144	@ 0x40000
 80043b8:	6013      	str	r3, [r2, #0]
 80043ba:	4b7c      	ldr	r3, [pc, #496]	@ (80045ac <HAL_RCC_OscConfig+0x27c>)
 80043bc:	681b      	ldr	r3, [r3, #0]
 80043be:	4a7b      	ldr	r2, [pc, #492]	@ (80045ac <HAL_RCC_OscConfig+0x27c>)
 80043c0:	f443 3380 	orr.w	r3, r3, #65536	@ 0x10000
 80043c4:	6013      	str	r3, [r2, #0]
 80043c6:	e00b      	b.n	80043e0 <HAL_RCC_OscConfig+0xb0>
 80043c8:	4b78      	ldr	r3, [pc, #480]	@ (80045ac <HAL_RCC_OscConfig+0x27c>)
 80043ca:	681b      	ldr	r3, [r3, #0]
 80043cc:	4a77      	ldr	r2, [pc, #476]	@ (80045ac <HAL_RCC_OscConfig+0x27c>)
 80043ce:	f423 3380 	bic.w	r3, r3, #65536	@ 0x10000
 80043d2:	6013      	str	r3, [r2, #0]
 80043d4:	4b75      	ldr	r3, [pc, #468]	@ (80045ac <HAL_RCC_OscConfig+0x27c>)
 80043d6:	681b      	ldr	r3, [r3, #0]
 80043d8:	4a74      	ldr	r2, [pc, #464]	@ (80045ac <HAL_RCC_OscConfig+0x27c>)
 80043da:	f423 2380 	bic.w	r3, r3, #262144	@ 0x40000
 80043de:	6013      	str	r3, [r2, #0]
 80043e0:	687b      	ldr	r3, [r7, #4]
 80043e2:	685b      	ldr	r3, [r3, #4]
 80043e4:	2b00      	cmp	r3, #0
 80043e6:	d013      	beq.n	8004410 <HAL_RCC_OscConfig+0xe0>
 80043e8:	f7fd ffe2 	bl	80023b0 <HAL_GetTick>
 80043ec:	6138      	str	r0, [r7, #16]
 80043ee:	e008      	b.n	8004402 <HAL_RCC_OscConfig+0xd2>
 80043f0:	f7fd ffde 	bl	80023b0 <HAL_GetTick>
 80043f4:	4602      	mov	r2, r0
 80043f6:	693b      	ldr	r3, [r7, #16]
 80043f8:	1ad3      	subs	r3, r2, r3
 80043fa:	2b64      	cmp	r3, #100	@ 0x64
 80043fc:	d901      	bls.n	8004402 <HAL_RCC_OscConfig+0xd2>
 80043fe:	2303      	movs	r3, #3
 8004400:	e29e      	b.n	8004940 <HAL_RCC_OscConfig+0x610>
 8004402:	4b6a      	ldr	r3, [pc, #424]	@ (80045ac <HAL_RCC_OscConfig+0x27c>)
 8004404:	681b      	ldr	r3, [r3, #0]
 8004406:	f403 3300 	and.w	r3, r3, #131072	@ 0x20000
 800440a:	2b00      	cmp	r3, #0
 800440c:	d0f0      	beq.n	80043f0 <HAL_RCC_OscConfig+0xc0>
 800440e:	e014      	b.n	800443a <HAL_RCC_OscConfig+0x10a>
 8004410:	f7fd ffce 	bl	80023b0 <HAL_GetTick>
 8004414:	6138      	str	r0, [r7, #16]
 8004416:	e008      	b.n	800442a <HAL_RCC_OscConfig+0xfa>
 8004418:	f7fd ffca 	bl	80023b0 <HAL_GetTick>
 800441c:	4602      	mov	r2, r0
 800441e:	693b      	ldr	r3, [r7, #16]
 8004420:	1ad3      	subs	r3, r2, r3
 8004422:	2b64      	cmp	r3, #100	@ 0x64
 8004424:	d901      	bls.n	800442a <HAL_RCC_OscConfig+0xfa>
 8004426:	2303      	movs	r3, #3
 8004428:	e28a      	b.n	8004940 <HAL_RCC_OscConfig+0x610>
 800442a:	4b60      	ldr	r3, [pc, #384]	@ (80045ac <HAL_RCC_OscConfig+0x27c>)
 800442c:	681b      	ldr	r3, [r3, #0]
 800442e:	f403 3300 	and.w	r3, r3, #131072	@ 0x20000
 8004432:	2b00      	cmp	r3, #0
 8004434:	d1f0      	bne.n	8004418 <HAL_RCC_OscConfig+0xe8>
 8004436:	e000      	b.n	800443a <HAL_RCC_OscConfig+0x10a>
 8004438:	bf00      	nop
 800443a:	687b      	ldr	r3, [r7, #4]
 800443c:	681b      	ldr	r3, [r3, #0]
 800443e:	f003 0302 	and.w	r3, r3, #2
 8004442:	2b00      	cmp	r3, #0
 8004444:	d075      	beq.n	8004532 <HAL_RCC_OscConfig+0x202>
 8004446:	4b59      	ldr	r3, [pc, #356]	@ (80045ac <HAL_RCC_OscConfig+0x27c>)
 8004448:	689b      	ldr	r3, [r3, #8]
 800444a:	f003 030c 	and.w	r3, r3, #12
 800444e:	61bb      	str	r3, [r7, #24]
 8004450:	4b56      	ldr	r3, [pc, #344]	@ (80045ac <HAL_RCC_OscConfig+0x27c>)
 8004452:	68db      	ldr	r3, [r3, #12]
 8004454:	f003 0303 	and.w	r3, r3, #3
 8004458:	617b      	str	r3, [r7, #20]
 800445a:	69bb      	ldr	r3, [r7, #24]
 800445c:	2b0c      	cmp	r3, #12
 800445e:	d102      	bne.n	8004466 <HAL_RCC_OscConfig+0x136>
 8004460:	697b      	ldr	r3, [r7, #20]
 8004462:	2b02      	cmp	r3, #2
 8004464:	d002      	beq.n	800446c <HAL_RCC_OscConfig+0x13c>
 8004466:	69bb      	ldr	r3, [r7, #24]
 8004468:	2b04      	cmp	r3, #4
 800446a:	d11f      	bne.n	80044ac <HAL_RCC_OscConfig+0x17c>
 800446c:	4b4f      	ldr	r3, [pc, #316]	@ (80045ac <HAL_RCC_OscConfig+0x27c>)
 800446e:	681b      	ldr	r3, [r3, #0]
 8004470:	f403 6380 	and.w	r3, r3, #1024	@ 0x400
 8004474:	2b00      	cmp	r3, #0
 8004476:	d005      	beq.n	8004484 <HAL_RCC_OscConfig+0x154>
 8004478:	687b      	ldr	r3, [r7, #4]
 800447a:	68db      	ldr	r3, [r3, #12]
 800447c:	2b00      	cmp	r3, #0
 800447e:	d101      	bne.n	8004484 <HAL_RCC_OscConfig+0x154>
 8004480:	2301      	movs	r3, #1
 8004482:	e25d      	b.n	8004940 <HAL_RCC_OscConfig+0x610>
 8004484:	4b49      	ldr	r3, [pc, #292]	@ (80045ac <HAL_RCC_OscConfig+0x27c>)
 8004486:	685b      	ldr	r3, [r3, #4]
 8004488:	f023 42fe 	bic.w	r2, r3, #2130706432	@ 0x7f000000
 800448c:	687b      	ldr	r3, [r7, #4]
 800448e:	691b      	ldr	r3, [r3, #16]
 8004490:	061b      	lsls	r3, r3, #24
 8004492:	4946      	ldr	r1, [pc, #280]	@ (80045ac <HAL_RCC_OscConfig+0x27c>)
 8004494:	4313      	orrs	r3, r2
 8004496:	604b      	str	r3, [r1, #4]
 8004498:	4b45      	ldr	r3, [pc, #276]	@ (80045b0 <HAL_RCC_OscConfig+0x280>)
 800449a:	681b      	ldr	r3, [r3, #0]
 800449c:	4618      	mov	r0, r3
 800449e:	f7fd ff3b 	bl	8002318 <HAL_InitTick>
 80044a2:	4603      	mov	r3, r0
 80044a4:	2b00      	cmp	r3, #0
 80044a6:	d043      	beq.n	8004530 <HAL_RCC_OscConfig+0x200>
 80044a8:	2301      	movs	r3, #1
 80044aa:	e249      	b.n	8004940 <HAL_RCC_OscConfig+0x610>
 80044ac:	687b      	ldr	r3, [r7, #4]
 80044ae:	68db      	ldr	r3, [r3, #12]
 80044b0:	2b00      	cmp	r3, #0
 80044b2:	d023      	beq.n	80044fc <HAL_RCC_OscConfig+0x1cc>
 80044b4:	4b3d      	ldr	r3, [pc, #244]	@ (80045ac <HAL_RCC_OscConfig+0x27c>)
 80044b6:	681b      	ldr	r3, [r3, #0]
 80044b8:	4a3c      	ldr	r2, [pc, #240]	@ (80045ac <HAL_RCC_OscConfig+0x27c>)
 80044ba:	f443 7380 	orr.w	r3, r3, #256	@ 0x100
 80044be:	6013      	str	r3, [r2, #0]
 80044c0:	f7fd ff76 	bl	80023b0 <HAL_GetTick>
 80044c4:	6138      	str	r0, [r7, #16]
 80044c6:	e008      	b.n	80044da <HAL_RCC_OscConfig+0x1aa>
 80044c8:	f7fd ff72 	bl	80023b0 <HAL_GetTick>
 80044cc:	4602      	mov	r2, r0
 80044ce:	693b      	ldr	r3, [r7, #16]
 80044d0:	1ad3      	subs	r3, r2, r3
 80044d2:	2b02      	cmp	r3, #2
 80044d4:	d901      	bls.n	80044da <HAL_RCC_OscConfig+0x1aa>
 80044d6:	2303      	movs	r3, #3
 80044d8:	e232      	b.n	8004940 <HAL_RCC_OscConfig+0x610>
 80044da:	4b34      	ldr	r3, [pc, #208]	@ (80045ac <HAL_RCC_OscConfig+0x27c>)
 80044dc:	681b      	ldr	r3, [r3, #0]
 80044de:	f403 6380 	and.w	r3, r3, #1024	@ 0x400
 80044e2:	2b00      	cmp	r3, #0
 80044e4:	d0f0      	beq.n	80044c8 <HAL_RCC_OscConfig+0x198>
 80044e6:	4b31      	ldr	r3, [pc, #196]	@ (80045ac <HAL_RCC_OscConfig+0x27c>)
 80044e8:	685b      	ldr	r3, [r3, #4]
 80044ea:	f023 42fe 	bic.w	r2, r3, #2130706432	@ 0x7f000000
 80044ee:	687b      	ldr	r3, [r7, #4]
 80044f0:	691b      	ldr	r3, [r3, #16]
 80044f2:	061b      	lsls	r3, r3, #24
 80044f4:	492d      	ldr	r1, [pc, #180]	@ (80045ac <HAL_RCC_OscConfig+0x27c>)
 80044f6:	4313      	orrs	r3, r2
 80044f8:	604b      	str	r3, [r1, #4]
 80044fa:	e01a      	b.n	8004532 <HAL_RCC_OscConfig+0x202>
 80044fc:	4b2b      	ldr	r3, [pc, #172]	@ (80045ac <HAL_RCC_OscConfig+0x27c>)
 80044fe:	681b      	ldr	r3, [r3, #0]
 8004500:	4a2a      	ldr	r2, [pc, #168]	@ (80045ac <HAL_RCC_OscConfig+0x27c>)
 8004502:	f423 7380 	bic.w	r3, r3, #256	@ 0x100
 8004506:	6013      	str	r3, [r2, #0]
 8004508:	f7fd ff52 	bl	80023b0 <HAL_GetTick>
 800450c:	6138      	str	r0, [r7, #16]
 800450e:	e008      	b.n	8004522 <HAL_RCC_OscConfig+0x1f2>
 8004510:	f7fd ff4e 	bl	80023b0 <HAL_GetTick>
 8004514:	4602      	mov	r2, r0
 8004516:	693b      	ldr	r3, [r7, #16]
 8004518:	1ad3      	subs	r3, r2, r3
 800451a:	2b02      	cmp	r3, #2
 800451c:	d901      	bls.n	8004522 <HAL_RCC_OscConfig+0x1f2>
 800451e:	2303      	movs	r3, #3
 8004520:	e20e      	b.n	8004940 <HAL_RCC_OscConfig+0x610>
 8004522:	4b22      	ldr	r3, [pc, #136]	@ (80045ac <HAL_RCC_OscConfig+0x27c>)
 8004524:	681b      	ldr	r3, [r3, #0]
 8004526:	f403 6380 	and.w	r3, r3, #1024	@ 0x400
 800452a:	2b00      	cmp	r3, #0
 800452c:	d1f0      	bne.n	8004510 <HAL_RCC_OscConfig+0x1e0>
 800452e:	e000      	b.n	8004532 <HAL_RCC_OscConfig+0x202>
 8004530:	bf00      	nop
 8004532:	687b      	ldr	r3, [r7, #4]
 8004534:	681b      	ldr	r3, [r3, #0]
 8004536:	f003 0308 	and.w	r3, r3, #8
 800453a:	2b00      	cmp	r3, #0
 800453c:	d041      	beq.n	80045c2 <HAL_RCC_OscConfig+0x292>
 800453e:	687b      	ldr	r3, [r7, #4]
 8004540:	695b      	ldr	r3, [r3, #20]
 8004542:	2b00      	cmp	r3, #0
 8004544:	d01c      	beq.n	8004580 <HAL_RCC_OscConfig+0x250>
 8004546:	4b19      	ldr	r3, [pc, #100]	@ (80045ac <HAL_RCC_OscConfig+0x27c>)
 8004548:	f8d3 3094 	ldr.w	r3, [r3, #148]	@ 0x94
 800454c:	4a17      	ldr	r2, [pc, #92]	@ (80045ac <HAL_RCC_OscConfig+0x27c>)
 800454e:	f043 0301 	orr.w	r3, r3, #1
 8004552:	f8c2 3094 	str.w	r3, [r2, #148]	@ 0x94
 8004556:	f7fd ff2b 	bl	80023b0 <HAL_GetTick>
 800455a:	6138      	str	r0, [r7, #16]
 800455c:	e008      	b.n	8004570 <HAL_RCC_OscConfig+0x240>
 800455e:	f7fd ff27 	bl	80023b0 <HAL_GetTick>
 8004562:	4602      	mov	r2, r0
 8004564:	693b      	ldr	r3, [r7, #16]
 8004566:	1ad3      	subs	r3, r2, r3
 8004568:	2b02      	cmp	r3, #2
 800456a:	d901      	bls.n	8004570 <HAL_RCC_OscConfig+0x240>
 800456c:	2303      	movs	r3, #3
 800456e:	e1e7      	b.n	8004940 <HAL_RCC_OscConfig+0x610>
 8004570:	4b0e      	ldr	r3, [pc, #56]	@ (80045ac <HAL_RCC_OscConfig+0x27c>)
 8004572:	f8d3 3094 	ldr.w	r3, [r3, #148]	@ 0x94
 8004576:	f003 0302 	and.w	r3, r3, #2
 800457a:	2b00      	cmp	r3, #0
 800457c:	d0ef      	beq.n	800455e <HAL_RCC_OscConfig+0x22e>
 800457e:	e020      	b.n	80045c2 <HAL_RCC_OscConfig+0x292>
 8004580:	4b0a      	ldr	r3, [pc, #40]	@ (80045ac <HAL_RCC_OscConfig+0x27c>)
 8004582:	f8d3 3094 	ldr.w	r3, [r3, #148]	@ 0x94
 8004586:	4a09      	ldr	r2, [pc, #36]	@ (80045ac <HAL_RCC_OscConfig+0x27c>)
 8004588:	f023 0301 	bic.w	r3, r3, #1
 800458c:	f8c2 3094 	str.w	r3, [r2, #148]	@ 0x94
 8004590:	f7fd ff0e 	bl	80023b0 <HAL_GetTick>
 8004594:	6138      	str	r0, [r7, #16]
 8004596:	e00d      	b.n	80045b4 <HAL_RCC_OscConfig+0x284>
 8004598:	f7fd ff0a 	bl	80023b0 <HAL_GetTick>
 800459c:	4602      	mov	r2, r0
 800459e:	693b      	ldr	r3, [r7, #16]
 80045a0:	1ad3      	subs	r3, r2, r3
 80045a2:	2b02      	cmp	r3, #2
 80045a4:	d906      	bls.n	80045b4 <HAL_RCC_OscConfig+0x284>
 80045a6:	2303      	movs	r3, #3
 80045a8:	e1ca      	b.n	8004940 <HAL_RCC_OscConfig+0x610>
 80045aa:	bf00      	nop
 80045ac:	40021000 	.word	0x40021000
 80045b0:	2000020c 	.word	0x2000020c
 80045b4:	4b8c      	ldr	r3, [pc, #560]	@ (80047e8 <HAL_RCC_OscConfig+0x4b8>)
 80045b6:	f8d3 3094 	ldr.w	r3, [r3, #148]	@ 0x94
 80045ba:	f003 0302 	and.w	r3, r3, #2
 80045be:	2b00      	cmp	r3, #0
 80045c0:	d1ea      	bne.n	8004598 <HAL_RCC_OscConfig+0x268>
 80045c2:	687b      	ldr	r3, [r7, #4]
 80045c4:	681b      	ldr	r3, [r3, #0]
 80045c6:	f003 0304 	and.w	r3, r3, #4
 80045ca:	2b00      	cmp	r3, #0
 80045cc:	f000 80a6 	beq.w	800471c <HAL_RCC_OscConfig+0x3ec>
 80045d0:	2300      	movs	r3, #0
 80045d2:	77fb      	strb	r3, [r7, #31]
 80045d4:	4b84      	ldr	r3, [pc, #528]	@ (80047e8 <HAL_RCC_OscConfig+0x4b8>)
 80045d6:	6d9b      	ldr	r3, [r3, #88]	@ 0x58
 80045d8:	f003 5380 	and.w	r3, r3, #268435456	@ 0x10000000
 80045dc:	2b00      	cmp	r3, #0
 80045de:	d101      	bne.n	80045e4 <HAL_RCC_OscConfig+0x2b4>
 80045e0:	2301      	movs	r3, #1
 80045e2:	e000      	b.n	80045e6 <HAL_RCC_OscConfig+0x2b6>
 80045e4:	2300      	movs	r3, #0
 80045e6:	2b00      	cmp	r3, #0
 80045e8:	d00d      	beq.n	8004606 <HAL_RCC_OscConfig+0x2d6>
 80045ea:	4b7f      	ldr	r3, [pc, #508]	@ (80047e8 <HAL_RCC_OscConfig+0x4b8>)
 80045ec:	6d9b      	ldr	r3, [r3, #88]	@ 0x58
 80045ee:	4a7e      	ldr	r2, [pc, #504]	@ (80047e8 <HAL_RCC_OscConfig+0x4b8>)
 80045f0:	f043 5380 	orr.w	r3, r3, #268435456	@ 0x10000000
 80045f4:	6593      	str	r3, [r2, #88]	@ 0x58
 80045f6:	4b7c      	ldr	r3, [pc, #496]	@ (80047e8 <HAL_RCC_OscConfig+0x4b8>)
 80045f8:	6d9b      	ldr	r3, [r3, #88]	@ 0x58
 80045fa:	f003 5380 	and.w	r3, r3, #268435456	@ 0x10000000
 80045fe:	60fb      	str	r3, [r7, #12]
 8004600:	68fb      	ldr	r3, [r7, #12]
 8004602:	2301      	movs	r3, #1
 8004604:	77fb      	strb	r3, [r7, #31]
 8004606:	4b79      	ldr	r3, [pc, #484]	@ (80047ec <HAL_RCC_OscConfig+0x4bc>)
 8004608:	681b      	ldr	r3, [r3, #0]
 800460a:	f403 7380 	and.w	r3, r3, #256	@ 0x100
 800460e:	2b00      	cmp	r3, #0
 8004610:	d118      	bne.n	8004644 <HAL_RCC_OscConfig+0x314>
 8004612:	4b76      	ldr	r3, [pc, #472]	@ (80047ec <HAL_RCC_OscConfig+0x4bc>)
 8004614:	681b      	ldr	r3, [r3, #0]
 8004616:	4a75      	ldr	r2, [pc, #468]	@ (80047ec <HAL_RCC_OscConfig+0x4bc>)
 8004618:	f443 7380 	orr.w	r3, r3, #256	@ 0x100
 800461c:	6013      	str	r3, [r2, #0]
 800461e:	f7fd fec7 	bl	80023b0 <HAL_GetTick>
 8004622:	6138      	str	r0, [r7, #16]
 8004624:	e008      	b.n	8004638 <HAL_RCC_OscConfig+0x308>
 8004626:	f7fd fec3 	bl	80023b0 <HAL_GetTick>
 800462a:	4602      	mov	r2, r0
 800462c:	693b      	ldr	r3, [r7, #16]
 800462e:	1ad3      	subs	r3, r2, r3
 8004630:	2b02      	cmp	r3, #2
 8004632:	d901      	bls.n	8004638 <HAL_RCC_OscConfig+0x308>
 8004634:	2303      	movs	r3, #3
 8004636:	e183      	b.n	8004940 <HAL_RCC_OscConfig+0x610>
 8004638:	4b6c      	ldr	r3, [pc, #432]	@ (80047ec <HAL_RCC_OscConfig+0x4bc>)
 800463a:	681b      	ldr	r3, [r3, #0]
 800463c:	f403 7380 	and.w	r3, r3, #256	@ 0x100
 8004640:	2b00      	cmp	r3, #0
 8004642:	d0f0      	beq.n	8004626 <HAL_RCC_OscConfig+0x2f6>
 8004644:	687b      	ldr	r3, [r7, #4]
 8004646:	689b      	ldr	r3, [r3, #8]
 8004648:	2b01      	cmp	r3, #1
 800464a:	d108      	bne.n	800465e <HAL_RCC_OscConfig+0x32e>
 800464c:	4b66      	ldr	r3, [pc, #408]	@ (80047e8 <HAL_RCC_OscConfig+0x4b8>)
 800464e:	f8d3 3090 	ldr.w	r3, [r3, #144]	@ 0x90
 8004652:	4a65      	ldr	r2, [pc, #404]	@ (80047e8 <HAL_RCC_OscConfig+0x4b8>)
 8004654:	f043 0301 	orr.w	r3, r3, #1
 8004658:	f8c2 3090 	str.w	r3, [r2, #144]	@ 0x90
 800465c:	e024      	b.n	80046a8 <HAL_RCC_OscConfig+0x378>
 800465e:	687b      	ldr	r3, [r7, #4]
 8004660:	689b      	ldr	r3, [r3, #8]
 8004662:	2b05      	cmp	r3, #5
 8004664:	d110      	bne.n	8004688 <HAL_RCC_OscConfig+0x358>
 8004666:	4b60      	ldr	r3, [pc, #384]	@ (80047e8 <HAL_RCC_OscConfig+0x4b8>)
 8004668:	f8d3 3090 	ldr.w	r3, [r3, #144]	@ 0x90
 800466c:	4a5e      	ldr	r2, [pc, #376]	@ (80047e8 <HAL_RCC_OscConfig+0x4b8>)
 800466e:	f043 0304 	orr.w	r3, r3, #4
 8004672:	f8c2 3090 	str.w	r3, [r2, #144]	@ 0x90
 8004676:	4b5c      	ldr	r3, [pc, #368]	@ (80047e8 <HAL_RCC_OscConfig+0x4b8>)
 8004678:	f8d3 3090 	ldr.w	r3, [r3, #144]	@ 0x90
 800467c:	4a5a      	ldr	r2, [pc, #360]	@ (80047e8 <HAL_RCC_OscConfig+0x4b8>)
 800467e:	f043 0301 	orr.w	r3, r3, #1
 8004682:	f8c2 3090 	str.w	r3, [r2, #144]	@ 0x90
 8004686:	e00f      	b.n	80046a8 <HAL_RCC_OscConfig+0x378>
 8004688:	4b57      	ldr	r3, [pc, #348]	@ (80047e8 <HAL_RCC_OscConfig+0x4b8>)
 800468a:	f8d3 3090 	ldr.w	r3, [r3, #144]	@ 0x90
 800468e:	4a56      	ldr	r2, [pc, #344]	@ (80047e8 <HAL_RCC_OscConfig+0x4b8>)
 8004690:	f023 0301 	bic.w	r3, r3, #1
 8004694:	f8c2 3090 	str.w	r3, [r2, #144]	@ 0x90
 8004698:	4b53      	ldr	r3, [pc, #332]	@ (80047e8 <HAL_RCC_OscConfig+0x4b8>)
 800469a:	f8d3 3090 	ldr.w	r3, [r3, #144]	@ 0x90
 800469e:	4a52      	ldr	r2, [pc, #328]	@ (80047e8 <HAL_RCC_OscConfig+0x4b8>)
 80046a0:	f023 0304 	bic.w	r3, r3, #4
 80046a4:	f8c2 3090 	str.w	r3, [r2, #144]	@ 0x90
 80046a8:	687b      	ldr	r3, [r7, #4]
 80046aa:	689b      	ldr	r3, [r3, #8]
 80046ac:	2b00      	cmp	r3, #0
 80046ae:	d016      	beq.n	80046de <HAL_RCC_OscConfig+0x3ae>
 80046b0:	f7fd fe7e 	bl	80023b0 <HAL_GetTick>
 80046b4:	6138      	str	r0, [r7, #16]
 80046b6:	e00a      	b.n	80046ce <HAL_RCC_OscConfig+0x39e>
 80046b8:	f7fd fe7a 	bl	80023b0 <HAL_GetTick>
 80046bc:	4602      	mov	r2, r0
 80046be:	693b      	ldr	r3, [r7, #16]
 80046c0:	1ad3      	subs	r3, r2, r3
 80046c2:	f241 3288 	movw	r2, #5000	@ 0x1388
 80046c6:	4293      	cmp	r3, r2
 80046c8:	d901      	bls.n	80046ce <HAL_RCC_OscConfig+0x39e>
 80046ca:	2303      	movs	r3, #3
 80046cc:	e138      	b.n	8004940 <HAL_RCC_OscConfig+0x610>
 80046ce:	4b46      	ldr	r3, [pc, #280]	@ (80047e8 <HAL_RCC_OscConfig+0x4b8>)
 80046d0:	f8d3 3090 	ldr.w	r3, [r3, #144]	@ 0x90
 80046d4:	f003 0302 	and.w	r3, r3, #2
 80046d8:	2b00      	cmp	r3, #0
 80046da:	d0ed      	beq.n	80046b8 <HAL_RCC_OscConfig+0x388>
 80046dc:	e015      	b.n	800470a <HAL_RCC_OscConfig+0x3da>
 80046de:	f7fd fe67 	bl	80023b0 <HAL_GetTick>
 80046e2:	6138      	str	r0, [r7, #16]
 80046e4:	e00a      	b.n	80046fc <HAL_RCC_OscConfig+0x3cc>
 80046e6:	f7fd fe63 	bl	80023b0 <HAL_GetTick>
 80046ea:	4602      	mov	r2, r0
 80046ec:	693b      	ldr	r3, [r7, #16]
 80046ee:	1ad3      	subs	r3, r2, r3
 80046f0:	f241 3288 	movw	r2, #5000	@ 0x1388
 80046f4:	4293      	cmp	r3, r2
 80046f6:	d901      	bls.n	80046fc <HAL_RCC_OscConfig+0x3cc>
 80046f8:	2303      	movs	r3, #3
 80046fa:	e121      	b.n	8004940 <HAL_RCC_OscConfig+0x610>
 80046fc:	4b3a      	ldr	r3, [pc, #232]	@ (80047e8 <HAL_RCC_OscConfig+0x4b8>)
 80046fe:	f8d3 3090 	ldr.w	r3, [r3, #144]	@ 0x90
 8004702:	f003 0302 	and.w	r3, r3, #2
 8004706:	2b00      	cmp	r3, #0
 8004708:	d1ed      	bne.n	80046e6 <HAL_RCC_OscConfig+0x3b6>
 800470a:	7ffb      	ldrb	r3, [r7, #31]
 800470c:	2b01      	cmp	r3, #1
 800470e:	d105      	bne.n	800471c <HAL_RCC_OscConfig+0x3ec>
 8004710:	4b35      	ldr	r3, [pc, #212]	@ (80047e8 <HAL_RCC_OscConfig+0x4b8>)
 8004712:	6d9b      	ldr	r3, [r3, #88]	@ 0x58
 8004714:	4a34      	ldr	r2, [pc, #208]	@ (80047e8 <HAL_RCC_OscConfig+0x4b8>)
 8004716:	f023 5380 	bic.w	r3, r3, #268435456	@ 0x10000000
 800471a:	6593      	str	r3, [r2, #88]	@ 0x58
 800471c:	687b      	ldr	r3, [r7, #4]
 800471e:	681b      	ldr	r3, [r3, #0]
 8004720:	f003 0320 	and.w	r3, r3, #32
 8004724:	2b00      	cmp	r3, #0
 8004726:	d03c      	beq.n	80047a2 <HAL_RCC_OscConfig+0x472>
 8004728:	687b      	ldr	r3, [r7, #4]
 800472a:	699b      	ldr	r3, [r3, #24]
 800472c:	2b00      	cmp	r3, #0
 800472e:	d01c      	beq.n	800476a <HAL_RCC_OscConfig+0x43a>
 8004730:	4b2d      	ldr	r3, [pc, #180]	@ (80047e8 <HAL_RCC_OscConfig+0x4b8>)
 8004732:	f8d3 3098 	ldr.w	r3, [r3, #152]	@ 0x98
 8004736:	4a2c      	ldr	r2, [pc, #176]	@ (80047e8 <HAL_RCC_OscConfig+0x4b8>)
 8004738:	f043 0301 	orr.w	r3, r3, #1
 800473c:	f8c2 3098 	str.w	r3, [r2, #152]	@ 0x98
 8004740:	f7fd fe36 	bl	80023b0 <HAL_GetTick>
 8004744:	6138      	str	r0, [r7, #16]
 8004746:	e008      	b.n	800475a <HAL_RCC_OscConfig+0x42a>
 8004748:	f7fd fe32 	bl	80023b0 <HAL_GetTick>
 800474c:	4602      	mov	r2, r0
 800474e:	693b      	ldr	r3, [r7, #16]
 8004750:	1ad3      	subs	r3, r2, r3
 8004752:	2b02      	cmp	r3, #2
 8004754:	d901      	bls.n	800475a <HAL_RCC_OscConfig+0x42a>
 8004756:	2303      	movs	r3, #3
 8004758:	e0f2      	b.n	8004940 <HAL_RCC_OscConfig+0x610>
 800475a:	4b23      	ldr	r3, [pc, #140]	@ (80047e8 <HAL_RCC_OscConfig+0x4b8>)
 800475c:	f8d3 3098 	ldr.w	r3, [r3, #152]	@ 0x98
 8004760:	f003 0302 	and.w	r3, r3, #2
 8004764:	2b00      	cmp	r3, #0
 8004766:	d0ef      	beq.n	8004748 <HAL_RCC_OscConfig+0x418>
 8004768:	e01b      	b.n	80047a2 <HAL_RCC_OscConfig+0x472>
 800476a:	4b1f      	ldr	r3, [pc, #124]	@ (80047e8 <HAL_RCC_OscConfig+0x4b8>)
 800476c:	f8d3 3098 	ldr.w	r3, [r3, #152]	@ 0x98
 8004770:	4a1d      	ldr	r2, [pc, #116]	@ (80047e8 <HAL_RCC_OscConfig+0x4b8>)
 8004772:	f023 0301 	bic.w	r3, r3, #1
 8004776:	f8c2 3098 	str.w	r3, [r2, #152]	@ 0x98
 800477a:	f7fd fe19 	bl	80023b0 <HAL_GetTick>
 800477e:	6138      	str	r0, [r7, #16]
 8004780:	e008      	b.n	8004794 <HAL_RCC_OscConfig+0x464>
 8004782:	f7fd fe15 	bl	80023b0 <HAL_GetTick>
 8004786:	4602      	mov	r2, r0
 8004788:	693b      	ldr	r3, [r7, #16]
 800478a:	1ad3      	subs	r3, r2, r3
 800478c:	2b02      	cmp	r3, #2
 800478e:	d901      	bls.n	8004794 <HAL_RCC_OscConfig+0x464>
 8004790:	2303      	movs	r3, #3
 8004792:	e0d5      	b.n	8004940 <HAL_RCC_OscConfig+0x610>
 8004794:	4b14      	ldr	r3, [pc, #80]	@ (80047e8 <HAL_RCC_OscConfig+0x4b8>)
 8004796:	f8d3 3098 	ldr.w	r3, [r3, #152]	@ 0x98
 800479a:	f003 0302 	and.w	r3, r3, #2
 800479e:	2b00      	cmp	r3, #0
 80047a0:	d1ef      	bne.n	8004782 <HAL_RCC_OscConfig+0x452>
 80047a2:	687b      	ldr	r3, [r7, #4]
 80047a4:	69db      	ldr	r3, [r3, #28]
 80047a6:	2b00      	cmp	r3, #0
 80047a8:	f000 80c9 	beq.w	800493e <HAL_RCC_OscConfig+0x60e>
 80047ac:	4b0e      	ldr	r3, [pc, #56]	@ (80047e8 <HAL_RCC_OscConfig+0x4b8>)
 80047ae:	689b      	ldr	r3, [r3, #8]
 80047b0:	f003 030c 	and.w	r3, r3, #12
 80047b4:	2b0c      	cmp	r3, #12
 80047b6:	f000 8083 	beq.w	80048c0 <HAL_RCC_OscConfig+0x590>
 80047ba:	687b      	ldr	r3, [r7, #4]
 80047bc:	69db      	ldr	r3, [r3, #28]
 80047be:	2b02      	cmp	r3, #2
 80047c0:	d15e      	bne.n	8004880 <HAL_RCC_OscConfig+0x550>
 80047c2:	4b09      	ldr	r3, [pc, #36]	@ (80047e8 <HAL_RCC_OscConfig+0x4b8>)
 80047c4:	681b      	ldr	r3, [r3, #0]
 80047c6:	4a08      	ldr	r2, [pc, #32]	@ (80047e8 <HAL_RCC_OscConfig+0x4b8>)
 80047c8:	f023 7380 	bic.w	r3, r3, #16777216	@ 0x1000000
 80047cc:	6013      	str	r3, [r2, #0]
 80047ce:	f7fd fdef 	bl	80023b0 <HAL_GetTick>
 80047d2:	6138      	str	r0, [r7, #16]
 80047d4:	e00c      	b.n	80047f0 <HAL_RCC_OscConfig+0x4c0>
 80047d6:	f7fd fdeb 	bl	80023b0 <HAL_GetTick>
 80047da:	4602      	mov	r2, r0
 80047dc:	693b      	ldr	r3, [r7, #16]
 80047de:	1ad3      	subs	r3, r2, r3
 80047e0:	2b02      	cmp	r3, #2
 80047e2:	d905      	bls.n	80047f0 <HAL_RCC_OscConfig+0x4c0>
 80047e4:	2303      	movs	r3, #3
 80047e6:	e0ab      	b.n	8004940 <HAL_RCC_OscConfig+0x610>
 80047e8:	40021000 	.word	0x40021000
 80047ec:	40007000 	.word	0x40007000
 80047f0:	4b55      	ldr	r3, [pc, #340]	@ (8004948 <HAL_RCC_OscConfig+0x618>)
 80047f2:	681b      	ldr	r3, [r3, #0]
 80047f4:	f003 7300 	and.w	r3, r3, #33554432	@ 0x2000000
 80047f8:	2b00      	cmp	r3, #0
 80047fa:	d1ec      	bne.n	80047d6 <HAL_RCC_OscConfig+0x4a6>
 80047fc:	4b52      	ldr	r3, [pc, #328]	@ (8004948 <HAL_RCC_OscConfig+0x618>)
 80047fe:	68da      	ldr	r2, [r3, #12]
 8004800:	4b52      	ldr	r3, [pc, #328]	@ (800494c <HAL_RCC_OscConfig+0x61c>)
 8004802:	4013      	ands	r3, r2
 8004804:	687a      	ldr	r2, [r7, #4]
 8004806:	6a11      	ldr	r1, [r2, #32]
 8004808:	687a      	ldr	r2, [r7, #4]
 800480a:	6a52      	ldr	r2, [r2, #36]	@ 0x24
 800480c:	3a01      	subs	r2, #1
 800480e:	0112      	lsls	r2, r2, #4
 8004810:	4311      	orrs	r1, r2
 8004812:	687a      	ldr	r2, [r7, #4]
 8004814:	6a92      	ldr	r2, [r2, #40]	@ 0x28
 8004816:	0212      	lsls	r2, r2, #8
 8004818:	4311      	orrs	r1, r2
 800481a:	687a      	ldr	r2, [r7, #4]
 800481c:	6b12      	ldr	r2, [r2, #48]	@ 0x30
 800481e:	0852      	lsrs	r2, r2, #1
 8004820:	3a01      	subs	r2, #1
 8004822:	0552      	lsls	r2, r2, #21
 8004824:	4311      	orrs	r1, r2
 8004826:	687a      	ldr	r2, [r7, #4]
 8004828:	6b52      	ldr	r2, [r2, #52]	@ 0x34
 800482a:	0852      	lsrs	r2, r2, #1
 800482c:	3a01      	subs	r2, #1
 800482e:	0652      	lsls	r2, r2, #25
 8004830:	4311      	orrs	r1, r2
 8004832:	687a      	ldr	r2, [r7, #4]
 8004834:	6ad2      	ldr	r2, [r2, #44]	@ 0x2c
 8004836:	06d2      	lsls	r2, r2, #27
 8004838:	430a      	orrs	r2, r1
 800483a:	4943      	ldr	r1, [pc, #268]	@ (8004948 <HAL_RCC_OscConfig+0x618>)
 800483c:	4313      	orrs	r3, r2
 800483e:	60cb      	str	r3, [r1, #12]
 8004840:	4b41      	ldr	r3, [pc, #260]	@ (8004948 <HAL_RCC_OscConfig+0x618>)
 8004842:	681b      	ldr	r3, [r3, #0]
 8004844:	4a40      	ldr	r2, [pc, #256]	@ (8004948 <HAL_RCC_OscConfig+0x618>)
 8004846:	f043 7380 	orr.w	r3, r3, #16777216	@ 0x1000000
 800484a:	6013      	str	r3, [r2, #0]
 800484c:	4b3e      	ldr	r3, [pc, #248]	@ (8004948 <HAL_RCC_OscConfig+0x618>)
 800484e:	68db      	ldr	r3, [r3, #12]
 8004850:	4a3d      	ldr	r2, [pc, #244]	@ (8004948 <HAL_RCC_OscConfig+0x618>)
 8004852:	f043 7380 	orr.w	r3, r3, #16777216	@ 0x1000000
 8004856:	60d3      	str	r3, [r2, #12]
 8004858:	f7fd fdaa 	bl	80023b0 <HAL_GetTick>
 800485c:	6138      	str	r0, [r7, #16]
 800485e:	e008      	b.n	8004872 <HAL_RCC_OscConfig+0x542>
 8004860:	f7fd fda6 	bl	80023b0 <HAL_GetTick>
 8004864:	4602      	mov	r2, r0
 8004866:	693b      	ldr	r3, [r7, #16]
 8004868:	1ad3      	subs	r3, r2, r3
 800486a:	2b02      	cmp	r3, #2
 800486c:	d901      	bls.n	8004872 <HAL_RCC_OscConfig+0x542>
 800486e:	2303      	movs	r3, #3
 8004870:	e066      	b.n	8004940 <HAL_RCC_OscConfig+0x610>
 8004872:	4b35      	ldr	r3, [pc, #212]	@ (8004948 <HAL_RCC_OscConfig+0x618>)
 8004874:	681b      	ldr	r3, [r3, #0]
 8004876:	f003 7300 	and.w	r3, r3, #33554432	@ 0x2000000
 800487a:	2b00      	cmp	r3, #0
 800487c:	d0f0      	beq.n	8004860 <HAL_RCC_OscConfig+0x530>
 800487e:	e05e      	b.n	800493e <HAL_RCC_OscConfig+0x60e>
 8004880:	4b31      	ldr	r3, [pc, #196]	@ (8004948 <HAL_RCC_OscConfig+0x618>)
 8004882:	681b      	ldr	r3, [r3, #0]
 8004884:	4a30      	ldr	r2, [pc, #192]	@ (8004948 <HAL_RCC_OscConfig+0x618>)
 8004886:	f023 7380 	bic.w	r3, r3, #16777216	@ 0x1000000
 800488a:	6013      	str	r3, [r2, #0]
 800488c:	f7fd fd90 	bl	80023b0 <HAL_GetTick>
 8004890:	6138      	str	r0, [r7, #16]
 8004892:	e008      	b.n	80048a6 <HAL_RCC_OscConfig+0x576>
 8004894:	f7fd fd8c 	bl	80023b0 <HAL_GetTick>
 8004898:	4602      	mov	r2, r0
 800489a:	693b      	ldr	r3, [r7, #16]
 800489c:	1ad3      	subs	r3, r2, r3
 800489e:	2b02      	cmp	r3, #2
 80048a0:	d901      	bls.n	80048a6 <HAL_RCC_OscConfig+0x576>
 80048a2:	2303      	movs	r3, #3
 80048a4:	e04c      	b.n	8004940 <HAL_RCC_OscConfig+0x610>
 80048a6:	4b28      	ldr	r3, [pc, #160]	@ (8004948 <HAL_RCC_OscConfig+0x618>)
 80048a8:	681b      	ldr	r3, [r3, #0]
 80048aa:	f003 7300 	and.w	r3, r3, #33554432	@ 0x2000000
 80048ae:	2b00      	cmp	r3, #0
 80048b0:	d1f0      	bne.n	8004894 <HAL_RCC_OscConfig+0x564>
 80048b2:	4b25      	ldr	r3, [pc, #148]	@ (8004948 <HAL_RCC_OscConfig+0x618>)
 80048b4:	68da      	ldr	r2, [r3, #12]
 80048b6:	4924      	ldr	r1, [pc, #144]	@ (8004948 <HAL_RCC_OscConfig+0x618>)
 80048b8:	4b25      	ldr	r3, [pc, #148]	@ (8004950 <HAL_RCC_OscConfig+0x620>)
 80048ba:	4013      	ands	r3, r2
 80048bc:	60cb      	str	r3, [r1, #12]
 80048be:	e03e      	b.n	800493e <HAL_RCC_OscConfig+0x60e>
 80048c0:	687b      	ldr	r3, [r7, #4]
 80048c2:	69db      	ldr	r3, [r3, #28]
 80048c4:	2b01      	cmp	r3, #1
 80048c6:	d101      	bne.n	80048cc <HAL_RCC_OscConfig+0x59c>
 80048c8:	2301      	movs	r3, #1
 80048ca:	e039      	b.n	8004940 <HAL_RCC_OscConfig+0x610>
 80048cc:	4b1e      	ldr	r3, [pc, #120]	@ (8004948 <HAL_RCC_OscConfig+0x618>)
 80048ce:	68db      	ldr	r3, [r3, #12]
 80048d0:	617b      	str	r3, [r7, #20]
 80048d2:	697b      	ldr	r3, [r7, #20]
 80048d4:	f003 0203 	and.w	r2, r3, #3
 80048d8:	687b      	ldr	r3, [r7, #4]
 80048da:	6a1b      	ldr	r3, [r3, #32]
 80048dc:	429a      	cmp	r2, r3
 80048de:	d12c      	bne.n	800493a <HAL_RCC_OscConfig+0x60a>
 80048e0:	697b      	ldr	r3, [r7, #20]
 80048e2:	f003 02f0 	and.w	r2, r3, #240	@ 0xf0
 80048e6:	687b      	ldr	r3, [r7, #4]
 80048e8:	6a5b      	ldr	r3, [r3, #36]	@ 0x24
 80048ea:	3b01      	subs	r3, #1
 80048ec:	011b      	lsls	r3, r3, #4
 80048ee:	429a      	cmp	r2, r3
 80048f0:	d123      	bne.n	800493a <HAL_RCC_OscConfig+0x60a>
 80048f2:	697b      	ldr	r3, [r7, #20]
 80048f4:	f403 42fe 	and.w	r2, r3, #32512	@ 0x7f00
 80048f8:	687b      	ldr	r3, [r7, #4]
 80048fa:	6a9b      	ldr	r3, [r3, #40]	@ 0x28
 80048fc:	021b      	lsls	r3, r3, #8
 80048fe:	429a      	cmp	r2, r3
 8004900:	d11b      	bne.n	800493a <HAL_RCC_OscConfig+0x60a>
 8004902:	697b      	ldr	r3, [r7, #20]
 8004904:	f003 4278 	and.w	r2, r3, #4160749568	@ 0xf8000000
 8004908:	687b      	ldr	r3, [r7, #4]
 800490a:	6adb      	ldr	r3, [r3, #44]	@ 0x2c
 800490c:	06db      	lsls	r3, r3, #27
 800490e:	429a      	cmp	r2, r3
 8004910:	d113      	bne.n	800493a <HAL_RCC_OscConfig+0x60a>
 8004912:	697b      	ldr	r3, [r7, #20]
 8004914:	f403 02c0 	and.w	r2, r3, #6291456	@ 0x600000
 8004918:	687b      	ldr	r3, [r7, #4]
 800491a:	6b1b      	ldr	r3, [r3, #48]	@ 0x30
 800491c:	085b      	lsrs	r3, r3, #1
 800491e:	3b01      	subs	r3, #1
 8004920:	055b      	lsls	r3, r3, #21
 8004922:	429a      	cmp	r2, r3
 8004924:	d109      	bne.n	800493a <HAL_RCC_OscConfig+0x60a>
 8004926:	697b      	ldr	r3, [r7, #20]
 8004928:	f003 62c0 	and.w	r2, r3, #100663296	@ 0x6000000
 800492c:	687b      	ldr	r3, [r7, #4]
 800492e:	6b5b      	ldr	r3, [r3, #52]	@ 0x34
 8004930:	085b      	lsrs	r3, r3, #1
 8004932:	3b01      	subs	r3, #1
 8004934:	065b      	lsls	r3, r3, #25
 8004936:	429a      	cmp	r2, r3
 8004938:	d001      	beq.n	800493e <HAL_RCC_OscConfig+0x60e>
 800493a:	2301      	movs	r3, #1
 800493c:	e000      	b.n	8004940 <HAL_RCC_OscConfig+0x610>
 800493e:	2300      	movs	r3, #0
 8004940:	4618      	mov	r0, r3
 8004942:	3720      	adds	r7, #32
 8004944:	46bd      	mov	sp, r7
 8004946:	bd80      	pop	{r7, pc}
 8004948:	40021000 	.word	0x40021000
 800494c:	019f800c 	.word	0x019f800c
 8004950:	feeefffc 	.word	0xfeeefffc

08004954 <HAL_RCC_ClockConfig>:
 8004954:	b580      	push	{r7, lr}
 8004956:	b086      	sub	sp, #24
 8004958:	af00      	add	r7, sp, #0
 800495a:	6078      	str	r0, [r7, #4]
 800495c:	6039      	str	r1, [r7, #0]
 800495e:	2300      	movs	r3, #0
 8004960:	617b      	str	r3, [r7, #20]
 8004962:	687b      	ldr	r3, [r7, #4]
 8004964:	2b00      	cmp	r3, #0
 8004966:	d101      	bne.n	800496c <HAL_RCC_ClockConfig+0x18>
 8004968:	2301      	movs	r3, #1
 800496a:	e11e      	b.n	8004baa <HAL_RCC_ClockConfig+0x256>
 800496c:	4b91      	ldr	r3, [pc, #580]	@ (8004bb4 <HAL_RCC_ClockConfig+0x260>)
 800496e:	681b      	ldr	r3, [r3, #0]
 8004970:	f003 030f 	and.w	r3, r3, #15
 8004974:	683a      	ldr	r2, [r7, #0]
 8004976:	429a      	cmp	r2, r3
 8004978:	d910      	bls.n	800499c <HAL_RCC_ClockConfig+0x48>
 800497a:	4b8e      	ldr	r3, [pc, #568]	@ (8004bb4 <HAL_RCC_ClockConfig+0x260>)
 800497c:	681b      	ldr	r3, [r3, #0]
 800497e:	f023 020f 	bic.w	r2, r3, #15
 8004982:	498c      	ldr	r1, [pc, #560]	@ (8004bb4 <HAL_RCC_ClockConfig+0x260>)
 8004984:	683b      	ldr	r3, [r7, #0]
 8004986:	4313      	orrs	r3, r2
 8004988:	600b      	str	r3, [r1, #0]
 800498a:	4b8a      	ldr	r3, [pc, #552]	@ (8004bb4 <HAL_RCC_ClockConfig+0x260>)
 800498c:	681b      	ldr	r3, [r3, #0]
 800498e:	f003 030f 	and.w	r3, r3, #15
 8004992:	683a      	ldr	r2, [r7, #0]
 8004994:	429a      	cmp	r2, r3
 8004996:	d001      	beq.n	800499c <HAL_RCC_ClockConfig+0x48>
 8004998:	2301      	movs	r3, #1
 800499a:	e106      	b.n	8004baa <HAL_RCC_ClockConfig+0x256>
 800499c:	687b      	ldr	r3, [r7, #4]
 800499e:	681b      	ldr	r3, [r3, #0]
 80049a0:	f003 0301 	and.w	r3, r3, #1
 80049a4:	2b00      	cmp	r3, #0
 80049a6:	d073      	beq.n	8004a90 <HAL_RCC_ClockConfig+0x13c>
 80049a8:	687b      	ldr	r3, [r7, #4]
 80049aa:	685b      	ldr	r3, [r3, #4]
 80049ac:	2b03      	cmp	r3, #3
 80049ae:	d129      	bne.n	8004a04 <HAL_RCC_ClockConfig+0xb0>
 80049b0:	4b81      	ldr	r3, [pc, #516]	@ (8004bb8 <HAL_RCC_ClockConfig+0x264>)
 80049b2:	681b      	ldr	r3, [r3, #0]
 80049b4:	f003 7300 	and.w	r3, r3, #33554432	@ 0x2000000
 80049b8:	2b00      	cmp	r3, #0
 80049ba:	d101      	bne.n	80049c0 <HAL_RCC_ClockConfig+0x6c>
 80049bc:	2301      	movs	r3, #1
 80049be:	e0f4      	b.n	8004baa <HAL_RCC_ClockConfig+0x256>
 80049c0:	f000 f99e 	bl	8004d00 <RCC_GetSysClockFreqFromPLLSource>
 80049c4:	6138      	str	r0, [r7, #16]
 80049c6:	693b      	ldr	r3, [r7, #16]
 80049c8:	4a7c      	ldr	r2, [pc, #496]	@ (8004bbc <HAL_RCC_ClockConfig+0x268>)
 80049ca:	4293      	cmp	r3, r2
 80049cc:	d93f      	bls.n	8004a4e <HAL_RCC_ClockConfig+0xfa>
 80049ce:	4b7a      	ldr	r3, [pc, #488]	@ (8004bb8 <HAL_RCC_ClockConfig+0x264>)
 80049d0:	689b      	ldr	r3, [r3, #8]
 80049d2:	f003 03f0 	and.w	r3, r3, #240	@ 0xf0
 80049d6:	2b00      	cmp	r3, #0
 80049d8:	d009      	beq.n	80049ee <HAL_RCC_ClockConfig+0x9a>
 80049da:	687b      	ldr	r3, [r7, #4]
 80049dc:	681b      	ldr	r3, [r3, #0]
 80049de:	f003 0302 	and.w	r3, r3, #2
 80049e2:	2b00      	cmp	r3, #0
 80049e4:	d033      	beq.n	8004a4e <HAL_RCC_ClockConfig+0xfa>
 80049e6:	687b      	ldr	r3, [r7, #4]
 80049e8:	689b      	ldr	r3, [r3, #8]
 80049ea:	2b00      	cmp	r3, #0
 80049ec:	d12f      	bne.n	8004a4e <HAL_RCC_ClockConfig+0xfa>
 80049ee:	4b72      	ldr	r3, [pc, #456]	@ (8004bb8 <HAL_RCC_ClockConfig+0x264>)
 80049f0:	689b      	ldr	r3, [r3, #8]
 80049f2:	f023 03f0 	bic.w	r3, r3, #240	@ 0xf0
 80049f6:	4a70      	ldr	r2, [pc, #448]	@ (8004bb8 <HAL_RCC_ClockConfig+0x264>)
 80049f8:	f043 0380 	orr.w	r3, r3, #128	@ 0x80
 80049fc:	6093      	str	r3, [r2, #8]
 80049fe:	2380      	movs	r3, #128	@ 0x80
 8004a00:	617b      	str	r3, [r7, #20]
 8004a02:	e024      	b.n	8004a4e <HAL_RCC_ClockConfig+0xfa>
 8004a04:	687b      	ldr	r3, [r7, #4]
 8004a06:	685b      	ldr	r3, [r3, #4]
 8004a08:	2b02      	cmp	r3, #2
 8004a0a:	d107      	bne.n	8004a1c <HAL_RCC_ClockConfig+0xc8>
 8004a0c:	4b6a      	ldr	r3, [pc, #424]	@ (8004bb8 <HAL_RCC_ClockConfig+0x264>)
 8004a0e:	681b      	ldr	r3, [r3, #0]
 8004a10:	f403 3300 	and.w	r3, r3, #131072	@ 0x20000
 8004a14:	2b00      	cmp	r3, #0
 8004a16:	d109      	bne.n	8004a2c <HAL_RCC_ClockConfig+0xd8>
 8004a18:	2301      	movs	r3, #1
 8004a1a:	e0c6      	b.n	8004baa <HAL_RCC_ClockConfig+0x256>
 8004a1c:	4b66      	ldr	r3, [pc, #408]	@ (8004bb8 <HAL_RCC_ClockConfig+0x264>)
 8004a1e:	681b      	ldr	r3, [r3, #0]
 8004a20:	f403 6380 	and.w	r3, r3, #1024	@ 0x400
 8004a24:	2b00      	cmp	r3, #0
 8004a26:	d101      	bne.n	8004a2c <HAL_RCC_ClockConfig+0xd8>
 8004a28:	2301      	movs	r3, #1
 8004a2a:	e0be      	b.n	8004baa <HAL_RCC_ClockConfig+0x256>
 8004a2c:	f000 f8ce 	bl	8004bcc <HAL_RCC_GetSysClockFreq>
 8004a30:	6138      	str	r0, [r7, #16]
 8004a32:	693b      	ldr	r3, [r7, #16]
 8004a34:	4a61      	ldr	r2, [pc, #388]	@ (8004bbc <HAL_RCC_ClockConfig+0x268>)
 8004a36:	4293      	cmp	r3, r2
 8004a38:	d909      	bls.n	8004a4e <HAL_RCC_ClockConfig+0xfa>
 8004a3a:	4b5f      	ldr	r3, [pc, #380]	@ (8004bb8 <HAL_RCC_ClockConfig+0x264>)
 8004a3c:	689b      	ldr	r3, [r3, #8]
 8004a3e:	f023 03f0 	bic.w	r3, r3, #240	@ 0xf0
 8004a42:	4a5d      	ldr	r2, [pc, #372]	@ (8004bb8 <HAL_RCC_ClockConfig+0x264>)
 8004a44:	f043 0380 	orr.w	r3, r3, #128	@ 0x80
 8004a48:	6093      	str	r3, [r2, #8]
 8004a4a:	2380      	movs	r3, #128	@ 0x80
 8004a4c:	617b      	str	r3, [r7, #20]
 8004a4e:	4b5a      	ldr	r3, [pc, #360]	@ (8004bb8 <HAL_RCC_ClockConfig+0x264>)
 8004a50:	689b      	ldr	r3, [r3, #8]
 8004a52:	f023 0203 	bic.w	r2, r3, #3
 8004a56:	687b      	ldr	r3, [r7, #4]
 8004a58:	685b      	ldr	r3, [r3, #4]
 8004a5a:	4957      	ldr	r1, [pc, #348]	@ (8004bb8 <HAL_RCC_ClockConfig+0x264>)
 8004a5c:	4313      	orrs	r3, r2
 8004a5e:	608b      	str	r3, [r1, #8]
 8004a60:	f7fd fca6 	bl	80023b0 <HAL_GetTick>
 8004a64:	60f8      	str	r0, [r7, #12]
 8004a66:	e00a      	b.n	8004a7e <HAL_RCC_ClockConfig+0x12a>
 8004a68:	f7fd fca2 	bl	80023b0 <HAL_GetTick>
 8004a6c:	4602      	mov	r2, r0
 8004a6e:	68fb      	ldr	r3, [r7, #12]
 8004a70:	1ad3      	subs	r3, r2, r3
 8004a72:	f241 3288 	movw	r2, #5000	@ 0x1388
 8004a76:	4293      	cmp	r3, r2
 8004a78:	d901      	bls.n	8004a7e <HAL_RCC_ClockConfig+0x12a>
 8004a7a:	2303      	movs	r3, #3
 8004a7c:	e095      	b.n	8004baa <HAL_RCC_ClockConfig+0x256>
 8004a7e:	4b4e      	ldr	r3, [pc, #312]	@ (8004bb8 <HAL_RCC_ClockConfig+0x264>)
 8004a80:	689b      	ldr	r3, [r3, #8]
 8004a82:	f003 020c 	and.w	r2, r3, #12
 8004a86:	687b      	ldr	r3, [r7, #4]
 8004a88:	685b      	ldr	r3, [r3, #4]
 8004a8a:	009b      	lsls	r3, r3, #2
 8004a8c:	429a      	cmp	r2, r3
 8004a8e:	d1eb      	bne.n	8004a68 <HAL_RCC_ClockConfig+0x114>
 8004a90:	687b      	ldr	r3, [r7, #4]
 8004a92:	681b      	ldr	r3, [r3, #0]
 8004a94:	f003 0302 	and.w	r3, r3, #2
 8004a98:	2b00      	cmp	r3, #0
 8004a9a:	d023      	beq.n	8004ae4 <HAL_RCC_ClockConfig+0x190>
 8004a9c:	687b      	ldr	r3, [r7, #4]
 8004a9e:	681b      	ldr	r3, [r3, #0]
 8004aa0:	f003 0304 	and.w	r3, r3, #4
 8004aa4:	2b00      	cmp	r3, #0
 8004aa6:	d005      	beq.n	8004ab4 <HAL_RCC_ClockConfig+0x160>
 8004aa8:	4b43      	ldr	r3, [pc, #268]	@ (8004bb8 <HAL_RCC_ClockConfig+0x264>)
 8004aaa:	689b      	ldr	r3, [r3, #8]
 8004aac:	4a42      	ldr	r2, [pc, #264]	@ (8004bb8 <HAL_RCC_ClockConfig+0x264>)
 8004aae:	f443 63e0 	orr.w	r3, r3, #1792	@ 0x700
 8004ab2:	6093      	str	r3, [r2, #8]
 8004ab4:	687b      	ldr	r3, [r7, #4]
 8004ab6:	681b      	ldr	r3, [r3, #0]
 8004ab8:	f003 0308 	and.w	r3, r3, #8
 8004abc:	2b00      	cmp	r3, #0
 8004abe:	d007      	beq.n	8004ad0 <HAL_RCC_ClockConfig+0x17c>
 8004ac0:	4b3d      	ldr	r3, [pc, #244]	@ (8004bb8 <HAL_RCC_ClockConfig+0x264>)
 8004ac2:	689b      	ldr	r3, [r3, #8]
 8004ac4:	f423 537c 	bic.w	r3, r3, #16128	@ 0x3f00
 8004ac8:	4a3b      	ldr	r2, [pc, #236]	@ (8004bb8 <HAL_RCC_ClockConfig+0x264>)
 8004aca:	f443 63e0 	orr.w	r3, r3, #1792	@ 0x700
 8004ace:	6093      	str	r3, [r2, #8]
 8004ad0:	4b39      	ldr	r3, [pc, #228]	@ (8004bb8 <HAL_RCC_ClockConfig+0x264>)
 8004ad2:	689b      	ldr	r3, [r3, #8]
 8004ad4:	f023 02f0 	bic.w	r2, r3, #240	@ 0xf0
 8004ad8:	687b      	ldr	r3, [r7, #4]
 8004ada:	689b      	ldr	r3, [r3, #8]
 8004adc:	4936      	ldr	r1, [pc, #216]	@ (8004bb8 <HAL_RCC_ClockConfig+0x264>)
 8004ade:	4313      	orrs	r3, r2
 8004ae0:	608b      	str	r3, [r1, #8]
 8004ae2:	e008      	b.n	8004af6 <HAL_RCC_ClockConfig+0x1a2>
 8004ae4:	697b      	ldr	r3, [r7, #20]
 8004ae6:	2b80      	cmp	r3, #128	@ 0x80
 8004ae8:	d105      	bne.n	8004af6 <HAL_RCC_ClockConfig+0x1a2>
 8004aea:	4b33      	ldr	r3, [pc, #204]	@ (8004bb8 <HAL_RCC_ClockConfig+0x264>)
 8004aec:	689b      	ldr	r3, [r3, #8]
 8004aee:	4a32      	ldr	r2, [pc, #200]	@ (8004bb8 <HAL_RCC_ClockConfig+0x264>)
 8004af0:	f023 03f0 	bic.w	r3, r3, #240	@ 0xf0
 8004af4:	6093      	str	r3, [r2, #8]
 8004af6:	4b2f      	ldr	r3, [pc, #188]	@ (8004bb4 <HAL_RCC_ClockConfig+0x260>)
 8004af8:	681b      	ldr	r3, [r3, #0]
 8004afa:	f003 030f 	and.w	r3, r3, #15
 8004afe:	683a      	ldr	r2, [r7, #0]
 8004b00:	429a      	cmp	r2, r3
 8004b02:	d21d      	bcs.n	8004b40 <HAL_RCC_ClockConfig+0x1ec>
 8004b04:	4b2b      	ldr	r3, [pc, #172]	@ (8004bb4 <HAL_RCC_ClockConfig+0x260>)
 8004b06:	681b      	ldr	r3, [r3, #0]
 8004b08:	f023 020f 	bic.w	r2, r3, #15
 8004b0c:	4929      	ldr	r1, [pc, #164]	@ (8004bb4 <HAL_RCC_ClockConfig+0x260>)
 8004b0e:	683b      	ldr	r3, [r7, #0]
 8004b10:	4313      	orrs	r3, r2
 8004b12:	600b      	str	r3, [r1, #0]
 8004b14:	f7fd fc4c 	bl	80023b0 <HAL_GetTick>
 8004b18:	60f8      	str	r0, [r7, #12]
 8004b1a:	e00a      	b.n	8004b32 <HAL_RCC_ClockConfig+0x1de>
 8004b1c:	f7fd fc48 	bl	80023b0 <HAL_GetTick>
 8004b20:	4602      	mov	r2, r0
 8004b22:	68fb      	ldr	r3, [r7, #12]
 8004b24:	1ad3      	subs	r3, r2, r3
 8004b26:	f241 3288 	movw	r2, #5000	@ 0x1388
 8004b2a:	4293      	cmp	r3, r2
 8004b2c:	d901      	bls.n	8004b32 <HAL_RCC_ClockConfig+0x1de>
 8004b2e:	2303      	movs	r3, #3
 8004b30:	e03b      	b.n	8004baa <HAL_RCC_ClockConfig+0x256>
 8004b32:	4b20      	ldr	r3, [pc, #128]	@ (8004bb4 <HAL_RCC_ClockConfig+0x260>)
 8004b34:	681b      	ldr	r3, [r3, #0]
 8004b36:	f003 030f 	and.w	r3, r3, #15
 8004b3a:	683a      	ldr	r2, [r7, #0]
 8004b3c:	429a      	cmp	r2, r3
 8004b3e:	d1ed      	bne.n	8004b1c <HAL_RCC_ClockConfig+0x1c8>
 8004b40:	687b      	ldr	r3, [r7, #4]
 8004b42:	681b      	ldr	r3, [r3, #0]
 8004b44:	f003 0304 	and.w	r3, r3, #4
 8004b48:	2b00      	cmp	r3, #0
 8004b4a:	d008      	beq.n	8004b5e <HAL_RCC_ClockConfig+0x20a>
 8004b4c:	4b1a      	ldr	r3, [pc, #104]	@ (8004bb8 <HAL_RCC_ClockConfig+0x264>)
 8004b4e:	689b      	ldr	r3, [r3, #8]
 8004b50:	f423 62e0 	bic.w	r2, r3, #1792	@ 0x700
 8004b54:	687b      	ldr	r3, [r7, #4]
 8004b56:	68db      	ldr	r3, [r3, #12]
 8004b58:	4917      	ldr	r1, [pc, #92]	@ (8004bb8 <HAL_RCC_ClockConfig+0x264>)
 8004b5a:	4313      	orrs	r3, r2
 8004b5c:	608b      	str	r3, [r1, #8]
 8004b5e:	687b      	ldr	r3, [r7, #4]
 8004b60:	681b      	ldr	r3, [r3, #0]
 8004b62:	f003 0308 	and.w	r3, r3, #8
 8004b66:	2b00      	cmp	r3, #0
 8004b68:	d009      	beq.n	8004b7e <HAL_RCC_ClockConfig+0x22a>
 8004b6a:	4b13      	ldr	r3, [pc, #76]	@ (8004bb8 <HAL_RCC_ClockConfig+0x264>)
 8004b6c:	689b      	ldr	r3, [r3, #8]
 8004b6e:	f423 5260 	bic.w	r2, r3, #14336	@ 0x3800
 8004b72:	687b      	ldr	r3, [r7, #4]
 8004b74:	691b      	ldr	r3, [r3, #16]
 8004b76:	00db      	lsls	r3, r3, #3
 8004b78:	490f      	ldr	r1, [pc, #60]	@ (8004bb8 <HAL_RCC_ClockConfig+0x264>)
 8004b7a:	4313      	orrs	r3, r2
 8004b7c:	608b      	str	r3, [r1, #8]
 8004b7e:	f000 f825 	bl	8004bcc <HAL_RCC_GetSysClockFreq>
 8004b82:	4602      	mov	r2, r0
 8004b84:	4b0c      	ldr	r3, [pc, #48]	@ (8004bb8 <HAL_RCC_ClockConfig+0x264>)
 8004b86:	689b      	ldr	r3, [r3, #8]
 8004b88:	091b      	lsrs	r3, r3, #4
 8004b8a:	f003 030f 	and.w	r3, r3, #15
 8004b8e:	490c      	ldr	r1, [pc, #48]	@ (8004bc0 <HAL_RCC_ClockConfig+0x26c>)
 8004b90:	5ccb      	ldrb	r3, [r1, r3]
 8004b92:	f003 031f 	and.w	r3, r3, #31
 8004b96:	fa22 f303 	lsr.w	r3, r2, r3
 8004b9a:	4a0a      	ldr	r2, [pc, #40]	@ (8004bc4 <HAL_RCC_ClockConfig+0x270>)
 8004b9c:	6013      	str	r3, [r2, #0]
 8004b9e:	4b0a      	ldr	r3, [pc, #40]	@ (8004bc8 <HAL_RCC_ClockConfig+0x274>)
 8004ba0:	681b      	ldr	r3, [r3, #0]
 8004ba2:	4618      	mov	r0, r3
 8004ba4:	f7fd fbb8 	bl	8002318 <HAL_InitTick>
 8004ba8:	4603      	mov	r3, r0
 8004baa:	4618      	mov	r0, r3
 8004bac:	3718      	adds	r7, #24
 8004bae:	46bd      	mov	sp, r7
 8004bb0:	bd80      	pop	{r7, pc}
 8004bb2:	bf00      	nop
 8004bb4:	40022000 	.word	0x40022000
 8004bb8:	40021000 	.word	0x40021000
 8004bbc:	04c4b400 	.word	0x04c4b400
 8004bc0:	08009c24 	.word	0x08009c24
 8004bc4:	20000208 	.word	0x20000208
 8004bc8:	2000020c 	.word	0x2000020c

08004bcc <HAL_RCC_GetSysClockFreq>:
 8004bcc:	b480      	push	{r7}
 8004bce:	b087      	sub	sp, #28
 8004bd0:	af00      	add	r7, sp, #0
 8004bd2:	4b2c      	ldr	r3, [pc, #176]	@ (8004c84 <HAL_RCC_GetSysClockFreq+0xb8>)
 8004bd4:	689b      	ldr	r3, [r3, #8]
 8004bd6:	f003 030c 	and.w	r3, r3, #12
 8004bda:	2b04      	cmp	r3, #4
 8004bdc:	d102      	bne.n	8004be4 <HAL_RCC_GetSysClockFreq+0x18>
 8004bde:	4b2a      	ldr	r3, [pc, #168]	@ (8004c88 <HAL_RCC_GetSysClockFreq+0xbc>)
 8004be0:	613b      	str	r3, [r7, #16]
 8004be2:	e047      	b.n	8004c74 <HAL_RCC_GetSysClockFreq+0xa8>
 8004be4:	4b27      	ldr	r3, [pc, #156]	@ (8004c84 <HAL_RCC_GetSysClockFreq+0xb8>)
 8004be6:	689b      	ldr	r3, [r3, #8]
 8004be8:	f003 030c 	and.w	r3, r3, #12
 8004bec:	2b08      	cmp	r3, #8
 8004bee:	d102      	bne.n	8004bf6 <HAL_RCC_GetSysClockFreq+0x2a>
 8004bf0:	4b26      	ldr	r3, [pc, #152]	@ (8004c8c <HAL_RCC_GetSysClockFreq+0xc0>)
 8004bf2:	613b      	str	r3, [r7, #16]
 8004bf4:	e03e      	b.n	8004c74 <HAL_RCC_GetSysClockFreq+0xa8>
 8004bf6:	4b23      	ldr	r3, [pc, #140]	@ (8004c84 <HAL_RCC_GetSysClockFreq+0xb8>)
 8004bf8:	689b      	ldr	r3, [r3, #8]
 8004bfa:	f003 030c 	and.w	r3, r3, #12
 8004bfe:	2b0c      	cmp	r3, #12
 8004c00:	d136      	bne.n	8004c70 <HAL_RCC_GetSysClockFreq+0xa4>
 8004c02:	4b20      	ldr	r3, [pc, #128]	@ (8004c84 <HAL_RCC_GetSysClockFreq+0xb8>)
 8004c04:	68db      	ldr	r3, [r3, #12]
 8004c06:	f003 0303 	and.w	r3, r3, #3
 8004c0a:	60fb      	str	r3, [r7, #12]
 8004c0c:	4b1d      	ldr	r3, [pc, #116]	@ (8004c84 <HAL_RCC_GetSysClockFreq+0xb8>)
 8004c0e:	68db      	ldr	r3, [r3, #12]
 8004c10:	091b      	lsrs	r3, r3, #4
 8004c12:	f003 030f 	and.w	r3, r3, #15
 8004c16:	3301      	adds	r3, #1
 8004c18:	60bb      	str	r3, [r7, #8]
 8004c1a:	68fb      	ldr	r3, [r7, #12]
 8004c1c:	2b03      	cmp	r3, #3
 8004c1e:	d10c      	bne.n	8004c3a <HAL_RCC_GetSysClockFreq+0x6e>
 8004c20:	4a1a      	ldr	r2, [pc, #104]	@ (8004c8c <HAL_RCC_GetSysClockFreq+0xc0>)
 8004c22:	68bb      	ldr	r3, [r7, #8]
 8004c24:	fbb2 f3f3 	udiv	r3, r2, r3
 8004c28:	4a16      	ldr	r2, [pc, #88]	@ (8004c84 <HAL_RCC_GetSysClockFreq+0xb8>)
 8004c2a:	68d2      	ldr	r2, [r2, #12]
 8004c2c:	0a12      	lsrs	r2, r2, #8
 8004c2e:	f002 027f 	and.w	r2, r2, #127	@ 0x7f
 8004c32:	fb02 f303 	mul.w	r3, r2, r3
 8004c36:	617b      	str	r3, [r7, #20]
 8004c38:	e00c      	b.n	8004c54 <HAL_RCC_GetSysClockFreq+0x88>
 8004c3a:	4a13      	ldr	r2, [pc, #76]	@ (8004c88 <HAL_RCC_GetSysClockFreq+0xbc>)
 8004c3c:	68bb      	ldr	r3, [r7, #8]
 8004c3e:	fbb2 f3f3 	udiv	r3, r2, r3
 8004c42:	4a10      	ldr	r2, [pc, #64]	@ (8004c84 <HAL_RCC_GetSysClockFreq+0xb8>)
 8004c44:	68d2      	ldr	r2, [r2, #12]
 8004c46:	0a12      	lsrs	r2, r2, #8
 8004c48:	f002 027f 	and.w	r2, r2, #127	@ 0x7f
 8004c4c:	fb02 f303 	mul.w	r3, r2, r3
 8004c50:	617b      	str	r3, [r7, #20]
 8004c52:	bf00      	nop
 8004c54:	4b0b      	ldr	r3, [pc, #44]	@ (8004c84 <HAL_RCC_GetSysClockFreq+0xb8>)
 8004c56:	68db      	ldr	r3, [r3, #12]
 8004c58:	0e5b      	lsrs	r3, r3, #25
 8004c5a:	f003 0303 	and.w	r3, r3, #3
 8004c5e:	3301      	adds	r3, #1
 8004c60:	005b      	lsls	r3, r3, #1
 8004c62:	607b      	str	r3, [r7, #4]
 8004c64:	697a      	ldr	r2, [r7, #20]
 8004c66:	687b      	ldr	r3, [r7, #4]
 8004c68:	fbb2 f3f3 	udiv	r3, r2, r3
 8004c6c:	613b      	str	r3, [r7, #16]
 8004c6e:	e001      	b.n	8004c74 <HAL_RCC_GetSysClockFreq+0xa8>
 8004c70:	2300      	movs	r3, #0
 8004c72:	613b      	str	r3, [r7, #16]
 8004c74:	693b      	ldr	r3, [r7, #16]
 8004c76:	4618      	mov	r0, r3
 8004c78:	371c      	adds	r7, #28
 8004c7a:	46bd      	mov	sp, r7
 8004c7c:	f85d 7b04 	ldr.w	r7, [sp], #4
 8004c80:	4770      	bx	lr
 8004c82:	bf00      	nop
 8004c84:	40021000 	.word	0x40021000
 8004c88:	00f42400 	.word	0x00f42400
 8004c8c:	016e3600 	.word	0x016e3600

08004c90 <HAL_RCC_GetHCLKFreq>:
 8004c90:	b480      	push	{r7}
 8004c92:	af00      	add	r7, sp, #0
 8004c94:	4b03      	ldr	r3, [pc, #12]	@ (8004ca4 <HAL_RCC_GetHCLKFreq+0x14>)
 8004c96:	681b      	ldr	r3, [r3, #0]
 8004c98:	4618      	mov	r0, r3
 8004c9a:	46bd      	mov	sp, r7
 8004c9c:	f85d 7b04 	ldr.w	r7, [sp], #4
 8004ca0:	4770      	bx	lr
 8004ca2:	bf00      	nop
 8004ca4:	20000208 	.word	0x20000208

08004ca8 <HAL_RCC_GetPCLK1Freq>:
 8004ca8:	b580      	push	{r7, lr}
 8004caa:	af00      	add	r7, sp, #0
 8004cac:	f7ff fff0 	bl	8004c90 <HAL_RCC_GetHCLKFreq>
 8004cb0:	4602      	mov	r2, r0
 8004cb2:	4b06      	ldr	r3, [pc, #24]	@ (8004ccc <HAL_RCC_GetPCLK1Freq+0x24>)
 8004cb4:	689b      	ldr	r3, [r3, #8]
 8004cb6:	0a1b      	lsrs	r3, r3, #8
 8004cb8:	f003 0307 	and.w	r3, r3, #7
 8004cbc:	4904      	ldr	r1, [pc, #16]	@ (8004cd0 <HAL_RCC_GetPCLK1Freq+0x28>)
 8004cbe:	5ccb      	ldrb	r3, [r1, r3]
 8004cc0:	f003 031f 	and.w	r3, r3, #31
 8004cc4:	fa22 f303 	lsr.w	r3, r2, r3
 8004cc8:	4618      	mov	r0, r3
 8004cca:	bd80      	pop	{r7, pc}
 8004ccc:	40021000 	.word	0x40021000
 8004cd0:	08009c34 	.word	0x08009c34

08004cd4 <HAL_RCC_GetPCLK2Freq>:
 8004cd4:	b580      	push	{r7, lr}
 8004cd6:	af00      	add	r7, sp, #0
 8004cd8:	f7ff ffda 	bl	8004c90 <HAL_RCC_GetHCLKFreq>
 8004cdc:	4602      	mov	r2, r0
 8004cde:	4b06      	ldr	r3, [pc, #24]	@ (8004cf8 <HAL_RCC_GetPCLK2Freq+0x24>)
 8004ce0:	689b      	ldr	r3, [r3, #8]
 8004ce2:	0adb      	lsrs	r3, r3, #11
 8004ce4:	f003 0307 	and.w	r3, r3, #7
 8004ce8:	4904      	ldr	r1, [pc, #16]	@ (8004cfc <HAL_RCC_GetPCLK2Freq+0x28>)
 8004cea:	5ccb      	ldrb	r3, [r1, r3]
 8004cec:	f003 031f 	and.w	r3, r3, #31
 8004cf0:	fa22 f303 	lsr.w	r3, r2, r3
 8004cf4:	4618      	mov	r0, r3
 8004cf6:	bd80      	pop	{r7, pc}
 8004cf8:	40021000 	.word	0x40021000
 8004cfc:	08009c34 	.word	0x08009c34

08004d00 <RCC_GetSysClockFreqFromPLLSource>:
 8004d00:	b480      	push	{r7}
 8004d02:	b087      	sub	sp, #28
 8004d04:	af00      	add	r7, sp, #0
 8004d06:	4b1e      	ldr	r3, [pc, #120]	@ (8004d80 <RCC_GetSysClockFreqFromPLLSource+0x80>)
 8004d08:	68db      	ldr	r3, [r3, #12]
 8004d0a:	f003 0303 	and.w	r3, r3, #3
 8004d0e:	613b      	str	r3, [r7, #16]
 8004d10:	4b1b      	ldr	r3, [pc, #108]	@ (8004d80 <RCC_GetSysClockFreqFromPLLSource+0x80>)
 8004d12:	68db      	ldr	r3, [r3, #12]
 8004d14:	091b      	lsrs	r3, r3, #4
 8004d16:	f003 030f 	and.w	r3, r3, #15
 8004d1a:	3301      	adds	r3, #1
 8004d1c:	60fb      	str	r3, [r7, #12]
 8004d1e:	693b      	ldr	r3, [r7, #16]
 8004d20:	2b03      	cmp	r3, #3
 8004d22:	d10c      	bne.n	8004d3e <RCC_GetSysClockFreqFromPLLSource+0x3e>
 8004d24:	4a17      	ldr	r2, [pc, #92]	@ (8004d84 <RCC_GetSysClockFreqFromPLLSource+0x84>)
 8004d26:	68fb      	ldr	r3, [r7, #12]
 8004d28:	fbb2 f3f3 	udiv	r3, r2, r3
 8004d2c:	4a14      	ldr	r2, [pc, #80]	@ (8004d80 <RCC_GetSysClockFreqFromPLLSource+0x80>)
 8004d2e:	68d2      	ldr	r2, [r2, #12]
 8004d30:	0a12      	lsrs	r2, r2, #8
 8004d32:	f002 027f 	and.w	r2, r2, #127	@ 0x7f
 8004d36:	fb02 f303 	mul.w	r3, r2, r3
 8004d3a:	617b      	str	r3, [r7, #20]
 8004d3c:	e00c      	b.n	8004d58 <RCC_GetSysClockFreqFromPLLSource+0x58>
 8004d3e:	4a12      	ldr	r2, [pc, #72]	@ (8004d88 <RCC_GetSysClockFreqFromPLLSource+0x88>)
 8004d40:	68fb      	ldr	r3, [r7, #12]
 8004d42:	fbb2 f3f3 	udiv	r3, r2, r3
 8004d46:	4a0e      	ldr	r2, [pc, #56]	@ (8004d80 <RCC_GetSysClockFreqFromPLLSource+0x80>)
 8004d48:	68d2      	ldr	r2, [r2, #12]
 8004d4a:	0a12      	lsrs	r2, r2, #8
 8004d4c:	f002 027f 	and.w	r2, r2, #127	@ 0x7f
 8004d50:	fb02 f303 	mul.w	r3, r2, r3
 8004d54:	617b      	str	r3, [r7, #20]
 8004d56:	bf00      	nop
 8004d58:	4b09      	ldr	r3, [pc, #36]	@ (8004d80 <RCC_GetSysClockFreqFromPLLSource+0x80>)
 8004d5a:	68db      	ldr	r3, [r3, #12]
 8004d5c:	0e5b      	lsrs	r3, r3, #25
 8004d5e:	f003 0303 	and.w	r3, r3, #3
 8004d62:	3301      	adds	r3, #1
 8004d64:	005b      	lsls	r3, r3, #1
 8004d66:	60bb      	str	r3, [r7, #8]
 8004d68:	697a      	ldr	r2, [r7, #20]
 8004d6a:	68bb      	ldr	r3, [r7, #8]
 8004d6c:	fbb2 f3f3 	udiv	r3, r2, r3
 8004d70:	607b      	str	r3, [r7, #4]
 8004d72:	687b      	ldr	r3, [r7, #4]
 8004d74:	4618      	mov	r0, r3
 8004d76:	371c      	adds	r7, #28
 8004d78:	46bd      	mov	sp, r7
 8004d7a:	f85d 7b04 	ldr.w	r7, [sp], #4
 8004d7e:	4770      	bx	lr
 8004d80:	40021000 	.word	0x40021000
 8004d84:	016e3600 	.word	0x016e3600
 8004d88:	00f42400 	.word	0x00f42400

08004d8c <HAL_RCCEx_PeriphCLKConfig>:
 8004d8c:	b580      	push	{r7, lr}
 8004d8e:	b086      	sub	sp, #24
 8004d90:	af00      	add	r7, sp, #0
 8004d92:	6078      	str	r0, [r7, #4]
 8004d94:	2300      	movs	r3, #0
 8004d96:	74fb      	strb	r3, [r7, #19]
 8004d98:	2300      	movs	r3, #0
 8004d9a:	74bb      	strb	r3, [r7, #18]
 8004d9c:	687b      	ldr	r3, [r7, #4]
 8004d9e:	681b      	ldr	r3, [r3, #0]
 8004da0:	f403 2300 	and.w	r3, r3, #524288	@ 0x80000
 8004da4:	2b00      	cmp	r3, #0
 8004da6:	f000 8098 	beq.w	8004eda <HAL_RCCEx_PeriphCLKConfig+0x14e>
 8004daa:	2300      	movs	r3, #0
 8004dac:	747b      	strb	r3, [r7, #17]
 8004dae:	4b43      	ldr	r3, [pc, #268]	@ (8004ebc <HAL_RCCEx_PeriphCLKConfig+0x130>)
 8004db0:	6d9b      	ldr	r3, [r3, #88]	@ 0x58
 8004db2:	f003 5380 	and.w	r3, r3, #268435456	@ 0x10000000
 8004db6:	2b00      	cmp	r3, #0
 8004db8:	d10d      	bne.n	8004dd6 <HAL_RCCEx_PeriphCLKConfig+0x4a>
 8004dba:	4b40      	ldr	r3, [pc, #256]	@ (8004ebc <HAL_RCCEx_PeriphCLKConfig+0x130>)
 8004dbc:	6d9b      	ldr	r3, [r3, #88]	@ 0x58
 8004dbe:	4a3f      	ldr	r2, [pc, #252]	@ (8004ebc <HAL_RCCEx_PeriphCLKConfig+0x130>)
 8004dc0:	f043 5380 	orr.w	r3, r3, #268435456	@ 0x10000000
 8004dc4:	6593      	str	r3, [r2, #88]	@ 0x58
 8004dc6:	4b3d      	ldr	r3, [pc, #244]	@ (8004ebc <HAL_RCCEx_PeriphCLKConfig+0x130>)
 8004dc8:	6d9b      	ldr	r3, [r3, #88]	@ 0x58
 8004dca:	f003 5380 	and.w	r3, r3, #268435456	@ 0x10000000
 8004dce:	60bb      	str	r3, [r7, #8]
 8004dd0:	68bb      	ldr	r3, [r7, #8]
 8004dd2:	2301      	movs	r3, #1
 8004dd4:	747b      	strb	r3, [r7, #17]
 8004dd6:	4b3a      	ldr	r3, [pc, #232]	@ (8004ec0 <HAL_RCCEx_PeriphCLKConfig+0x134>)
 8004dd8:	681b      	ldr	r3, [r3, #0]
 8004dda:	4a39      	ldr	r2, [pc, #228]	@ (8004ec0 <HAL_RCCEx_PeriphCLKConfig+0x134>)
 8004ddc:	f443 7380 	orr.w	r3, r3, #256	@ 0x100
 8004de0:	6013      	str	r3, [r2, #0]
 8004de2:	f7fd fae5 	bl	80023b0 <HAL_GetTick>
 8004de6:	60f8      	str	r0, [r7, #12]
 8004de8:	e009      	b.n	8004dfe <HAL_RCCEx_PeriphCLKConfig+0x72>
 8004dea:	f7fd fae1 	bl	80023b0 <HAL_GetTick>
 8004dee:	4602      	mov	r2, r0
 8004df0:	68fb      	ldr	r3, [r7, #12]
 8004df2:	1ad3      	subs	r3, r2, r3
 8004df4:	2b02      	cmp	r3, #2
 8004df6:	d902      	bls.n	8004dfe <HAL_RCCEx_PeriphCLKConfig+0x72>
 8004df8:	2303      	movs	r3, #3
 8004dfa:	74fb      	strb	r3, [r7, #19]
 8004dfc:	e005      	b.n	8004e0a <HAL_RCCEx_PeriphCLKConfig+0x7e>
 8004dfe:	4b30      	ldr	r3, [pc, #192]	@ (8004ec0 <HAL_RCCEx_PeriphCLKConfig+0x134>)
 8004e00:	681b      	ldr	r3, [r3, #0]
 8004e02:	f403 7380 	and.w	r3, r3, #256	@ 0x100
 8004e06:	2b00      	cmp	r3, #0
 8004e08:	d0ef      	beq.n	8004dea <HAL_RCCEx_PeriphCLKConfig+0x5e>
 8004e0a:	7cfb      	ldrb	r3, [r7, #19]
 8004e0c:	2b00      	cmp	r3, #0
 8004e0e:	d159      	bne.n	8004ec4 <HAL_RCCEx_PeriphCLKConfig+0x138>
 8004e10:	4b2a      	ldr	r3, [pc, #168]	@ (8004ebc <HAL_RCCEx_PeriphCLKConfig+0x130>)
 8004e12:	f8d3 3090 	ldr.w	r3, [r3, #144]	@ 0x90
 8004e16:	f403 7340 	and.w	r3, r3, #768	@ 0x300
 8004e1a:	617b      	str	r3, [r7, #20]
 8004e1c:	697b      	ldr	r3, [r7, #20]
 8004e1e:	2b00      	cmp	r3, #0
 8004e20:	d01e      	beq.n	8004e60 <HAL_RCCEx_PeriphCLKConfig+0xd4>
 8004e22:	687b      	ldr	r3, [r7, #4]
 8004e24:	6d1b      	ldr	r3, [r3, #80]	@ 0x50
 8004e26:	697a      	ldr	r2, [r7, #20]
 8004e28:	429a      	cmp	r2, r3
 8004e2a:	d019      	beq.n	8004e60 <HAL_RCCEx_PeriphCLKConfig+0xd4>
 8004e2c:	4b23      	ldr	r3, [pc, #140]	@ (8004ebc <HAL_RCCEx_PeriphCLKConfig+0x130>)
 8004e2e:	f8d3 3090 	ldr.w	r3, [r3, #144]	@ 0x90
 8004e32:	f423 7340 	bic.w	r3, r3, #768	@ 0x300
 8004e36:	617b      	str	r3, [r7, #20]
 8004e38:	4b20      	ldr	r3, [pc, #128]	@ (8004ebc <HAL_RCCEx_PeriphCLKConfig+0x130>)
 8004e3a:	f8d3 3090 	ldr.w	r3, [r3, #144]	@ 0x90
 8004e3e:	4a1f      	ldr	r2, [pc, #124]	@ (8004ebc <HAL_RCCEx_PeriphCLKConfig+0x130>)
 8004e40:	f443 3380 	orr.w	r3, r3, #65536	@ 0x10000
 8004e44:	f8c2 3090 	str.w	r3, [r2, #144]	@ 0x90
 8004e48:	4b1c      	ldr	r3, [pc, #112]	@ (8004ebc <HAL_RCCEx_PeriphCLKConfig+0x130>)
 8004e4a:	f8d3 3090 	ldr.w	r3, [r3, #144]	@ 0x90
 8004e4e:	4a1b      	ldr	r2, [pc, #108]	@ (8004ebc <HAL_RCCEx_PeriphCLKConfig+0x130>)
 8004e50:	f423 3380 	bic.w	r3, r3, #65536	@ 0x10000
 8004e54:	f8c2 3090 	str.w	r3, [r2, #144]	@ 0x90
 8004e58:	4a18      	ldr	r2, [pc, #96]	@ (8004ebc <HAL_RCCEx_PeriphCLKConfig+0x130>)
 8004e5a:	697b      	ldr	r3, [r7, #20]
 8004e5c:	f8c2 3090 	str.w	r3, [r2, #144]	@ 0x90
 8004e60:	697b      	ldr	r3, [r7, #20]
 8004e62:	f003 0301 	and.w	r3, r3, #1
 8004e66:	2b00      	cmp	r3, #0
 8004e68:	d016      	beq.n	8004e98 <HAL_RCCEx_PeriphCLKConfig+0x10c>
 8004e6a:	f7fd faa1 	bl	80023b0 <HAL_GetTick>
 8004e6e:	60f8      	str	r0, [r7, #12]
 8004e70:	e00b      	b.n	8004e8a <HAL_RCCEx_PeriphCLKConfig+0xfe>
 8004e72:	f7fd fa9d 	bl	80023b0 <HAL_GetTick>
 8004e76:	4602      	mov	r2, r0
 8004e78:	68fb      	ldr	r3, [r7, #12]
 8004e7a:	1ad3      	subs	r3, r2, r3
 8004e7c:	f241 3288 	movw	r2, #5000	@ 0x1388
 8004e80:	4293      	cmp	r3, r2
 8004e82:	d902      	bls.n	8004e8a <HAL_RCCEx_PeriphCLKConfig+0xfe>
 8004e84:	2303      	movs	r3, #3
 8004e86:	74fb      	strb	r3, [r7, #19]
 8004e88:	e006      	b.n	8004e98 <HAL_RCCEx_PeriphCLKConfig+0x10c>
 8004e8a:	4b0c      	ldr	r3, [pc, #48]	@ (8004ebc <HAL_RCCEx_PeriphCLKConfig+0x130>)
 8004e8c:	f8d3 3090 	ldr.w	r3, [r3, #144]	@ 0x90
 8004e90:	f003 0302 	and.w	r3, r3, #2
 8004e94:	2b00      	cmp	r3, #0
 8004e96:	d0ec      	beq.n	8004e72 <HAL_RCCEx_PeriphCLKConfig+0xe6>
 8004e98:	7cfb      	ldrb	r3, [r7, #19]
 8004e9a:	2b00      	cmp	r3, #0
 8004e9c:	d10b      	bne.n	8004eb6 <HAL_RCCEx_PeriphCLKConfig+0x12a>
 8004e9e:	4b07      	ldr	r3, [pc, #28]	@ (8004ebc <HAL_RCCEx_PeriphCLKConfig+0x130>)
 8004ea0:	f8d3 3090 	ldr.w	r3, [r3, #144]	@ 0x90
 8004ea4:	f423 7240 	bic.w	r2, r3, #768	@ 0x300
 8004ea8:	687b      	ldr	r3, [r7, #4]
 8004eaa:	6d1b      	ldr	r3, [r3, #80]	@ 0x50
 8004eac:	4903      	ldr	r1, [pc, #12]	@ (8004ebc <HAL_RCCEx_PeriphCLKConfig+0x130>)
 8004eae:	4313      	orrs	r3, r2
 8004eb0:	f8c1 3090 	str.w	r3, [r1, #144]	@ 0x90
 8004eb4:	e008      	b.n	8004ec8 <HAL_RCCEx_PeriphCLKConfig+0x13c>
 8004eb6:	7cfb      	ldrb	r3, [r7, #19]
 8004eb8:	74bb      	strb	r3, [r7, #18]
 8004eba:	e005      	b.n	8004ec8 <HAL_RCCEx_PeriphCLKConfig+0x13c>
 8004ebc:	40021000 	.word	0x40021000
 8004ec0:	40007000 	.word	0x40007000
 8004ec4:	7cfb      	ldrb	r3, [r7, #19]
 8004ec6:	74bb      	strb	r3, [r7, #18]
 8004ec8:	7c7b      	ldrb	r3, [r7, #17]
 8004eca:	2b01      	cmp	r3, #1
 8004ecc:	d105      	bne.n	8004eda <HAL_RCCEx_PeriphCLKConfig+0x14e>
 8004ece:	4ba7      	ldr	r3, [pc, #668]	@ (800516c <HAL_RCCEx_PeriphCLKConfig+0x3e0>)
 8004ed0:	6d9b      	ldr	r3, [r3, #88]	@ 0x58
 8004ed2:	4aa6      	ldr	r2, [pc, #664]	@ (800516c <HAL_RCCEx_PeriphCLKConfig+0x3e0>)
 8004ed4:	f023 5380 	bic.w	r3, r3, #268435456	@ 0x10000000
 8004ed8:	6593      	str	r3, [r2, #88]	@ 0x58
 8004eda:	687b      	ldr	r3, [r7, #4]
 8004edc:	681b      	ldr	r3, [r3, #0]
 8004ede:	f003 0301 	and.w	r3, r3, #1
 8004ee2:	2b00      	cmp	r3, #0
 8004ee4:	d00a      	beq.n	8004efc <HAL_RCCEx_PeriphCLKConfig+0x170>
 8004ee6:	4ba1      	ldr	r3, [pc, #644]	@ (800516c <HAL_RCCEx_PeriphCLKConfig+0x3e0>)
 8004ee8:	f8d3 3088 	ldr.w	r3, [r3, #136]	@ 0x88
 8004eec:	f023 0203 	bic.w	r2, r3, #3
 8004ef0:	687b      	ldr	r3, [r7, #4]
 8004ef2:	685b      	ldr	r3, [r3, #4]
 8004ef4:	499d      	ldr	r1, [pc, #628]	@ (800516c <HAL_RCCEx_PeriphCLKConfig+0x3e0>)
 8004ef6:	4313      	orrs	r3, r2
 8004ef8:	f8c1 3088 	str.w	r3, [r1, #136]	@ 0x88
 8004efc:	687b      	ldr	r3, [r7, #4]
 8004efe:	681b      	ldr	r3, [r3, #0]
 8004f00:	f003 0302 	and.w	r3, r3, #2
 8004f04:	2b00      	cmp	r3, #0
 8004f06:	d00a      	beq.n	8004f1e <HAL_RCCEx_PeriphCLKConfig+0x192>
 8004f08:	4b98      	ldr	r3, [pc, #608]	@ (800516c <HAL_RCCEx_PeriphCLKConfig+0x3e0>)
 8004f0a:	f8d3 3088 	ldr.w	r3, [r3, #136]	@ 0x88
 8004f0e:	f023 020c 	bic.w	r2, r3, #12
 8004f12:	687b      	ldr	r3, [r7, #4]
 8004f14:	689b      	ldr	r3, [r3, #8]
 8004f16:	4995      	ldr	r1, [pc, #596]	@ (800516c <HAL_RCCEx_PeriphCLKConfig+0x3e0>)
 8004f18:	4313      	orrs	r3, r2
 8004f1a:	f8c1 3088 	str.w	r3, [r1, #136]	@ 0x88
 8004f1e:	687b      	ldr	r3, [r7, #4]
 8004f20:	681b      	ldr	r3, [r3, #0]
 8004f22:	f003 0304 	and.w	r3, r3, #4
 8004f26:	2b00      	cmp	r3, #0
 8004f28:	d00a      	beq.n	8004f40 <HAL_RCCEx_PeriphCLKConfig+0x1b4>
 8004f2a:	4b90      	ldr	r3, [pc, #576]	@ (800516c <HAL_RCCEx_PeriphCLKConfig+0x3e0>)
 8004f2c:	f8d3 3088 	ldr.w	r3, [r3, #136]	@ 0x88
 8004f30:	f023 0230 	bic.w	r2, r3, #48	@ 0x30
 8004f34:	687b      	ldr	r3, [r7, #4]
 8004f36:	68db      	ldr	r3, [r3, #12]
 8004f38:	498c      	ldr	r1, [pc, #560]	@ (800516c <HAL_RCCEx_PeriphCLKConfig+0x3e0>)
 8004f3a:	4313      	orrs	r3, r2
 8004f3c:	f8c1 3088 	str.w	r3, [r1, #136]	@ 0x88
 8004f40:	687b      	ldr	r3, [r7, #4]
 8004f42:	681b      	ldr	r3, [r3, #0]
 8004f44:	f003 0308 	and.w	r3, r3, #8
 8004f48:	2b00      	cmp	r3, #0
 8004f4a:	d00a      	beq.n	8004f62 <HAL_RCCEx_PeriphCLKConfig+0x1d6>
 8004f4c:	4b87      	ldr	r3, [pc, #540]	@ (800516c <HAL_RCCEx_PeriphCLKConfig+0x3e0>)
 8004f4e:	f8d3 3088 	ldr.w	r3, [r3, #136]	@ 0x88
 8004f52:	f023 02c0 	bic.w	r2, r3, #192	@ 0xc0
 8004f56:	687b      	ldr	r3, [r7, #4]
 8004f58:	691b      	ldr	r3, [r3, #16]
 8004f5a:	4984      	ldr	r1, [pc, #528]	@ (800516c <HAL_RCCEx_PeriphCLKConfig+0x3e0>)
 8004f5c:	4313      	orrs	r3, r2
 8004f5e:	f8c1 3088 	str.w	r3, [r1, #136]	@ 0x88
 8004f62:	687b      	ldr	r3, [r7, #4]
 8004f64:	681b      	ldr	r3, [r3, #0]
 8004f66:	f003 0310 	and.w	r3, r3, #16
 8004f6a:	2b00      	cmp	r3, #0
 8004f6c:	d00a      	beq.n	8004f84 <HAL_RCCEx_PeriphCLKConfig+0x1f8>
 8004f6e:	4b7f      	ldr	r3, [pc, #508]	@ (800516c <HAL_RCCEx_PeriphCLKConfig+0x3e0>)
 8004f70:	f8d3 3088 	ldr.w	r3, [r3, #136]	@ 0x88
 8004f74:	f423 7240 	bic.w	r2, r3, #768	@ 0x300
 8004f78:	687b      	ldr	r3, [r7, #4]
 8004f7a:	695b      	ldr	r3, [r3, #20]
 8004f7c:	497b      	ldr	r1, [pc, #492]	@ (800516c <HAL_RCCEx_PeriphCLKConfig+0x3e0>)
 8004f7e:	4313      	orrs	r3, r2
 8004f80:	f8c1 3088 	str.w	r3, [r1, #136]	@ 0x88
 8004f84:	687b      	ldr	r3, [r7, #4]
 8004f86:	681b      	ldr	r3, [r3, #0]
 8004f88:	f003 0320 	and.w	r3, r3, #32
 8004f8c:	2b00      	cmp	r3, #0
 8004f8e:	d00a      	beq.n	8004fa6 <HAL_RCCEx_PeriphCLKConfig+0x21a>
 8004f90:	4b76      	ldr	r3, [pc, #472]	@ (800516c <HAL_RCCEx_PeriphCLKConfig+0x3e0>)
 8004f92:	f8d3 3088 	ldr.w	r3, [r3, #136]	@ 0x88
 8004f96:	f423 6240 	bic.w	r2, r3, #3072	@ 0xc00
 8004f9a:	687b      	ldr	r3, [r7, #4]
 8004f9c:	699b      	ldr	r3, [r3, #24]
 8004f9e:	4973      	ldr	r1, [pc, #460]	@ (800516c <HAL_RCCEx_PeriphCLKConfig+0x3e0>)
 8004fa0:	4313      	orrs	r3, r2
 8004fa2:	f8c1 3088 	str.w	r3, [r1, #136]	@ 0x88
 8004fa6:	687b      	ldr	r3, [r7, #4]
 8004fa8:	681b      	ldr	r3, [r3, #0]
 8004faa:	f003 0340 	and.w	r3, r3, #64	@ 0x40
 8004fae:	2b00      	cmp	r3, #0
 8004fb0:	d00a      	beq.n	8004fc8 <HAL_RCCEx_PeriphCLKConfig+0x23c>
 8004fb2:	4b6e      	ldr	r3, [pc, #440]	@ (800516c <HAL_RCCEx_PeriphCLKConfig+0x3e0>)
 8004fb4:	f8d3 3088 	ldr.w	r3, [r3, #136]	@ 0x88
 8004fb8:	f423 5240 	bic.w	r2, r3, #12288	@ 0x3000
 8004fbc:	687b      	ldr	r3, [r7, #4]
 8004fbe:	69db      	ldr	r3, [r3, #28]
 8004fc0:	496a      	ldr	r1, [pc, #424]	@ (800516c <HAL_RCCEx_PeriphCLKConfig+0x3e0>)
 8004fc2:	4313      	orrs	r3, r2
 8004fc4:	f8c1 3088 	str.w	r3, [r1, #136]	@ 0x88
 8004fc8:	687b      	ldr	r3, [r7, #4]
 8004fca:	681b      	ldr	r3, [r3, #0]
 8004fcc:	f003 0380 	and.w	r3, r3, #128	@ 0x80
 8004fd0:	2b00      	cmp	r3, #0
 8004fd2:	d00a      	beq.n	8004fea <HAL_RCCEx_PeriphCLKConfig+0x25e>
 8004fd4:	4b65      	ldr	r3, [pc, #404]	@ (800516c <HAL_RCCEx_PeriphCLKConfig+0x3e0>)
 8004fd6:	f8d3 3088 	ldr.w	r3, [r3, #136]	@ 0x88
 8004fda:	f423 4240 	bic.w	r2, r3, #49152	@ 0xc000
 8004fde:	687b      	ldr	r3, [r7, #4]
 8004fe0:	6a1b      	ldr	r3, [r3, #32]
 8004fe2:	4962      	ldr	r1, [pc, #392]	@ (800516c <HAL_RCCEx_PeriphCLKConfig+0x3e0>)
 8004fe4:	4313      	orrs	r3, r2
 8004fe6:	f8c1 3088 	str.w	r3, [r1, #136]	@ 0x88
 8004fea:	687b      	ldr	r3, [r7, #4]
 8004fec:	681b      	ldr	r3, [r3, #0]
 8004fee:	f403 7380 	and.w	r3, r3, #256	@ 0x100
 8004ff2:	2b00      	cmp	r3, #0
 8004ff4:	d00a      	beq.n	800500c <HAL_RCCEx_PeriphCLKConfig+0x280>
 8004ff6:	4b5d      	ldr	r3, [pc, #372]	@ (800516c <HAL_RCCEx_PeriphCLKConfig+0x3e0>)
 8004ff8:	f8d3 3088 	ldr.w	r3, [r3, #136]	@ 0x88
 8004ffc:	f423 3240 	bic.w	r2, r3, #196608	@ 0x30000
 8005000:	687b      	ldr	r3, [r7, #4]
 8005002:	6a5b      	ldr	r3, [r3, #36]	@ 0x24
 8005004:	4959      	ldr	r1, [pc, #356]	@ (800516c <HAL_RCCEx_PeriphCLKConfig+0x3e0>)
 8005006:	4313      	orrs	r3, r2
 8005008:	f8c1 3088 	str.w	r3, [r1, #136]	@ 0x88
 800500c:	687b      	ldr	r3, [r7, #4]
 800500e:	681b      	ldr	r3, [r3, #0]
 8005010:	f403 3300 	and.w	r3, r3, #131072	@ 0x20000
 8005014:	2b00      	cmp	r3, #0
 8005016:	d00a      	beq.n	800502e <HAL_RCCEx_PeriphCLKConfig+0x2a2>
 8005018:	4b54      	ldr	r3, [pc, #336]	@ (800516c <HAL_RCCEx_PeriphCLKConfig+0x3e0>)
 800501a:	f8d3 309c 	ldr.w	r3, [r3, #156]	@ 0x9c
 800501e:	f023 0203 	bic.w	r2, r3, #3
 8005022:	687b      	ldr	r3, [r7, #4]
 8005024:	6a9b      	ldr	r3, [r3, #40]	@ 0x28
 8005026:	4951      	ldr	r1, [pc, #324]	@ (800516c <HAL_RCCEx_PeriphCLKConfig+0x3e0>)
 8005028:	4313      	orrs	r3, r2
 800502a:	f8c1 309c 	str.w	r3, [r1, #156]	@ 0x9c
 800502e:	687b      	ldr	r3, [r7, #4]
 8005030:	681b      	ldr	r3, [r3, #0]
 8005032:	f403 7300 	and.w	r3, r3, #512	@ 0x200
 8005036:	2b00      	cmp	r3, #0
 8005038:	d00a      	beq.n	8005050 <HAL_RCCEx_PeriphCLKConfig+0x2c4>
 800503a:	4b4c      	ldr	r3, [pc, #304]	@ (800516c <HAL_RCCEx_PeriphCLKConfig+0x3e0>)
 800503c:	f8d3 3088 	ldr.w	r3, [r3, #136]	@ 0x88
 8005040:	f423 2240 	bic.w	r2, r3, #786432	@ 0xc0000
 8005044:	687b      	ldr	r3, [r7, #4]
 8005046:	6adb      	ldr	r3, [r3, #44]	@ 0x2c
 8005048:	4948      	ldr	r1, [pc, #288]	@ (800516c <HAL_RCCEx_PeriphCLKConfig+0x3e0>)
 800504a:	4313      	orrs	r3, r2
 800504c:	f8c1 3088 	str.w	r3, [r1, #136]	@ 0x88
 8005050:	687b      	ldr	r3, [r7, #4]
 8005052:	681b      	ldr	r3, [r3, #0]
 8005054:	f403 6380 	and.w	r3, r3, #1024	@ 0x400
 8005058:	2b00      	cmp	r3, #0
 800505a:	d015      	beq.n	8005088 <HAL_RCCEx_PeriphCLKConfig+0x2fc>
 800505c:	4b43      	ldr	r3, [pc, #268]	@ (800516c <HAL_RCCEx_PeriphCLKConfig+0x3e0>)
 800505e:	f8d3 3088 	ldr.w	r3, [r3, #136]	@ 0x88
 8005062:	f423 1240 	bic.w	r2, r3, #3145728	@ 0x300000
 8005066:	687b      	ldr	r3, [r7, #4]
 8005068:	6b1b      	ldr	r3, [r3, #48]	@ 0x30
 800506a:	4940      	ldr	r1, [pc, #256]	@ (800516c <HAL_RCCEx_PeriphCLKConfig+0x3e0>)
 800506c:	4313      	orrs	r3, r2
 800506e:	f8c1 3088 	str.w	r3, [r1, #136]	@ 0x88
 8005072:	687b      	ldr	r3, [r7, #4]
 8005074:	6b1b      	ldr	r3, [r3, #48]	@ 0x30
 8005076:	f5b3 1f80 	cmp.w	r3, #1048576	@ 0x100000
 800507a:	d105      	bne.n	8005088 <HAL_RCCEx_PeriphCLKConfig+0x2fc>
 800507c:	4b3b      	ldr	r3, [pc, #236]	@ (800516c <HAL_RCCEx_PeriphCLKConfig+0x3e0>)
 800507e:	68db      	ldr	r3, [r3, #12]
 8005080:	4a3a      	ldr	r2, [pc, #232]	@ (800516c <HAL_RCCEx_PeriphCLKConfig+0x3e0>)
 8005082:	f443 1380 	orr.w	r3, r3, #1048576	@ 0x100000
 8005086:	60d3      	str	r3, [r2, #12]
 8005088:	687b      	ldr	r3, [r7, #4]
 800508a:	681b      	ldr	r3, [r3, #0]
 800508c:	f403 6300 	and.w	r3, r3, #2048	@ 0x800
 8005090:	2b00      	cmp	r3, #0
 8005092:	d015      	beq.n	80050c0 <HAL_RCCEx_PeriphCLKConfig+0x334>
 8005094:	4b35      	ldr	r3, [pc, #212]	@ (800516c <HAL_RCCEx_PeriphCLKConfig+0x3e0>)
 8005096:	f8d3 3088 	ldr.w	r3, [r3, #136]	@ 0x88
 800509a:	f423 0240 	bic.w	r2, r3, #12582912	@ 0xc00000
 800509e:	687b      	ldr	r3, [r7, #4]
 80050a0:	6b5b      	ldr	r3, [r3, #52]	@ 0x34
 80050a2:	4932      	ldr	r1, [pc, #200]	@ (800516c <HAL_RCCEx_PeriphCLKConfig+0x3e0>)
 80050a4:	4313      	orrs	r3, r2
 80050a6:	f8c1 3088 	str.w	r3, [r1, #136]	@ 0x88
 80050aa:	687b      	ldr	r3, [r7, #4]
 80050ac:	6b5b      	ldr	r3, [r3, #52]	@ 0x34
 80050ae:	f5b3 0f80 	cmp.w	r3, #4194304	@ 0x400000
 80050b2:	d105      	bne.n	80050c0 <HAL_RCCEx_PeriphCLKConfig+0x334>
 80050b4:	4b2d      	ldr	r3, [pc, #180]	@ (800516c <HAL_RCCEx_PeriphCLKConfig+0x3e0>)
 80050b6:	68db      	ldr	r3, [r3, #12]
 80050b8:	4a2c      	ldr	r2, [pc, #176]	@ (800516c <HAL_RCCEx_PeriphCLKConfig+0x3e0>)
 80050ba:	f443 1380 	orr.w	r3, r3, #1048576	@ 0x100000
 80050be:	60d3      	str	r3, [r2, #12]
 80050c0:	687b      	ldr	r3, [r7, #4]
 80050c2:	681b      	ldr	r3, [r3, #0]
 80050c4:	f403 5380 	and.w	r3, r3, #4096	@ 0x1000
 80050c8:	2b00      	cmp	r3, #0
 80050ca:	d015      	beq.n	80050f8 <HAL_RCCEx_PeriphCLKConfig+0x36c>
 80050cc:	4b27      	ldr	r3, [pc, #156]	@ (800516c <HAL_RCCEx_PeriphCLKConfig+0x3e0>)
 80050ce:	f8d3 3088 	ldr.w	r3, [r3, #136]	@ 0x88
 80050d2:	f023 7240 	bic.w	r2, r3, #50331648	@ 0x3000000
 80050d6:	687b      	ldr	r3, [r7, #4]
 80050d8:	6b9b      	ldr	r3, [r3, #56]	@ 0x38
 80050da:	4924      	ldr	r1, [pc, #144]	@ (800516c <HAL_RCCEx_PeriphCLKConfig+0x3e0>)
 80050dc:	4313      	orrs	r3, r2
 80050de:	f8c1 3088 	str.w	r3, [r1, #136]	@ 0x88
 80050e2:	687b      	ldr	r3, [r7, #4]
 80050e4:	6b9b      	ldr	r3, [r3, #56]	@ 0x38
 80050e6:	f1b3 7f80 	cmp.w	r3, #16777216	@ 0x1000000
 80050ea:	d105      	bne.n	80050f8 <HAL_RCCEx_PeriphCLKConfig+0x36c>
 80050ec:	4b1f      	ldr	r3, [pc, #124]	@ (800516c <HAL_RCCEx_PeriphCLKConfig+0x3e0>)
 80050ee:	68db      	ldr	r3, [r3, #12]
 80050f0:	4a1e      	ldr	r2, [pc, #120]	@ (800516c <HAL_RCCEx_PeriphCLKConfig+0x3e0>)
 80050f2:	f443 1380 	orr.w	r3, r3, #1048576	@ 0x100000
 80050f6:	60d3      	str	r3, [r2, #12]
 80050f8:	687b      	ldr	r3, [r7, #4]
 80050fa:	681b      	ldr	r3, [r3, #0]
 80050fc:	f403 5300 	and.w	r3, r3, #8192	@ 0x2000
 8005100:	2b00      	cmp	r3, #0
 8005102:	d015      	beq.n	8005130 <HAL_RCCEx_PeriphCLKConfig+0x3a4>
 8005104:	4b19      	ldr	r3, [pc, #100]	@ (800516c <HAL_RCCEx_PeriphCLKConfig+0x3e0>)
 8005106:	f8d3 3088 	ldr.w	r3, [r3, #136]	@ 0x88
 800510a:	f023 6240 	bic.w	r2, r3, #201326592	@ 0xc000000
 800510e:	687b      	ldr	r3, [r7, #4]
 8005110:	6bdb      	ldr	r3, [r3, #60]	@ 0x3c
 8005112:	4916      	ldr	r1, [pc, #88]	@ (800516c <HAL_RCCEx_PeriphCLKConfig+0x3e0>)
 8005114:	4313      	orrs	r3, r2
 8005116:	f8c1 3088 	str.w	r3, [r1, #136]	@ 0x88
 800511a:	687b      	ldr	r3, [r7, #4]
 800511c:	6bdb      	ldr	r3, [r3, #60]	@ 0x3c
 800511e:	f1b3 6f00 	cmp.w	r3, #134217728	@ 0x8000000
 8005122:	d105      	bne.n	8005130 <HAL_RCCEx_PeriphCLKConfig+0x3a4>
 8005124:	4b11      	ldr	r3, [pc, #68]	@ (800516c <HAL_RCCEx_PeriphCLKConfig+0x3e0>)
 8005126:	68db      	ldr	r3, [r3, #12]
 8005128:	4a10      	ldr	r2, [pc, #64]	@ (800516c <HAL_RCCEx_PeriphCLKConfig+0x3e0>)
 800512a:	f443 1380 	orr.w	r3, r3, #1048576	@ 0x100000
 800512e:	60d3      	str	r3, [r2, #12]
 8005130:	687b      	ldr	r3, [r7, #4]
 8005132:	681b      	ldr	r3, [r3, #0]
 8005134:	f403 4380 	and.w	r3, r3, #16384	@ 0x4000
 8005138:	2b00      	cmp	r3, #0
 800513a:	d019      	beq.n	8005170 <HAL_RCCEx_PeriphCLKConfig+0x3e4>
 800513c:	4b0b      	ldr	r3, [pc, #44]	@ (800516c <HAL_RCCEx_PeriphCLKConfig+0x3e0>)
 800513e:	f8d3 3088 	ldr.w	r3, [r3, #136]	@ 0x88
 8005142:	f023 6240 	bic.w	r2, r3, #201326592	@ 0xc000000
 8005146:	687b      	ldr	r3, [r7, #4]
 8005148:	6c1b      	ldr	r3, [r3, #64]	@ 0x40
 800514a:	4908      	ldr	r1, [pc, #32]	@ (800516c <HAL_RCCEx_PeriphCLKConfig+0x3e0>)
 800514c:	4313      	orrs	r3, r2
 800514e:	f8c1 3088 	str.w	r3, [r1, #136]	@ 0x88
 8005152:	687b      	ldr	r3, [r7, #4]
 8005154:	6c1b      	ldr	r3, [r3, #64]	@ 0x40
 8005156:	f1b3 6f00 	cmp.w	r3, #134217728	@ 0x8000000
 800515a:	d109      	bne.n	8005170 <HAL_RCCEx_PeriphCLKConfig+0x3e4>
 800515c:	4b03      	ldr	r3, [pc, #12]	@ (800516c <HAL_RCCEx_PeriphCLKConfig+0x3e0>)
 800515e:	68db      	ldr	r3, [r3, #12]
 8005160:	4a02      	ldr	r2, [pc, #8]	@ (800516c <HAL_RCCEx_PeriphCLKConfig+0x3e0>)
 8005162:	f443 1380 	orr.w	r3, r3, #1048576	@ 0x100000
 8005166:	60d3      	str	r3, [r2, #12]
 8005168:	e002      	b.n	8005170 <HAL_RCCEx_PeriphCLKConfig+0x3e4>
 800516a:	bf00      	nop
 800516c:	40021000 	.word	0x40021000
 8005170:	687b      	ldr	r3, [r7, #4]
 8005172:	681b      	ldr	r3, [r3, #0]
 8005174:	f403 4300 	and.w	r3, r3, #32768	@ 0x8000
 8005178:	2b00      	cmp	r3, #0
 800517a:	d015      	beq.n	80051a8 <HAL_RCCEx_PeriphCLKConfig+0x41c>
 800517c:	4b29      	ldr	r3, [pc, #164]	@ (8005224 <HAL_RCCEx_PeriphCLKConfig+0x498>)
 800517e:	f8d3 3088 	ldr.w	r3, [r3, #136]	@ 0x88
 8005182:	f023 5240 	bic.w	r2, r3, #805306368	@ 0x30000000
 8005186:	687b      	ldr	r3, [r7, #4]
 8005188:	6c5b      	ldr	r3, [r3, #68]	@ 0x44
 800518a:	4926      	ldr	r1, [pc, #152]	@ (8005224 <HAL_RCCEx_PeriphCLKConfig+0x498>)
 800518c:	4313      	orrs	r3, r2
 800518e:	f8c1 3088 	str.w	r3, [r1, #136]	@ 0x88
 8005192:	687b      	ldr	r3, [r7, #4]
 8005194:	6c5b      	ldr	r3, [r3, #68]	@ 0x44
 8005196:	f1b3 5f80 	cmp.w	r3, #268435456	@ 0x10000000
 800519a:	d105      	bne.n	80051a8 <HAL_RCCEx_PeriphCLKConfig+0x41c>
 800519c:	4b21      	ldr	r3, [pc, #132]	@ (8005224 <HAL_RCCEx_PeriphCLKConfig+0x498>)
 800519e:	68db      	ldr	r3, [r3, #12]
 80051a0:	4a20      	ldr	r2, [pc, #128]	@ (8005224 <HAL_RCCEx_PeriphCLKConfig+0x498>)
 80051a2:	f443 3380 	orr.w	r3, r3, #65536	@ 0x10000
 80051a6:	60d3      	str	r3, [r2, #12]
 80051a8:	687b      	ldr	r3, [r7, #4]
 80051aa:	681b      	ldr	r3, [r3, #0]
 80051ac:	f403 3380 	and.w	r3, r3, #65536	@ 0x10000
 80051b0:	2b00      	cmp	r3, #0
 80051b2:	d015      	beq.n	80051e0 <HAL_RCCEx_PeriphCLKConfig+0x454>
 80051b4:	4b1b      	ldr	r3, [pc, #108]	@ (8005224 <HAL_RCCEx_PeriphCLKConfig+0x498>)
 80051b6:	f8d3 3088 	ldr.w	r3, [r3, #136]	@ 0x88
 80051ba:	f023 4240 	bic.w	r2, r3, #3221225472	@ 0xc0000000
 80051be:	687b      	ldr	r3, [r7, #4]
 80051c0:	6c9b      	ldr	r3, [r3, #72]	@ 0x48
 80051c2:	4918      	ldr	r1, [pc, #96]	@ (8005224 <HAL_RCCEx_PeriphCLKConfig+0x498>)
 80051c4:	4313      	orrs	r3, r2
 80051c6:	f8c1 3088 	str.w	r3, [r1, #136]	@ 0x88
 80051ca:	687b      	ldr	r3, [r7, #4]
 80051cc:	6c9b      	ldr	r3, [r3, #72]	@ 0x48
 80051ce:	f1b3 4f80 	cmp.w	r3, #1073741824	@ 0x40000000
 80051d2:	d105      	bne.n	80051e0 <HAL_RCCEx_PeriphCLKConfig+0x454>
 80051d4:	4b13      	ldr	r3, [pc, #76]	@ (8005224 <HAL_RCCEx_PeriphCLKConfig+0x498>)
 80051d6:	68db      	ldr	r3, [r3, #12]
 80051d8:	4a12      	ldr	r2, [pc, #72]	@ (8005224 <HAL_RCCEx_PeriphCLKConfig+0x498>)
 80051da:	f443 3380 	orr.w	r3, r3, #65536	@ 0x10000
 80051de:	60d3      	str	r3, [r2, #12]
 80051e0:	687b      	ldr	r3, [r7, #4]
 80051e2:	681b      	ldr	r3, [r3, #0]
 80051e4:	f403 2380 	and.w	r3, r3, #262144	@ 0x40000
 80051e8:	2b00      	cmp	r3, #0
 80051ea:	d015      	beq.n	8005218 <HAL_RCCEx_PeriphCLKConfig+0x48c>
 80051ec:	4b0d      	ldr	r3, [pc, #52]	@ (8005224 <HAL_RCCEx_PeriphCLKConfig+0x498>)
 80051ee:	f8d3 309c 	ldr.w	r3, [r3, #156]	@ 0x9c
 80051f2:	f423 1240 	bic.w	r2, r3, #3145728	@ 0x300000
 80051f6:	687b      	ldr	r3, [r7, #4]
 80051f8:	6cdb      	ldr	r3, [r3, #76]	@ 0x4c
 80051fa:	490a      	ldr	r1, [pc, #40]	@ (8005224 <HAL_RCCEx_PeriphCLKConfig+0x498>)
 80051fc:	4313      	orrs	r3, r2
 80051fe:	f8c1 309c 	str.w	r3, [r1, #156]	@ 0x9c
 8005202:	687b      	ldr	r3, [r7, #4]
 8005204:	6cdb      	ldr	r3, [r3, #76]	@ 0x4c
 8005206:	f5b3 1f00 	cmp.w	r3, #2097152	@ 0x200000
 800520a:	d105      	bne.n	8005218 <HAL_RCCEx_PeriphCLKConfig+0x48c>
 800520c:	4b05      	ldr	r3, [pc, #20]	@ (8005224 <HAL_RCCEx_PeriphCLKConfig+0x498>)
 800520e:	68db      	ldr	r3, [r3, #12]
 8005210:	4a04      	ldr	r2, [pc, #16]	@ (8005224 <HAL_RCCEx_PeriphCLKConfig+0x498>)
 8005212:	f443 1380 	orr.w	r3, r3, #1048576	@ 0x100000
 8005216:	60d3      	str	r3, [r2, #12]
 8005218:	7cbb      	ldrb	r3, [r7, #18]
 800521a:	4618      	mov	r0, r3
 800521c:	3718      	adds	r7, #24
 800521e:	46bd      	mov	sp, r7
 8005220:	bd80      	pop	{r7, pc}
 8005222:	bf00      	nop
 8005224:	40021000 	.word	0x40021000

08005228 <HAL_TIM_Base_Init>:
 8005228:	b580      	push	{r7, lr}
 800522a:	b082      	sub	sp, #8
 800522c:	af00      	add	r7, sp, #0
 800522e:	6078      	str	r0, [r7, #4]
 8005230:	687b      	ldr	r3, [r7, #4]
 8005232:	2b00      	cmp	r3, #0
 8005234:	d101      	bne.n	800523a <HAL_TIM_Base_Init+0x12>
 8005236:	2301      	movs	r3, #1
 8005238:	e054      	b.n	80052e4 <HAL_TIM_Base_Init+0xbc>
 800523a:	687b      	ldr	r3, [r7, #4]
 800523c:	f893 303d 	ldrb.w	r3, [r3, #61]	@ 0x3d
 8005240:	b2db      	uxtb	r3, r3
 8005242:	2b00      	cmp	r3, #0
 8005244:	d111      	bne.n	800526a <HAL_TIM_Base_Init+0x42>
 8005246:	687b      	ldr	r3, [r7, #4]
 8005248:	2200      	movs	r2, #0
 800524a:	f883 203c 	strb.w	r2, [r3, #60]	@ 0x3c
 800524e:	6878      	ldr	r0, [r7, #4]
 8005250:	f001 fe5c 	bl	8006f0c <TIM_ResetCallback>
 8005254:	687b      	ldr	r3, [r7, #4]
 8005256:	6cdb      	ldr	r3, [r3, #76]	@ 0x4c
 8005258:	2b00      	cmp	r3, #0
 800525a:	d102      	bne.n	8005262 <HAL_TIM_Base_Init+0x3a>
 800525c:	687b      	ldr	r3, [r7, #4]
 800525e:	4a23      	ldr	r2, [pc, #140]	@ (80052ec <HAL_TIM_Base_Init+0xc4>)
 8005260:	64da      	str	r2, [r3, #76]	@ 0x4c
 8005262:	687b      	ldr	r3, [r7, #4]
 8005264:	6cdb      	ldr	r3, [r3, #76]	@ 0x4c
 8005266:	6878      	ldr	r0, [r7, #4]
 8005268:	4798      	blx	r3
 800526a:	687b      	ldr	r3, [r7, #4]
 800526c:	2202      	movs	r2, #2
 800526e:	f883 203d 	strb.w	r2, [r3, #61]	@ 0x3d
 8005272:	687b      	ldr	r3, [r7, #4]
 8005274:	681a      	ldr	r2, [r3, #0]
 8005276:	687b      	ldr	r3, [r7, #4]
 8005278:	3304      	adds	r3, #4
 800527a:	4619      	mov	r1, r3
 800527c:	4610      	mov	r0, r2
 800527e:	f001 f9a5 	bl	80065cc <TIM_Base_SetConfig>
 8005282:	687b      	ldr	r3, [r7, #4]
 8005284:	2201      	movs	r2, #1
 8005286:	f883 2048 	strb.w	r2, [r3, #72]	@ 0x48
 800528a:	687b      	ldr	r3, [r7, #4]
 800528c:	2201      	movs	r2, #1
 800528e:	f883 203e 	strb.w	r2, [r3, #62]	@ 0x3e
 8005292:	687b      	ldr	r3, [r7, #4]
 8005294:	2201      	movs	r2, #1
 8005296:	f883 203f 	strb.w	r2, [r3, #63]	@ 0x3f
 800529a:	687b      	ldr	r3, [r7, #4]
 800529c:	2201      	movs	r2, #1
 800529e:	f883 2040 	strb.w	r2, [r3, #64]	@ 0x40
 80052a2:	687b      	ldr	r3, [r7, #4]
 80052a4:	2201      	movs	r2, #1
 80052a6:	f883 2041 	strb.w	r2, [r3, #65]	@ 0x41
 80052aa:	687b      	ldr	r3, [r7, #4]
 80052ac:	2201      	movs	r2, #1
 80052ae:	f883 2042 	strb.w	r2, [r3, #66]	@ 0x42
 80052b2:	687b      	ldr	r3, [r7, #4]
 80052b4:	2201      	movs	r2, #1
 80052b6:	f883 2043 	strb.w	r2, [r3, #67]	@ 0x43
 80052ba:	687b      	ldr	r3, [r7, #4]
 80052bc:	2201      	movs	r2, #1
 80052be:	f883 2044 	strb.w	r2, [r3, #68]	@ 0x44
 80052c2:	687b      	ldr	r3, [r7, #4]
 80052c4:	2201      	movs	r2, #1
 80052c6:	f883 2045 	strb.w	r2, [r3, #69]	@ 0x45
 80052ca:	687b      	ldr	r3, [r7, #4]
 80052cc:	2201      	movs	r2, #1
 80052ce:	f883 2046 	strb.w	r2, [r3, #70]	@ 0x46
 80052d2:	687b      	ldr	r3, [r7, #4]
 80052d4:	2201      	movs	r2, #1
 80052d6:	f883 2047 	strb.w	r2, [r3, #71]	@ 0x47
 80052da:	687b      	ldr	r3, [r7, #4]
 80052dc:	2201      	movs	r2, #1
 80052de:	f883 203d 	strb.w	r2, [r3, #61]	@ 0x3d
 80052e2:	2300      	movs	r3, #0
 80052e4:	4618      	mov	r0, r3
 80052e6:	3708      	adds	r7, #8
 80052e8:	46bd      	mov	sp, r7
 80052ea:	bd80      	pop	{r7, pc}
 80052ec:	08001cf9 	.word	0x08001cf9

080052f0 <HAL_TIM_Base_Start_IT>:
 80052f0:	b480      	push	{r7}
 80052f2:	b085      	sub	sp, #20
 80052f4:	af00      	add	r7, sp, #0
 80052f6:	6078      	str	r0, [r7, #4]
 80052f8:	687b      	ldr	r3, [r7, #4]
 80052fa:	f893 303d 	ldrb.w	r3, [r3, #61]	@ 0x3d
 80052fe:	b2db      	uxtb	r3, r3
 8005300:	2b01      	cmp	r3, #1
 8005302:	d001      	beq.n	8005308 <HAL_TIM_Base_Start_IT+0x18>
 8005304:	2301      	movs	r3, #1
 8005306:	e054      	b.n	80053b2 <HAL_TIM_Base_Start_IT+0xc2>
 8005308:	687b      	ldr	r3, [r7, #4]
 800530a:	2202      	movs	r2, #2
 800530c:	f883 203d 	strb.w	r2, [r3, #61]	@ 0x3d
 8005310:	687b      	ldr	r3, [r7, #4]
 8005312:	681b      	ldr	r3, [r3, #0]
 8005314:	68da      	ldr	r2, [r3, #12]
 8005316:	687b      	ldr	r3, [r7, #4]
 8005318:	681b      	ldr	r3, [r3, #0]
 800531a:	f042 0201 	orr.w	r2, r2, #1
 800531e:	60da      	str	r2, [r3, #12]
 8005320:	687b      	ldr	r3, [r7, #4]
 8005322:	681b      	ldr	r3, [r3, #0]
 8005324:	4a26      	ldr	r2, [pc, #152]	@ (80053c0 <HAL_TIM_Base_Start_IT+0xd0>)
 8005326:	4293      	cmp	r3, r2
 8005328:	d022      	beq.n	8005370 <HAL_TIM_Base_Start_IT+0x80>
 800532a:	687b      	ldr	r3, [r7, #4]
 800532c:	681b      	ldr	r3, [r3, #0]
 800532e:	f1b3 4f80 	cmp.w	r3, #1073741824	@ 0x40000000
 8005332:	d01d      	beq.n	8005370 <HAL_TIM_Base_Start_IT+0x80>
 8005334:	687b      	ldr	r3, [r7, #4]
 8005336:	681b      	ldr	r3, [r3, #0]
 8005338:	4a22      	ldr	r2, [pc, #136]	@ (80053c4 <HAL_TIM_Base_Start_IT+0xd4>)
 800533a:	4293      	cmp	r3, r2
 800533c:	d018      	beq.n	8005370 <HAL_TIM_Base_Start_IT+0x80>
 800533e:	687b      	ldr	r3, [r7, #4]
 8005340:	681b      	ldr	r3, [r3, #0]
 8005342:	4a21      	ldr	r2, [pc, #132]	@ (80053c8 <HAL_TIM_Base_Start_IT+0xd8>)
 8005344:	4293      	cmp	r3, r2
 8005346:	d013      	beq.n	8005370 <HAL_TIM_Base_Start_IT+0x80>
 8005348:	687b      	ldr	r3, [r7, #4]
 800534a:	681b      	ldr	r3, [r3, #0]
 800534c:	4a1f      	ldr	r2, [pc, #124]	@ (80053cc <HAL_TIM_Base_Start_IT+0xdc>)
 800534e:	4293      	cmp	r3, r2
 8005350:	d00e      	beq.n	8005370 <HAL_TIM_Base_Start_IT+0x80>
 8005352:	687b      	ldr	r3, [r7, #4]
 8005354:	681b      	ldr	r3, [r3, #0]
 8005356:	4a1e      	ldr	r2, [pc, #120]	@ (80053d0 <HAL_TIM_Base_Start_IT+0xe0>)
 8005358:	4293      	cmp	r3, r2
 800535a:	d009      	beq.n	8005370 <HAL_TIM_Base_Start_IT+0x80>
 800535c:	687b      	ldr	r3, [r7, #4]
 800535e:	681b      	ldr	r3, [r3, #0]
 8005360:	4a1c      	ldr	r2, [pc, #112]	@ (80053d4 <HAL_TIM_Base_Start_IT+0xe4>)
 8005362:	4293      	cmp	r3, r2
 8005364:	d004      	beq.n	8005370 <HAL_TIM_Base_Start_IT+0x80>
 8005366:	687b      	ldr	r3, [r7, #4]
 8005368:	681b      	ldr	r3, [r3, #0]
 800536a:	4a1b      	ldr	r2, [pc, #108]	@ (80053d8 <HAL_TIM_Base_Start_IT+0xe8>)
 800536c:	4293      	cmp	r3, r2
 800536e:	d115      	bne.n	800539c <HAL_TIM_Base_Start_IT+0xac>
 8005370:	687b      	ldr	r3, [r7, #4]
 8005372:	681b      	ldr	r3, [r3, #0]
 8005374:	689a      	ldr	r2, [r3, #8]
 8005376:	4b19      	ldr	r3, [pc, #100]	@ (80053dc <HAL_TIM_Base_Start_IT+0xec>)
 8005378:	4013      	ands	r3, r2
 800537a:	60fb      	str	r3, [r7, #12]
 800537c:	68fb      	ldr	r3, [r7, #12]
 800537e:	2b06      	cmp	r3, #6
 8005380:	d015      	beq.n	80053ae <HAL_TIM_Base_Start_IT+0xbe>
 8005382:	68fb      	ldr	r3, [r7, #12]
 8005384:	f5b3 3f80 	cmp.w	r3, #65536	@ 0x10000
 8005388:	d011      	beq.n	80053ae <HAL_TIM_Base_Start_IT+0xbe>
 800538a:	687b      	ldr	r3, [r7, #4]
 800538c:	681b      	ldr	r3, [r3, #0]
 800538e:	681a      	ldr	r2, [r3, #0]
 8005390:	687b      	ldr	r3, [r7, #4]
 8005392:	681b      	ldr	r3, [r3, #0]
 8005394:	f042 0201 	orr.w	r2, r2, #1
 8005398:	601a      	str	r2, [r3, #0]
 800539a:	e008      	b.n	80053ae <HAL_TIM_Base_Start_IT+0xbe>
 800539c:	687b      	ldr	r3, [r7, #4]
 800539e:	681b      	ldr	r3, [r3, #0]
 80053a0:	681a      	ldr	r2, [r3, #0]
 80053a2:	687b      	ldr	r3, [r7, #4]
 80053a4:	681b      	ldr	r3, [r3, #0]
 80053a6:	f042 0201 	orr.w	r2, r2, #1
 80053aa:	601a      	str	r2, [r3, #0]
 80053ac:	e000      	b.n	80053b0 <HAL_TIM_Base_Start_IT+0xc0>
 80053ae:	bf00      	nop
 80053b0:	2300      	movs	r3, #0
 80053b2:	4618      	mov	r0, r3
 80053b4:	3714      	adds	r7, #20
 80053b6:	46bd      	mov	sp, r7
 80053b8:	f85d 7b04 	ldr.w	r7, [sp], #4
 80053bc:	4770      	bx	lr
 80053be:	bf00      	nop
 80053c0:	40012c00 	.word	0x40012c00
 80053c4:	40000400 	.word	0x40000400
 80053c8:	40000800 	.word	0x40000800
 80053cc:	40000c00 	.word	0x40000c00
 80053d0:	40013400 	.word	0x40013400
 80053d4:	40014000 	.word	0x40014000
 80053d8:	40015000 	.word	0x40015000
 80053dc:	00010007 	.word	0x00010007

080053e0 <HAL_TIM_OC_Init>:
 80053e0:	b580      	push	{r7, lr}
 80053e2:	b082      	sub	sp, #8
 80053e4:	af00      	add	r7, sp, #0
 80053e6:	6078      	str	r0, [r7, #4]
 80053e8:	687b      	ldr	r3, [r7, #4]
 80053ea:	2b00      	cmp	r3, #0
 80053ec:	d101      	bne.n	80053f2 <HAL_TIM_OC_Init+0x12>
 80053ee:	2301      	movs	r3, #1
 80053f0:	e054      	b.n	800549c <HAL_TIM_OC_Init+0xbc>
 80053f2:	687b      	ldr	r3, [r7, #4]
 80053f4:	f893 303d 	ldrb.w	r3, [r3, #61]	@ 0x3d
 80053f8:	b2db      	uxtb	r3, r3
 80053fa:	2b00      	cmp	r3, #0
 80053fc:	d111      	bne.n	8005422 <HAL_TIM_OC_Init+0x42>
 80053fe:	687b      	ldr	r3, [r7, #4]
 8005400:	2200      	movs	r2, #0
 8005402:	f883 203c 	strb.w	r2, [r3, #60]	@ 0x3c
 8005406:	6878      	ldr	r0, [r7, #4]
 8005408:	f001 fd80 	bl	8006f0c <TIM_ResetCallback>
 800540c:	687b      	ldr	r3, [r7, #4]
 800540e:	6ddb      	ldr	r3, [r3, #92]	@ 0x5c
 8005410:	2b00      	cmp	r3, #0
 8005412:	d102      	bne.n	800541a <HAL_TIM_OC_Init+0x3a>
 8005414:	687b      	ldr	r3, [r7, #4]
 8005416:	4a23      	ldr	r2, [pc, #140]	@ (80054a4 <HAL_TIM_OC_Init+0xc4>)
 8005418:	65da      	str	r2, [r3, #92]	@ 0x5c
 800541a:	687b      	ldr	r3, [r7, #4]
 800541c:	6ddb      	ldr	r3, [r3, #92]	@ 0x5c
 800541e:	6878      	ldr	r0, [r7, #4]
 8005420:	4798      	blx	r3
 8005422:	687b      	ldr	r3, [r7, #4]
 8005424:	2202      	movs	r2, #2
 8005426:	f883 203d 	strb.w	r2, [r3, #61]	@ 0x3d
 800542a:	687b      	ldr	r3, [r7, #4]
 800542c:	681a      	ldr	r2, [r3, #0]
 800542e:	687b      	ldr	r3, [r7, #4]
 8005430:	3304      	adds	r3, #4
 8005432:	4619      	mov	r1, r3
 8005434:	4610      	mov	r0, r2
 8005436:	f001 f8c9 	bl	80065cc <TIM_Base_SetConfig>
 800543a:	687b      	ldr	r3, [r7, #4]
 800543c:	2201      	movs	r2, #1
 800543e:	f883 2048 	strb.w	r2, [r3, #72]	@ 0x48
 8005442:	687b      	ldr	r3, [r7, #4]
 8005444:	2201      	movs	r2, #1
 8005446:	f883 203e 	strb.w	r2, [r3, #62]	@ 0x3e
 800544a:	687b      	ldr	r3, [r7, #4]
 800544c:	2201      	movs	r2, #1
 800544e:	f883 203f 	strb.w	r2, [r3, #63]	@ 0x3f
 8005452:	687b      	ldr	r3, [r7, #4]
 8005454:	2201      	movs	r2, #1
 8005456:	f883 2040 	strb.w	r2, [r3, #64]	@ 0x40
 800545a:	687b      	ldr	r3, [r7, #4]
 800545c:	2201      	movs	r2, #1
 800545e:	f883 2041 	strb.w	r2, [r3, #65]	@ 0x41
 8005462:	687b      	ldr	r3, [r7, #4]
 8005464:	2201      	movs	r2, #1
 8005466:	f883 2042 	strb.w	r2, [r3, #66]	@ 0x42
 800546a:	687b      	ldr	r3, [r7, #4]
 800546c:	2201      	movs	r2, #1
 800546e:	f883 2043 	strb.w	r2, [r3, #67]	@ 0x43
 8005472:	687b      	ldr	r3, [r7, #4]
 8005474:	2201      	movs	r2, #1
 8005476:	f883 2044 	strb.w	r2, [r3, #68]	@ 0x44
 800547a:	687b      	ldr	r3, [r7, #4]
 800547c:	2201      	movs	r2, #1
 800547e:	f883 2045 	strb.w	r2, [r3, #69]	@ 0x45
 8005482:	687b      	ldr	r3, [r7, #4]
 8005484:	2201      	movs	r2, #1
 8005486:	f883 2046 	strb.w	r2, [r3, #70]	@ 0x46
 800548a:	687b      	ldr	r3, [r7, #4]
 800548c:	2201      	movs	r2, #1
 800548e:	f883 2047 	strb.w	r2, [r3, #71]	@ 0x47
 8005492:	687b      	ldr	r3, [r7, #4]
 8005494:	2201      	movs	r2, #1
 8005496:	f883 203d 	strb.w	r2, [r3, #61]	@ 0x3d
 800549a:	2300      	movs	r3, #0
 800549c:	4618      	mov	r0, r3
 800549e:	3708      	adds	r7, #8
 80054a0:	46bd      	mov	sp, r7
 80054a2:	bd80      	pop	{r7, pc}
 80054a4:	080054a9 	.word	0x080054a9

080054a8 <HAL_TIM_OC_MspInit>:
 80054a8:	b480      	push	{r7}
 80054aa:	b083      	sub	sp, #12
 80054ac:	af00      	add	r7, sp, #0
 80054ae:	6078      	str	r0, [r7, #4]
 80054b0:	bf00      	nop
 80054b2:	370c      	adds	r7, #12
 80054b4:	46bd      	mov	sp, r7
 80054b6:	f85d 7b04 	ldr.w	r7, [sp], #4
 80054ba:	4770      	bx	lr

080054bc <HAL_TIM_PWM_Init>:
 80054bc:	b580      	push	{r7, lr}
 80054be:	b082      	sub	sp, #8
 80054c0:	af00      	add	r7, sp, #0
 80054c2:	6078      	str	r0, [r7, #4]
 80054c4:	687b      	ldr	r3, [r7, #4]
 80054c6:	2b00      	cmp	r3, #0
 80054c8:	d101      	bne.n	80054ce <HAL_TIM_PWM_Init+0x12>
 80054ca:	2301      	movs	r3, #1
 80054cc:	e054      	b.n	8005578 <HAL_TIM_PWM_Init+0xbc>
 80054ce:	687b      	ldr	r3, [r7, #4]
 80054d0:	f893 303d 	ldrb.w	r3, [r3, #61]	@ 0x3d
 80054d4:	b2db      	uxtb	r3, r3
 80054d6:	2b00      	cmp	r3, #0
 80054d8:	d111      	bne.n	80054fe <HAL_TIM_PWM_Init+0x42>
 80054da:	687b      	ldr	r3, [r7, #4]
 80054dc:	2200      	movs	r2, #0
 80054de:	f883 203c 	strb.w	r2, [r3, #60]	@ 0x3c
 80054e2:	6878      	ldr	r0, [r7, #4]
 80054e4:	f001 fd12 	bl	8006f0c <TIM_ResetCallback>
 80054e8:	687b      	ldr	r3, [r7, #4]
 80054ea:	6e5b      	ldr	r3, [r3, #100]	@ 0x64
 80054ec:	2b00      	cmp	r3, #0
 80054ee:	d102      	bne.n	80054f6 <HAL_TIM_PWM_Init+0x3a>
 80054f0:	687b      	ldr	r3, [r7, #4]
 80054f2:	4a23      	ldr	r2, [pc, #140]	@ (8005580 <HAL_TIM_PWM_Init+0xc4>)
 80054f4:	665a      	str	r2, [r3, #100]	@ 0x64
 80054f6:	687b      	ldr	r3, [r7, #4]
 80054f8:	6e5b      	ldr	r3, [r3, #100]	@ 0x64
 80054fa:	6878      	ldr	r0, [r7, #4]
 80054fc:	4798      	blx	r3
 80054fe:	687b      	ldr	r3, [r7, #4]
 8005500:	2202      	movs	r2, #2
 8005502:	f883 203d 	strb.w	r2, [r3, #61]	@ 0x3d
 8005506:	687b      	ldr	r3, [r7, #4]
 8005508:	681a      	ldr	r2, [r3, #0]
 800550a:	687b      	ldr	r3, [r7, #4]
 800550c:	3304      	adds	r3, #4
 800550e:	4619      	mov	r1, r3
 8005510:	4610      	mov	r0, r2
 8005512:	f001 f85b 	bl	80065cc <TIM_Base_SetConfig>
 8005516:	687b      	ldr	r3, [r7, #4]
 8005518:	2201      	movs	r2, #1
 800551a:	f883 2048 	strb.w	r2, [r3, #72]	@ 0x48
 800551e:	687b      	ldr	r3, [r7, #4]
 8005520:	2201      	movs	r2, #1
 8005522:	f883 203e 	strb.w	r2, [r3, #62]	@ 0x3e
 8005526:	687b      	ldr	r3, [r7, #4]
 8005528:	2201      	movs	r2, #1
 800552a:	f883 203f 	strb.w	r2, [r3, #63]	@ 0x3f
 800552e:	687b      	ldr	r3, [r7, #4]
 8005530:	2201      	movs	r2, #1
 8005532:	f883 2040 	strb.w	r2, [r3, #64]	@ 0x40
 8005536:	687b      	ldr	r3, [r7, #4]
 8005538:	2201      	movs	r2, #1
 800553a:	f883 2041 	strb.w	r2, [r3, #65]	@ 0x41
 800553e:	687b      	ldr	r3, [r7, #4]
 8005540:	2201      	movs	r2, #1
 8005542:	f883 2042 	strb.w	r2, [r3, #66]	@ 0x42
 8005546:	687b      	ldr	r3, [r7, #4]
 8005548:	2201      	movs	r2, #1
 800554a:	f883 2043 	strb.w	r2, [r3, #67]	@ 0x43
 800554e:	687b      	ldr	r3, [r7, #4]
 8005550:	2201      	movs	r2, #1
 8005552:	f883 2044 	strb.w	r2, [r3, #68]	@ 0x44
 8005556:	687b      	ldr	r3, [r7, #4]
 8005558:	2201      	movs	r2, #1
 800555a:	f883 2045 	strb.w	r2, [r3, #69]	@ 0x45
 800555e:	687b      	ldr	r3, [r7, #4]
 8005560:	2201      	movs	r2, #1
 8005562:	f883 2046 	strb.w	r2, [r3, #70]	@ 0x46
 8005566:	687b      	ldr	r3, [r7, #4]
 8005568:	2201      	movs	r2, #1
 800556a:	f883 2047 	strb.w	r2, [r3, #71]	@ 0x47
 800556e:	687b      	ldr	r3, [r7, #4]
 8005570:	2201      	movs	r2, #1
 8005572:	f883 203d 	strb.w	r2, [r3, #61]	@ 0x3d
 8005576:	2300      	movs	r3, #0
 8005578:	4618      	mov	r0, r3
 800557a:	3708      	adds	r7, #8
 800557c:	46bd      	mov	sp, r7
 800557e:	bd80      	pop	{r7, pc}
 8005580:	08005585 	.word	0x08005585

08005584 <HAL_TIM_PWM_MspInit>:
 8005584:	b480      	push	{r7}
 8005586:	b083      	sub	sp, #12
 8005588:	af00      	add	r7, sp, #0
 800558a:	6078      	str	r0, [r7, #4]
 800558c:	bf00      	nop
 800558e:	370c      	adds	r7, #12
 8005590:	46bd      	mov	sp, r7
 8005592:	f85d 7b04 	ldr.w	r7, [sp], #4
 8005596:	4770      	bx	lr

08005598 <HAL_TIM_OnePulse_Init>:
 8005598:	b580      	push	{r7, lr}
 800559a:	b082      	sub	sp, #8
 800559c:	af00      	add	r7, sp, #0
 800559e:	6078      	str	r0, [r7, #4]
 80055a0:	6039      	str	r1, [r7, #0]
 80055a2:	687b      	ldr	r3, [r7, #4]
 80055a4:	2b00      	cmp	r3, #0
 80055a6:	d101      	bne.n	80055ac <HAL_TIM_OnePulse_Init+0x14>
 80055a8:	2301      	movs	r3, #1
 80055aa:	e04c      	b.n	8005646 <HAL_TIM_OnePulse_Init+0xae>
 80055ac:	687b      	ldr	r3, [r7, #4]
 80055ae:	f893 303d 	ldrb.w	r3, [r3, #61]	@ 0x3d
 80055b2:	b2db      	uxtb	r3, r3
 80055b4:	2b00      	cmp	r3, #0
 80055b6:	d111      	bne.n	80055dc <HAL_TIM_OnePulse_Init+0x44>
 80055b8:	687b      	ldr	r3, [r7, #4]
 80055ba:	2200      	movs	r2, #0
 80055bc:	f883 203c 	strb.w	r2, [r3, #60]	@ 0x3c
 80055c0:	6878      	ldr	r0, [r7, #4]
 80055c2:	f001 fca3 	bl	8006f0c <TIM_ResetCallback>
 80055c6:	687b      	ldr	r3, [r7, #4]
 80055c8:	6edb      	ldr	r3, [r3, #108]	@ 0x6c
 80055ca:	2b00      	cmp	r3, #0
 80055cc:	d102      	bne.n	80055d4 <HAL_TIM_OnePulse_Init+0x3c>
 80055ce:	687b      	ldr	r3, [r7, #4]
 80055d0:	4a1f      	ldr	r2, [pc, #124]	@ (8005650 <HAL_TIM_OnePulse_Init+0xb8>)
 80055d2:	66da      	str	r2, [r3, #108]	@ 0x6c
 80055d4:	687b      	ldr	r3, [r7, #4]
 80055d6:	6edb      	ldr	r3, [r3, #108]	@ 0x6c
 80055d8:	6878      	ldr	r0, [r7, #4]
 80055da:	4798      	blx	r3
 80055dc:	687b      	ldr	r3, [r7, #4]
 80055de:	2202      	movs	r2, #2
 80055e0:	f883 203d 	strb.w	r2, [r3, #61]	@ 0x3d
 80055e4:	687b      	ldr	r3, [r7, #4]
 80055e6:	681a      	ldr	r2, [r3, #0]
 80055e8:	687b      	ldr	r3, [r7, #4]
 80055ea:	3304      	adds	r3, #4
 80055ec:	4619      	mov	r1, r3
 80055ee:	4610      	mov	r0, r2
 80055f0:	f000 ffec 	bl	80065cc <TIM_Base_SetConfig>
 80055f4:	687b      	ldr	r3, [r7, #4]
 80055f6:	681b      	ldr	r3, [r3, #0]
 80055f8:	681a      	ldr	r2, [r3, #0]
 80055fa:	687b      	ldr	r3, [r7, #4]
 80055fc:	681b      	ldr	r3, [r3, #0]
 80055fe:	f022 0208 	bic.w	r2, r2, #8
 8005602:	601a      	str	r2, [r3, #0]
 8005604:	687b      	ldr	r3, [r7, #4]
 8005606:	681b      	ldr	r3, [r3, #0]
 8005608:	6819      	ldr	r1, [r3, #0]
 800560a:	687b      	ldr	r3, [r7, #4]
 800560c:	681b      	ldr	r3, [r3, #0]
 800560e:	683a      	ldr	r2, [r7, #0]
 8005610:	430a      	orrs	r2, r1
 8005612:	601a      	str	r2, [r3, #0]
 8005614:	687b      	ldr	r3, [r7, #4]
 8005616:	2201      	movs	r2, #1
 8005618:	f883 2048 	strb.w	r2, [r3, #72]	@ 0x48
 800561c:	687b      	ldr	r3, [r7, #4]
 800561e:	2201      	movs	r2, #1
 8005620:	f883 203e 	strb.w	r2, [r3, #62]	@ 0x3e
 8005624:	687b      	ldr	r3, [r7, #4]
 8005626:	2201      	movs	r2, #1
 8005628:	f883 203f 	strb.w	r2, [r3, #63]	@ 0x3f
 800562c:	687b      	ldr	r3, [r7, #4]
 800562e:	2201      	movs	r2, #1
 8005630:	f883 2044 	strb.w	r2, [r3, #68]	@ 0x44
 8005634:	687b      	ldr	r3, [r7, #4]
 8005636:	2201      	movs	r2, #1
 8005638:	f883 2045 	strb.w	r2, [r3, #69]	@ 0x45
 800563c:	687b      	ldr	r3, [r7, #4]
 800563e:	2201      	movs	r2, #1
 8005640:	f883 203d 	strb.w	r2, [r3, #61]	@ 0x3d
 8005644:	2300      	movs	r3, #0
 8005646:	4618      	mov	r0, r3
 8005648:	3708      	adds	r7, #8
 800564a:	46bd      	mov	sp, r7
 800564c:	bd80      	pop	{r7, pc}
 800564e:	bf00      	nop
 8005650:	08005655 	.word	0x08005655

08005654 <HAL_TIM_OnePulse_MspInit>:
 8005654:	b480      	push	{r7}
 8005656:	b083      	sub	sp, #12
 8005658:	af00      	add	r7, sp, #0
 800565a:	6078      	str	r0, [r7, #4]
 800565c:	bf00      	nop
 800565e:	370c      	adds	r7, #12
 8005660:	46bd      	mov	sp, r7
 8005662:	f85d 7b04 	ldr.w	r7, [sp], #4
 8005666:	4770      	bx	lr

08005668 <HAL_TIM_OnePulse_Start_IT>:
 8005668:	b580      	push	{r7, lr}
 800566a:	b084      	sub	sp, #16
 800566c:	af00      	add	r7, sp, #0
 800566e:	6078      	str	r0, [r7, #4]
 8005670:	6039      	str	r1, [r7, #0]
 8005672:	687b      	ldr	r3, [r7, #4]
 8005674:	f893 303e 	ldrb.w	r3, [r3, #62]	@ 0x3e
 8005678:	73fb      	strb	r3, [r7, #15]
 800567a:	687b      	ldr	r3, [r7, #4]
 800567c:	f893 303f 	ldrb.w	r3, [r3, #63]	@ 0x3f
 8005680:	73bb      	strb	r3, [r7, #14]
 8005682:	687b      	ldr	r3, [r7, #4]
 8005684:	f893 3044 	ldrb.w	r3, [r3, #68]	@ 0x44
 8005688:	737b      	strb	r3, [r7, #13]
 800568a:	687b      	ldr	r3, [r7, #4]
 800568c:	f893 3045 	ldrb.w	r3, [r3, #69]	@ 0x45
 8005690:	733b      	strb	r3, [r7, #12]
 8005692:	7bfb      	ldrb	r3, [r7, #15]
 8005694:	2b01      	cmp	r3, #1
 8005696:	d108      	bne.n	80056aa <HAL_TIM_OnePulse_Start_IT+0x42>
 8005698:	7bbb      	ldrb	r3, [r7, #14]
 800569a:	2b01      	cmp	r3, #1
 800569c:	d105      	bne.n	80056aa <HAL_TIM_OnePulse_Start_IT+0x42>
 800569e:	7b7b      	ldrb	r3, [r7, #13]
 80056a0:	2b01      	cmp	r3, #1
 80056a2:	d102      	bne.n	80056aa <HAL_TIM_OnePulse_Start_IT+0x42>
 80056a4:	7b3b      	ldrb	r3, [r7, #12]
 80056a6:	2b01      	cmp	r3, #1
 80056a8:	d001      	beq.n	80056ae <HAL_TIM_OnePulse_Start_IT+0x46>
 80056aa:	2301      	movs	r3, #1
 80056ac:	e059      	b.n	8005762 <HAL_TIM_OnePulse_Start_IT+0xfa>
 80056ae:	687b      	ldr	r3, [r7, #4]
 80056b0:	2202      	movs	r2, #2
 80056b2:	f883 203e 	strb.w	r2, [r3, #62]	@ 0x3e
 80056b6:	687b      	ldr	r3, [r7, #4]
 80056b8:	2202      	movs	r2, #2
 80056ba:	f883 203f 	strb.w	r2, [r3, #63]	@ 0x3f
 80056be:	687b      	ldr	r3, [r7, #4]
 80056c0:	2202      	movs	r2, #2
 80056c2:	f883 2044 	strb.w	r2, [r3, #68]	@ 0x44
 80056c6:	687b      	ldr	r3, [r7, #4]
 80056c8:	2202      	movs	r2, #2
 80056ca:	f883 2045 	strb.w	r2, [r3, #69]	@ 0x45
 80056ce:	687b      	ldr	r3, [r7, #4]
 80056d0:	681b      	ldr	r3, [r3, #0]
 80056d2:	68da      	ldr	r2, [r3, #12]
 80056d4:	687b      	ldr	r3, [r7, #4]
 80056d6:	681b      	ldr	r3, [r3, #0]
 80056d8:	f042 0202 	orr.w	r2, r2, #2
 80056dc:	60da      	str	r2, [r3, #12]
 80056de:	687b      	ldr	r3, [r7, #4]
 80056e0:	681b      	ldr	r3, [r3, #0]
 80056e2:	68da      	ldr	r2, [r3, #12]
 80056e4:	687b      	ldr	r3, [r7, #4]
 80056e6:	681b      	ldr	r3, [r3, #0]
 80056e8:	f042 0204 	orr.w	r2, r2, #4
 80056ec:	60da      	str	r2, [r3, #12]
 80056ee:	687b      	ldr	r3, [r7, #4]
 80056f0:	681b      	ldr	r3, [r3, #0]
 80056f2:	2201      	movs	r2, #1
 80056f4:	2100      	movs	r1, #0
 80056f6:	4618      	mov	r0, r3
 80056f8:	f001 fbe2 	bl	8006ec0 <TIM_CCxChannelCmd>
 80056fc:	687b      	ldr	r3, [r7, #4]
 80056fe:	681b      	ldr	r3, [r3, #0]
 8005700:	2201      	movs	r2, #1
 8005702:	2104      	movs	r1, #4
 8005704:	4618      	mov	r0, r3
 8005706:	f001 fbdb 	bl	8006ec0 <TIM_CCxChannelCmd>
 800570a:	687b      	ldr	r3, [r7, #4]
 800570c:	681b      	ldr	r3, [r3, #0]
 800570e:	4a17      	ldr	r2, [pc, #92]	@ (800576c <HAL_TIM_OnePulse_Start_IT+0x104>)
 8005710:	4293      	cmp	r3, r2
 8005712:	d018      	beq.n	8005746 <HAL_TIM_OnePulse_Start_IT+0xde>
 8005714:	687b      	ldr	r3, [r7, #4]
 8005716:	681b      	ldr	r3, [r3, #0]
 8005718:	4a15      	ldr	r2, [pc, #84]	@ (8005770 <HAL_TIM_OnePulse_Start_IT+0x108>)
 800571a:	4293      	cmp	r3, r2
 800571c:	d013      	beq.n	8005746 <HAL_TIM_OnePulse_Start_IT+0xde>
 800571e:	687b      	ldr	r3, [r7, #4]
 8005720:	681b      	ldr	r3, [r3, #0]
 8005722:	4a14      	ldr	r2, [pc, #80]	@ (8005774 <HAL_TIM_OnePulse_Start_IT+0x10c>)
 8005724:	4293      	cmp	r3, r2
 8005726:	d00e      	beq.n	8005746 <HAL_TIM_OnePulse_Start_IT+0xde>
 8005728:	687b      	ldr	r3, [r7, #4]
 800572a:	681b      	ldr	r3, [r3, #0]
 800572c:	4a12      	ldr	r2, [pc, #72]	@ (8005778 <HAL_TIM_OnePulse_Start_IT+0x110>)
 800572e:	4293      	cmp	r3, r2
 8005730:	d009      	beq.n	8005746 <HAL_TIM_OnePulse_Start_IT+0xde>
 8005732:	687b      	ldr	r3, [r7, #4]
 8005734:	681b      	ldr	r3, [r3, #0]
 8005736:	4a11      	ldr	r2, [pc, #68]	@ (800577c <HAL_TIM_OnePulse_Start_IT+0x114>)
 8005738:	4293      	cmp	r3, r2
 800573a:	d004      	beq.n	8005746 <HAL_TIM_OnePulse_Start_IT+0xde>
 800573c:	687b      	ldr	r3, [r7, #4]
 800573e:	681b      	ldr	r3, [r3, #0]
 8005740:	4a0f      	ldr	r2, [pc, #60]	@ (8005780 <HAL_TIM_OnePulse_Start_IT+0x118>)
 8005742:	4293      	cmp	r3, r2
 8005744:	d101      	bne.n	800574a <HAL_TIM_OnePulse_Start_IT+0xe2>
 8005746:	2301      	movs	r3, #1
 8005748:	e000      	b.n	800574c <HAL_TIM_OnePulse_Start_IT+0xe4>
 800574a:	2300      	movs	r3, #0
 800574c:	2b00      	cmp	r3, #0
 800574e:	d007      	beq.n	8005760 <HAL_TIM_OnePulse_Start_IT+0xf8>
 8005750:	687b      	ldr	r3, [r7, #4]
 8005752:	681b      	ldr	r3, [r3, #0]
 8005754:	6c5a      	ldr	r2, [r3, #68]	@ 0x44
 8005756:	687b      	ldr	r3, [r7, #4]
 8005758:	681b      	ldr	r3, [r3, #0]
 800575a:	f442 4200 	orr.w	r2, r2, #32768	@ 0x8000
 800575e:	645a      	str	r2, [r3, #68]	@ 0x44
 8005760:	2300      	movs	r3, #0
 8005762:	4618      	mov	r0, r3
 8005764:	3710      	adds	r7, #16
 8005766:	46bd      	mov	sp, r7
 8005768:	bd80      	pop	{r7, pc}
 800576a:	bf00      	nop
 800576c:	40012c00 	.word	0x40012c00
 8005770:	40013400 	.word	0x40013400
 8005774:	40014000 	.word	0x40014000
 8005778:	40014400 	.word	0x40014400
 800577c:	40014800 	.word	0x40014800
 8005780:	40015000 	.word	0x40015000

08005784 <HAL_TIM_Encoder_Init>:
 8005784:	b580      	push	{r7, lr}
 8005786:	b086      	sub	sp, #24
 8005788:	af00      	add	r7, sp, #0
 800578a:	6078      	str	r0, [r7, #4]
 800578c:	6039      	str	r1, [r7, #0]
 800578e:	687b      	ldr	r3, [r7, #4]
 8005790:	2b00      	cmp	r3, #0
 8005792:	d101      	bne.n	8005798 <HAL_TIM_Encoder_Init+0x14>
 8005794:	2301      	movs	r3, #1
 8005796:	e0a2      	b.n	80058de <HAL_TIM_Encoder_Init+0x15a>
 8005798:	687b      	ldr	r3, [r7, #4]
 800579a:	f893 303d 	ldrb.w	r3, [r3, #61]	@ 0x3d
 800579e:	b2db      	uxtb	r3, r3
 80057a0:	2b00      	cmp	r3, #0
 80057a2:	d111      	bne.n	80057c8 <HAL_TIM_Encoder_Init+0x44>
 80057a4:	687b      	ldr	r3, [r7, #4]
 80057a6:	2200      	movs	r2, #0
 80057a8:	f883 203c 	strb.w	r2, [r3, #60]	@ 0x3c
 80057ac:	6878      	ldr	r0, [r7, #4]
 80057ae:	f001 fbad 	bl	8006f0c <TIM_ResetCallback>
 80057b2:	687b      	ldr	r3, [r7, #4]
 80057b4:	6f5b      	ldr	r3, [r3, #116]	@ 0x74
 80057b6:	2b00      	cmp	r3, #0
 80057b8:	d102      	bne.n	80057c0 <HAL_TIM_Encoder_Init+0x3c>
 80057ba:	687b      	ldr	r3, [r7, #4]
 80057bc:	4a4a      	ldr	r2, [pc, #296]	@ (80058e8 <HAL_TIM_Encoder_Init+0x164>)
 80057be:	675a      	str	r2, [r3, #116]	@ 0x74
 80057c0:	687b      	ldr	r3, [r7, #4]
 80057c2:	6f5b      	ldr	r3, [r3, #116]	@ 0x74
 80057c4:	6878      	ldr	r0, [r7, #4]
 80057c6:	4798      	blx	r3
 80057c8:	687b      	ldr	r3, [r7, #4]
 80057ca:	2202      	movs	r2, #2
 80057cc:	f883 203d 	strb.w	r2, [r3, #61]	@ 0x3d
 80057d0:	687b      	ldr	r3, [r7, #4]
 80057d2:	681b      	ldr	r3, [r3, #0]
 80057d4:	689b      	ldr	r3, [r3, #8]
 80057d6:	687a      	ldr	r2, [r7, #4]
 80057d8:	6812      	ldr	r2, [r2, #0]
 80057da:	f423 33a0 	bic.w	r3, r3, #81920	@ 0x14000
 80057de:	f023 0307 	bic.w	r3, r3, #7
 80057e2:	6093      	str	r3, [r2, #8]
 80057e4:	687b      	ldr	r3, [r7, #4]
 80057e6:	681a      	ldr	r2, [r3, #0]
 80057e8:	687b      	ldr	r3, [r7, #4]
 80057ea:	3304      	adds	r3, #4
 80057ec:	4619      	mov	r1, r3
 80057ee:	4610      	mov	r0, r2
 80057f0:	f000 feec 	bl	80065cc <TIM_Base_SetConfig>
 80057f4:	687b      	ldr	r3, [r7, #4]
 80057f6:	681b      	ldr	r3, [r3, #0]
 80057f8:	689b      	ldr	r3, [r3, #8]
 80057fa:	617b      	str	r3, [r7, #20]
 80057fc:	687b      	ldr	r3, [r7, #4]
 80057fe:	681b      	ldr	r3, [r3, #0]
 8005800:	699b      	ldr	r3, [r3, #24]
 8005802:	613b      	str	r3, [r7, #16]
 8005804:	687b      	ldr	r3, [r7, #4]
 8005806:	681b      	ldr	r3, [r3, #0]
 8005808:	6a1b      	ldr	r3, [r3, #32]
 800580a:	60fb      	str	r3, [r7, #12]
 800580c:	683b      	ldr	r3, [r7, #0]
 800580e:	681b      	ldr	r3, [r3, #0]
 8005810:	697a      	ldr	r2, [r7, #20]
 8005812:	4313      	orrs	r3, r2
 8005814:	617b      	str	r3, [r7, #20]
 8005816:	693b      	ldr	r3, [r7, #16]
 8005818:	f423 7340 	bic.w	r3, r3, #768	@ 0x300
 800581c:	f023 0303 	bic.w	r3, r3, #3
 8005820:	613b      	str	r3, [r7, #16]
 8005822:	683b      	ldr	r3, [r7, #0]
 8005824:	689a      	ldr	r2, [r3, #8]
 8005826:	683b      	ldr	r3, [r7, #0]
 8005828:	699b      	ldr	r3, [r3, #24]
 800582a:	021b      	lsls	r3, r3, #8
 800582c:	4313      	orrs	r3, r2
 800582e:	693a      	ldr	r2, [r7, #16]
 8005830:	4313      	orrs	r3, r2
 8005832:	613b      	str	r3, [r7, #16]
 8005834:	693b      	ldr	r3, [r7, #16]
 8005836:	f423 6340 	bic.w	r3, r3, #3072	@ 0xc00
 800583a:	f023 030c 	bic.w	r3, r3, #12
 800583e:	613b      	str	r3, [r7, #16]
 8005840:	693b      	ldr	r3, [r7, #16]
 8005842:	f423 4370 	bic.w	r3, r3, #61440	@ 0xf000
 8005846:	f023 03f0 	bic.w	r3, r3, #240	@ 0xf0
 800584a:	613b      	str	r3, [r7, #16]
 800584c:	683b      	ldr	r3, [r7, #0]
 800584e:	68da      	ldr	r2, [r3, #12]
 8005850:	683b      	ldr	r3, [r7, #0]
 8005852:	69db      	ldr	r3, [r3, #28]
 8005854:	021b      	lsls	r3, r3, #8
 8005856:	4313      	orrs	r3, r2
 8005858:	693a      	ldr	r2, [r7, #16]
 800585a:	4313      	orrs	r3, r2
 800585c:	613b      	str	r3, [r7, #16]
 800585e:	683b      	ldr	r3, [r7, #0]
 8005860:	691b      	ldr	r3, [r3, #16]
 8005862:	011a      	lsls	r2, r3, #4
 8005864:	683b      	ldr	r3, [r7, #0]
 8005866:	6a1b      	ldr	r3, [r3, #32]
 8005868:	031b      	lsls	r3, r3, #12
 800586a:	4313      	orrs	r3, r2
 800586c:	693a      	ldr	r2, [r7, #16]
 800586e:	4313      	orrs	r3, r2
 8005870:	613b      	str	r3, [r7, #16]
 8005872:	68fb      	ldr	r3, [r7, #12]
 8005874:	f023 0322 	bic.w	r3, r3, #34	@ 0x22
 8005878:	60fb      	str	r3, [r7, #12]
 800587a:	68fb      	ldr	r3, [r7, #12]
 800587c:	f023 0388 	bic.w	r3, r3, #136	@ 0x88
 8005880:	60fb      	str	r3, [r7, #12]
 8005882:	683b      	ldr	r3, [r7, #0]
 8005884:	685a      	ldr	r2, [r3, #4]
 8005886:	683b      	ldr	r3, [r7, #0]
 8005888:	695b      	ldr	r3, [r3, #20]
 800588a:	011b      	lsls	r3, r3, #4
 800588c:	4313      	orrs	r3, r2
 800588e:	68fa      	ldr	r2, [r7, #12]
 8005890:	4313      	orrs	r3, r2
 8005892:	60fb      	str	r3, [r7, #12]
 8005894:	687b      	ldr	r3, [r7, #4]
 8005896:	681b      	ldr	r3, [r3, #0]
 8005898:	697a      	ldr	r2, [r7, #20]
 800589a:	609a      	str	r2, [r3, #8]
 800589c:	687b      	ldr	r3, [r7, #4]
 800589e:	681b      	ldr	r3, [r3, #0]
 80058a0:	693a      	ldr	r2, [r7, #16]
 80058a2:	619a      	str	r2, [r3, #24]
 80058a4:	687b      	ldr	r3, [r7, #4]
 80058a6:	681b      	ldr	r3, [r3, #0]
 80058a8:	68fa      	ldr	r2, [r7, #12]
 80058aa:	621a      	str	r2, [r3, #32]
 80058ac:	687b      	ldr	r3, [r7, #4]
 80058ae:	2201      	movs	r2, #1
 80058b0:	f883 2048 	strb.w	r2, [r3, #72]	@ 0x48
 80058b4:	687b      	ldr	r3, [r7, #4]
 80058b6:	2201      	movs	r2, #1
 80058b8:	f883 203e 	strb.w	r2, [r3, #62]	@ 0x3e
 80058bc:	687b      	ldr	r3, [r7, #4]
 80058be:	2201      	movs	r2, #1
 80058c0:	f883 203f 	strb.w	r2, [r3, #63]	@ 0x3f
 80058c4:	687b      	ldr	r3, [r7, #4]
 80058c6:	2201      	movs	r2, #1
 80058c8:	f883 2044 	strb.w	r2, [r3, #68]	@ 0x44
 80058cc:	687b      	ldr	r3, [r7, #4]
 80058ce:	2201      	movs	r2, #1
 80058d0:	f883 2045 	strb.w	r2, [r3, #69]	@ 0x45
 80058d4:	687b      	ldr	r3, [r7, #4]
 80058d6:	2201      	movs	r2, #1
 80058d8:	f883 203d 	strb.w	r2, [r3, #61]	@ 0x3d
 80058dc:	2300      	movs	r3, #0
 80058de:	4618      	mov	r0, r3
 80058e0:	3718      	adds	r7, #24
 80058e2:	46bd      	mov	sp, r7
 80058e4:	bd80      	pop	{r7, pc}
 80058e6:	bf00      	nop
 80058e8:	08001e01 	.word	0x08001e01

080058ec <HAL_TIM_Encoder_Start>:
 80058ec:	b580      	push	{r7, lr}
 80058ee:	b084      	sub	sp, #16
 80058f0:	af00      	add	r7, sp, #0
 80058f2:	6078      	str	r0, [r7, #4]
 80058f4:	6039      	str	r1, [r7, #0]
 80058f6:	687b      	ldr	r3, [r7, #4]
 80058f8:	f893 303e 	ldrb.w	r3, [r3, #62]	@ 0x3e
 80058fc:	73fb      	strb	r3, [r7, #15]
 80058fe:	687b      	ldr	r3, [r7, #4]
 8005900:	f893 303f 	ldrb.w	r3, [r3, #63]	@ 0x3f
 8005904:	73bb      	strb	r3, [r7, #14]
 8005906:	687b      	ldr	r3, [r7, #4]
 8005908:	f893 3044 	ldrb.w	r3, [r3, #68]	@ 0x44
 800590c:	737b      	strb	r3, [r7, #13]
 800590e:	687b      	ldr	r3, [r7, #4]
 8005910:	f893 3045 	ldrb.w	r3, [r3, #69]	@ 0x45
 8005914:	733b      	strb	r3, [r7, #12]
 8005916:	683b      	ldr	r3, [r7, #0]
 8005918:	2b00      	cmp	r3, #0
 800591a:	d110      	bne.n	800593e <HAL_TIM_Encoder_Start+0x52>
 800591c:	7bfb      	ldrb	r3, [r7, #15]
 800591e:	2b01      	cmp	r3, #1
 8005920:	d102      	bne.n	8005928 <HAL_TIM_Encoder_Start+0x3c>
 8005922:	7b7b      	ldrb	r3, [r7, #13]
 8005924:	2b01      	cmp	r3, #1
 8005926:	d001      	beq.n	800592c <HAL_TIM_Encoder_Start+0x40>
 8005928:	2301      	movs	r3, #1
 800592a:	e069      	b.n	8005a00 <HAL_TIM_Encoder_Start+0x114>
 800592c:	687b      	ldr	r3, [r7, #4]
 800592e:	2202      	movs	r2, #2
 8005930:	f883 203e 	strb.w	r2, [r3, #62]	@ 0x3e
 8005934:	687b      	ldr	r3, [r7, #4]
 8005936:	2202      	movs	r2, #2
 8005938:	f883 2044 	strb.w	r2, [r3, #68]	@ 0x44
 800593c:	e031      	b.n	80059a2 <HAL_TIM_Encoder_Start+0xb6>
 800593e:	683b      	ldr	r3, [r7, #0]
 8005940:	2b04      	cmp	r3, #4
 8005942:	d110      	bne.n	8005966 <HAL_TIM_Encoder_Start+0x7a>
 8005944:	7bbb      	ldrb	r3, [r7, #14]
 8005946:	2b01      	cmp	r3, #1
 8005948:	d102      	bne.n	8005950 <HAL_TIM_Encoder_Start+0x64>
 800594a:	7b3b      	ldrb	r3, [r7, #12]
 800594c:	2b01      	cmp	r3, #1
 800594e:	d001      	beq.n	8005954 <HAL_TIM_Encoder_Start+0x68>
 8005950:	2301      	movs	r3, #1
 8005952:	e055      	b.n	8005a00 <HAL_TIM_Encoder_Start+0x114>
 8005954:	687b      	ldr	r3, [r7, #4]
 8005956:	2202      	movs	r2, #2
 8005958:	f883 203f 	strb.w	r2, [r3, #63]	@ 0x3f
 800595c:	687b      	ldr	r3, [r7, #4]
 800595e:	2202      	movs	r2, #2
 8005960:	f883 2045 	strb.w	r2, [r3, #69]	@ 0x45
 8005964:	e01d      	b.n	80059a2 <HAL_TIM_Encoder_Start+0xb6>
 8005966:	7bfb      	ldrb	r3, [r7, #15]
 8005968:	2b01      	cmp	r3, #1
 800596a:	d108      	bne.n	800597e <HAL_TIM_Encoder_Start+0x92>
 800596c:	7bbb      	ldrb	r3, [r7, #14]
 800596e:	2b01      	cmp	r3, #1
 8005970:	d105      	bne.n	800597e <HAL_TIM_Encoder_Start+0x92>
 8005972:	7b7b      	ldrb	r3, [r7, #13]
 8005974:	2b01      	cmp	r3, #1
 8005976:	d102      	bne.n	800597e <HAL_TIM_Encoder_Start+0x92>
 8005978:	7b3b      	ldrb	r3, [r7, #12]
 800597a:	2b01      	cmp	r3, #1
 800597c:	d001      	beq.n	8005982 <HAL_TIM_Encoder_Start+0x96>
 800597e:	2301      	movs	r3, #1
 8005980:	e03e      	b.n	8005a00 <HAL_TIM_Encoder_Start+0x114>
 8005982:	687b      	ldr	r3, [r7, #4]
 8005984:	2202      	movs	r2, #2
 8005986:	f883 203e 	strb.w	r2, [r3, #62]	@ 0x3e
 800598a:	687b      	ldr	r3, [r7, #4]
 800598c:	2202      	movs	r2, #2
 800598e:	f883 203f 	strb.w	r2, [r3, #63]	@ 0x3f
 8005992:	687b      	ldr	r3, [r7, #4]
 8005994:	2202      	movs	r2, #2
 8005996:	f883 2044 	strb.w	r2, [r3, #68]	@ 0x44
 800599a:	687b      	ldr	r3, [r7, #4]
 800599c:	2202      	movs	r2, #2
 800599e:	f883 2045 	strb.w	r2, [r3, #69]	@ 0x45
 80059a2:	683b      	ldr	r3, [r7, #0]
 80059a4:	2b00      	cmp	r3, #0
 80059a6:	d003      	beq.n	80059b0 <HAL_TIM_Encoder_Start+0xc4>
 80059a8:	683b      	ldr	r3, [r7, #0]
 80059aa:	2b04      	cmp	r3, #4
 80059ac:	d008      	beq.n	80059c0 <HAL_TIM_Encoder_Start+0xd4>
 80059ae:	e00f      	b.n	80059d0 <HAL_TIM_Encoder_Start+0xe4>
 80059b0:	687b      	ldr	r3, [r7, #4]
 80059b2:	681b      	ldr	r3, [r3, #0]
 80059b4:	2201      	movs	r2, #1
 80059b6:	2100      	movs	r1, #0
 80059b8:	4618      	mov	r0, r3
 80059ba:	f001 fa81 	bl	8006ec0 <TIM_CCxChannelCmd>
 80059be:	e016      	b.n	80059ee <HAL_TIM_Encoder_Start+0x102>
 80059c0:	687b      	ldr	r3, [r7, #4]
 80059c2:	681b      	ldr	r3, [r3, #0]
 80059c4:	2201      	movs	r2, #1
 80059c6:	2104      	movs	r1, #4
 80059c8:	4618      	mov	r0, r3
 80059ca:	f001 fa79 	bl	8006ec0 <TIM_CCxChannelCmd>
 80059ce:	e00e      	b.n	80059ee <HAL_TIM_Encoder_Start+0x102>
 80059d0:	687b      	ldr	r3, [r7, #4]
 80059d2:	681b      	ldr	r3, [r3, #0]
 80059d4:	2201      	movs	r2, #1
 80059d6:	2100      	movs	r1, #0
 80059d8:	4618      	mov	r0, r3
 80059da:	f001 fa71 	bl	8006ec0 <TIM_CCxChannelCmd>
 80059de:	687b      	ldr	r3, [r7, #4]
 80059e0:	681b      	ldr	r3, [r3, #0]
 80059e2:	2201      	movs	r2, #1
 80059e4:	2104      	movs	r1, #4
 80059e6:	4618      	mov	r0, r3
 80059e8:	f001 fa6a 	bl	8006ec0 <TIM_CCxChannelCmd>
 80059ec:	bf00      	nop
 80059ee:	687b      	ldr	r3, [r7, #4]
 80059f0:	681b      	ldr	r3, [r3, #0]
 80059f2:	681a      	ldr	r2, [r3, #0]
 80059f4:	687b      	ldr	r3, [r7, #4]
 80059f6:	681b      	ldr	r3, [r3, #0]
 80059f8:	f042 0201 	orr.w	r2, r2, #1
 80059fc:	601a      	str	r2, [r3, #0]
 80059fe:	2300      	movs	r3, #0
 8005a00:	4618      	mov	r0, r3
 8005a02:	3710      	adds	r7, #16
 8005a04:	46bd      	mov	sp, r7
 8005a06:	bd80      	pop	{r7, pc}

08005a08 <HAL_TIM_IRQHandler>:
 8005a08:	b580      	push	{r7, lr}
 8005a0a:	b084      	sub	sp, #16
 8005a0c:	af00      	add	r7, sp, #0
 8005a0e:	6078      	str	r0, [r7, #4]
 8005a10:	687b      	ldr	r3, [r7, #4]
 8005a12:	681b      	ldr	r3, [r3, #0]
 8005a14:	68db      	ldr	r3, [r3, #12]
 8005a16:	60fb      	str	r3, [r7, #12]
 8005a18:	687b      	ldr	r3, [r7, #4]
 8005a1a:	681b      	ldr	r3, [r3, #0]
 8005a1c:	691b      	ldr	r3, [r3, #16]
 8005a1e:	60bb      	str	r3, [r7, #8]
 8005a20:	68bb      	ldr	r3, [r7, #8]
 8005a22:	f003 0302 	and.w	r3, r3, #2
 8005a26:	2b00      	cmp	r3, #0
 8005a28:	d026      	beq.n	8005a78 <HAL_TIM_IRQHandler+0x70>
 8005a2a:	68fb      	ldr	r3, [r7, #12]
 8005a2c:	f003 0302 	and.w	r3, r3, #2
 8005a30:	2b00      	cmp	r3, #0
 8005a32:	d021      	beq.n	8005a78 <HAL_TIM_IRQHandler+0x70>
 8005a34:	687b      	ldr	r3, [r7, #4]
 8005a36:	681b      	ldr	r3, [r3, #0]
 8005a38:	f06f 0202 	mvn.w	r2, #2
 8005a3c:	611a      	str	r2, [r3, #16]
 8005a3e:	687b      	ldr	r3, [r7, #4]
 8005a40:	2201      	movs	r2, #1
 8005a42:	771a      	strb	r2, [r3, #28]
 8005a44:	687b      	ldr	r3, [r7, #4]
 8005a46:	681b      	ldr	r3, [r3, #0]
 8005a48:	699b      	ldr	r3, [r3, #24]
 8005a4a:	f003 0303 	and.w	r3, r3, #3
 8005a4e:	2b00      	cmp	r3, #0
 8005a50:	d005      	beq.n	8005a5e <HAL_TIM_IRQHandler+0x56>
 8005a52:	687b      	ldr	r3, [r7, #4]
 8005a54:	f8d3 3094 	ldr.w	r3, [r3, #148]	@ 0x94
 8005a58:	6878      	ldr	r0, [r7, #4]
 8005a5a:	4798      	blx	r3
 8005a5c:	e009      	b.n	8005a72 <HAL_TIM_IRQHandler+0x6a>
 8005a5e:	687b      	ldr	r3, [r7, #4]
 8005a60:	f8d3 309c 	ldr.w	r3, [r3, #156]	@ 0x9c
 8005a64:	6878      	ldr	r0, [r7, #4]
 8005a66:	4798      	blx	r3
 8005a68:	687b      	ldr	r3, [r7, #4]
 8005a6a:	f8d3 30a0 	ldr.w	r3, [r3, #160]	@ 0xa0
 8005a6e:	6878      	ldr	r0, [r7, #4]
 8005a70:	4798      	blx	r3
 8005a72:	687b      	ldr	r3, [r7, #4]
 8005a74:	2200      	movs	r2, #0
 8005a76:	771a      	strb	r2, [r3, #28]
 8005a78:	68bb      	ldr	r3, [r7, #8]
 8005a7a:	f003 0304 	and.w	r3, r3, #4
 8005a7e:	2b00      	cmp	r3, #0
 8005a80:	d026      	beq.n	8005ad0 <HAL_TIM_IRQHandler+0xc8>
 8005a82:	68fb      	ldr	r3, [r7, #12]
 8005a84:	f003 0304 	and.w	r3, r3, #4
 8005a88:	2b00      	cmp	r3, #0
 8005a8a:	d021      	beq.n	8005ad0 <HAL_TIM_IRQHandler+0xc8>
 8005a8c:	687b      	ldr	r3, [r7, #4]
 8005a8e:	681b      	ldr	r3, [r3, #0]
 8005a90:	f06f 0204 	mvn.w	r2, #4
 8005a94:	611a      	str	r2, [r3, #16]
 8005a96:	687b      	ldr	r3, [r7, #4]
 8005a98:	2202      	movs	r2, #2
 8005a9a:	771a      	strb	r2, [r3, #28]
 8005a9c:	687b      	ldr	r3, [r7, #4]
 8005a9e:	681b      	ldr	r3, [r3, #0]
 8005aa0:	699b      	ldr	r3, [r3, #24]
 8005aa2:	f403 7340 	and.w	r3, r3, #768	@ 0x300
 8005aa6:	2b00      	cmp	r3, #0
 8005aa8:	d005      	beq.n	8005ab6 <HAL_TIM_IRQHandler+0xae>
 8005aaa:	687b      	ldr	r3, [r7, #4]
 8005aac:	f8d3 3094 	ldr.w	r3, [r3, #148]	@ 0x94
 8005ab0:	6878      	ldr	r0, [r7, #4]
 8005ab2:	4798      	blx	r3
 8005ab4:	e009      	b.n	8005aca <HAL_TIM_IRQHandler+0xc2>
 8005ab6:	687b      	ldr	r3, [r7, #4]
 8005ab8:	f8d3 309c 	ldr.w	r3, [r3, #156]	@ 0x9c
 8005abc:	6878      	ldr	r0, [r7, #4]
 8005abe:	4798      	blx	r3
 8005ac0:	687b      	ldr	r3, [r7, #4]
 8005ac2:	f8d3 30a0 	ldr.w	r3, [r3, #160]	@ 0xa0
 8005ac6:	6878      	ldr	r0, [r7, #4]
 8005ac8:	4798      	blx	r3
 8005aca:	687b      	ldr	r3, [r7, #4]
 8005acc:	2200      	movs	r2, #0
 8005ace:	771a      	strb	r2, [r3, #28]
 8005ad0:	68bb      	ldr	r3, [r7, #8]
 8005ad2:	f003 0308 	and.w	r3, r3, #8
 8005ad6:	2b00      	cmp	r3, #0
 8005ad8:	d026      	beq.n	8005b28 <HAL_TIM_IRQHandler+0x120>
 8005ada:	68fb      	ldr	r3, [r7, #12]
 8005adc:	f003 0308 	and.w	r3, r3, #8
 8005ae0:	2b00      	cmp	r3, #0
 8005ae2:	d021      	beq.n	8005b28 <HAL_TIM_IRQHandler+0x120>
 8005ae4:	687b      	ldr	r3, [r7, #4]
 8005ae6:	681b      	ldr	r3, [r3, #0]
 8005ae8:	f06f 0208 	mvn.w	r2, #8
 8005aec:	611a      	str	r2, [r3, #16]
 8005aee:	687b      	ldr	r3, [r7, #4]
 8005af0:	2204      	movs	r2, #4
 8005af2:	771a      	strb	r2, [r3, #28]
 8005af4:	687b      	ldr	r3, [r7, #4]
 8005af6:	681b      	ldr	r3, [r3, #0]
 8005af8:	69db      	ldr	r3, [r3, #28]
 8005afa:	f003 0303 	and.w	r3, r3, #3
 8005afe:	2b00      	cmp	r3, #0
 8005b00:	d005      	beq.n	8005b0e <HAL_TIM_IRQHandler+0x106>
 8005b02:	687b      	ldr	r3, [r7, #4]
 8005b04:	f8d3 3094 	ldr.w	r3, [r3, #148]	@ 0x94
 8005b08:	6878      	ldr	r0, [r7, #4]
 8005b0a:	4798      	blx	r3
 8005b0c:	e009      	b.n	8005b22 <HAL_TIM_IRQHandler+0x11a>
 8005b0e:	687b      	ldr	r3, [r7, #4]
 8005b10:	f8d3 309c 	ldr.w	r3, [r3, #156]	@ 0x9c
 8005b14:	6878      	ldr	r0, [r7, #4]
 8005b16:	4798      	blx	r3
 8005b18:	687b      	ldr	r3, [r7, #4]
 8005b1a:	f8d3 30a0 	ldr.w	r3, [r3, #160]	@ 0xa0
 8005b1e:	6878      	ldr	r0, [r7, #4]
 8005b20:	4798      	blx	r3
 8005b22:	687b      	ldr	r3, [r7, #4]
 8005b24:	2200      	movs	r2, #0
 8005b26:	771a      	strb	r2, [r3, #28]
 8005b28:	68bb      	ldr	r3, [r7, #8]
 8005b2a:	f003 0310 	and.w	r3, r3, #16
 8005b2e:	2b00      	cmp	r3, #0
 8005b30:	d026      	beq.n	8005b80 <HAL_TIM_IRQHandler+0x178>
 8005b32:	68fb      	ldr	r3, [r7, #12]
 8005b34:	f003 0310 	and.w	r3, r3, #16
 8005b38:	2b00      	cmp	r3, #0
 8005b3a:	d021      	beq.n	8005b80 <HAL_TIM_IRQHandler+0x178>
 8005b3c:	687b      	ldr	r3, [r7, #4]
 8005b3e:	681b      	ldr	r3, [r3, #0]
 8005b40:	f06f 0210 	mvn.w	r2, #16
 8005b44:	611a      	str	r2, [r3, #16]
 8005b46:	687b      	ldr	r3, [r7, #4]
 8005b48:	2208      	movs	r2, #8
 8005b4a:	771a      	strb	r2, [r3, #28]
 8005b4c:	687b      	ldr	r3, [r7, #4]
 8005b4e:	681b      	ldr	r3, [r3, #0]
 8005b50:	69db      	ldr	r3, [r3, #28]
 8005b52:	f403 7340 	and.w	r3, r3, #768	@ 0x300
 8005b56:	2b00      	cmp	r3, #0
 8005b58:	d005      	beq.n	8005b66 <HAL_TIM_IRQHandler+0x15e>
 8005b5a:	687b      	ldr	r3, [r7, #4]
 8005b5c:	f8d3 3094 	ldr.w	r3, [r3, #148]	@ 0x94
 8005b60:	6878      	ldr	r0, [r7, #4]
 8005b62:	4798      	blx	r3
 8005b64:	e009      	b.n	8005b7a <HAL_TIM_IRQHandler+0x172>
 8005b66:	687b      	ldr	r3, [r7, #4]
 8005b68:	f8d3 309c 	ldr.w	r3, [r3, #156]	@ 0x9c
 8005b6c:	6878      	ldr	r0, [r7, #4]
 8005b6e:	4798      	blx	r3
 8005b70:	687b      	ldr	r3, [r7, #4]
 8005b72:	f8d3 30a0 	ldr.w	r3, [r3, #160]	@ 0xa0
 8005b76:	6878      	ldr	r0, [r7, #4]
 8005b78:	4798      	blx	r3
 8005b7a:	687b      	ldr	r3, [r7, #4]
 8005b7c:	2200      	movs	r2, #0
 8005b7e:	771a      	strb	r2, [r3, #28]
 8005b80:	68bb      	ldr	r3, [r7, #8]
 8005b82:	f003 0301 	and.w	r3, r3, #1
 8005b86:	2b00      	cmp	r3, #0
 8005b88:	d00e      	beq.n	8005ba8 <HAL_TIM_IRQHandler+0x1a0>
 8005b8a:	68fb      	ldr	r3, [r7, #12]
 8005b8c:	f003 0301 	and.w	r3, r3, #1
 8005b90:	2b00      	cmp	r3, #0
 8005b92:	d009      	beq.n	8005ba8 <HAL_TIM_IRQHandler+0x1a0>
 8005b94:	687b      	ldr	r3, [r7, #4]
 8005b96:	681b      	ldr	r3, [r3, #0]
 8005b98:	f06f 0201 	mvn.w	r2, #1
 8005b9c:	611a      	str	r2, [r3, #16]
 8005b9e:	687b      	ldr	r3, [r7, #4]
 8005ba0:	f8d3 3084 	ldr.w	r3, [r3, #132]	@ 0x84
 8005ba4:	6878      	ldr	r0, [r7, #4]
 8005ba6:	4798      	blx	r3
 8005ba8:	68bb      	ldr	r3, [r7, #8]
 8005baa:	f003 0380 	and.w	r3, r3, #128	@ 0x80
 8005bae:	2b00      	cmp	r3, #0
 8005bb0:	d104      	bne.n	8005bbc <HAL_TIM_IRQHandler+0x1b4>
 8005bb2:	68bb      	ldr	r3, [r7, #8]
 8005bb4:	f403 5300 	and.w	r3, r3, #8192	@ 0x2000
 8005bb8:	2b00      	cmp	r3, #0
 8005bba:	d00e      	beq.n	8005bda <HAL_TIM_IRQHandler+0x1d2>
 8005bbc:	68fb      	ldr	r3, [r7, #12]
 8005bbe:	f003 0380 	and.w	r3, r3, #128	@ 0x80
 8005bc2:	2b00      	cmp	r3, #0
 8005bc4:	d009      	beq.n	8005bda <HAL_TIM_IRQHandler+0x1d2>
 8005bc6:	687b      	ldr	r3, [r7, #4]
 8005bc8:	681b      	ldr	r3, [r3, #0]
 8005bca:	f46f 5202 	mvn.w	r2, #8320	@ 0x2080
 8005bce:	611a      	str	r2, [r3, #16]
 8005bd0:	687b      	ldr	r3, [r7, #4]
 8005bd2:	f8d3 30b4 	ldr.w	r3, [r3, #180]	@ 0xb4
 8005bd6:	6878      	ldr	r0, [r7, #4]
 8005bd8:	4798      	blx	r3
 8005bda:	68bb      	ldr	r3, [r7, #8]
 8005bdc:	f403 7380 	and.w	r3, r3, #256	@ 0x100
 8005be0:	2b00      	cmp	r3, #0
 8005be2:	d00e      	beq.n	8005c02 <HAL_TIM_IRQHandler+0x1fa>
 8005be4:	68fb      	ldr	r3, [r7, #12]
 8005be6:	f003 0380 	and.w	r3, r3, #128	@ 0x80
 8005bea:	2b00      	cmp	r3, #0
 8005bec:	d009      	beq.n	8005c02 <HAL_TIM_IRQHandler+0x1fa>
 8005bee:	687b      	ldr	r3, [r7, #4]
 8005bf0:	681b      	ldr	r3, [r3, #0]
 8005bf2:	f46f 7280 	mvn.w	r2, #256	@ 0x100
 8005bf6:	611a      	str	r2, [r3, #16]
 8005bf8:	687b      	ldr	r3, [r7, #4]
 8005bfa:	f8d3 30b8 	ldr.w	r3, [r3, #184]	@ 0xb8
 8005bfe:	6878      	ldr	r0, [r7, #4]
 8005c00:	4798      	blx	r3
 8005c02:	68bb      	ldr	r3, [r7, #8]
 8005c04:	f003 0340 	and.w	r3, r3, #64	@ 0x40
 8005c08:	2b00      	cmp	r3, #0
 8005c0a:	d00e      	beq.n	8005c2a <HAL_TIM_IRQHandler+0x222>
 8005c0c:	68fb      	ldr	r3, [r7, #12]
 8005c0e:	f003 0340 	and.w	r3, r3, #64	@ 0x40
 8005c12:	2b00      	cmp	r3, #0
 8005c14:	d009      	beq.n	8005c2a <HAL_TIM_IRQHandler+0x222>
 8005c16:	687b      	ldr	r3, [r7, #4]
 8005c18:	681b      	ldr	r3, [r3, #0]
 8005c1a:	f06f 0240 	mvn.w	r2, #64	@ 0x40
 8005c1e:	611a      	str	r2, [r3, #16]
 8005c20:	687b      	ldr	r3, [r7, #4]
 8005c22:	f8d3 308c 	ldr.w	r3, [r3, #140]	@ 0x8c
 8005c26:	6878      	ldr	r0, [r7, #4]
 8005c28:	4798      	blx	r3
 8005c2a:	68bb      	ldr	r3, [r7, #8]
 8005c2c:	f003 0320 	and.w	r3, r3, #32
 8005c30:	2b00      	cmp	r3, #0
 8005c32:	d00e      	beq.n	8005c52 <HAL_TIM_IRQHandler+0x24a>
 8005c34:	68fb      	ldr	r3, [r7, #12]
 8005c36:	f003 0320 	and.w	r3, r3, #32
 8005c3a:	2b00      	cmp	r3, #0
 8005c3c:	d009      	beq.n	8005c52 <HAL_TIM_IRQHandler+0x24a>
 8005c3e:	687b      	ldr	r3, [r7, #4]
 8005c40:	681b      	ldr	r3, [r3, #0]
 8005c42:	f06f 0220 	mvn.w	r2, #32
 8005c46:	611a      	str	r2, [r3, #16]
 8005c48:	687b      	ldr	r3, [r7, #4]
 8005c4a:	f8d3 30ac 	ldr.w	r3, [r3, #172]	@ 0xac
 8005c4e:	6878      	ldr	r0, [r7, #4]
 8005c50:	4798      	blx	r3
 8005c52:	68bb      	ldr	r3, [r7, #8]
 8005c54:	f403 1380 	and.w	r3, r3, #1048576	@ 0x100000
 8005c58:	2b00      	cmp	r3, #0
 8005c5a:	d00e      	beq.n	8005c7a <HAL_TIM_IRQHandler+0x272>
 8005c5c:	68fb      	ldr	r3, [r7, #12]
 8005c5e:	f403 1380 	and.w	r3, r3, #1048576	@ 0x100000
 8005c62:	2b00      	cmp	r3, #0
 8005c64:	d009      	beq.n	8005c7a <HAL_TIM_IRQHandler+0x272>
 8005c66:	687b      	ldr	r3, [r7, #4]
 8005c68:	681b      	ldr	r3, [r3, #0]
 8005c6a:	f46f 1280 	mvn.w	r2, #1048576	@ 0x100000
 8005c6e:	611a      	str	r2, [r3, #16]
 8005c70:	687b      	ldr	r3, [r7, #4]
 8005c72:	f8d3 30bc 	ldr.w	r3, [r3, #188]	@ 0xbc
 8005c76:	6878      	ldr	r0, [r7, #4]
 8005c78:	4798      	blx	r3
 8005c7a:	68bb      	ldr	r3, [r7, #8]
 8005c7c:	f403 1300 	and.w	r3, r3, #2097152	@ 0x200000
 8005c80:	2b00      	cmp	r3, #0
 8005c82:	d00e      	beq.n	8005ca2 <HAL_TIM_IRQHandler+0x29a>
 8005c84:	68fb      	ldr	r3, [r7, #12]
 8005c86:	f403 1300 	and.w	r3, r3, #2097152	@ 0x200000
 8005c8a:	2b00      	cmp	r3, #0
 8005c8c:	d009      	beq.n	8005ca2 <HAL_TIM_IRQHandler+0x29a>
 8005c8e:	687b      	ldr	r3, [r7, #4]
 8005c90:	681b      	ldr	r3, [r3, #0]
 8005c92:	f46f 1200 	mvn.w	r2, #2097152	@ 0x200000
 8005c96:	611a      	str	r2, [r3, #16]
 8005c98:	687b      	ldr	r3, [r7, #4]
 8005c9a:	f8d3 30c0 	ldr.w	r3, [r3, #192]	@ 0xc0
 8005c9e:	6878      	ldr	r0, [r7, #4]
 8005ca0:	4798      	blx	r3
 8005ca2:	68bb      	ldr	r3, [r7, #8]
 8005ca4:	f403 0380 	and.w	r3, r3, #4194304	@ 0x400000
 8005ca8:	2b00      	cmp	r3, #0
 8005caa:	d00e      	beq.n	8005cca <HAL_TIM_IRQHandler+0x2c2>
 8005cac:	68fb      	ldr	r3, [r7, #12]
 8005cae:	f403 0380 	and.w	r3, r3, #4194304	@ 0x400000
 8005cb2:	2b00      	cmp	r3, #0
 8005cb4:	d009      	beq.n	8005cca <HAL_TIM_IRQHandler+0x2c2>
 8005cb6:	687b      	ldr	r3, [r7, #4]
 8005cb8:	681b      	ldr	r3, [r3, #0]
 8005cba:	f46f 0280 	mvn.w	r2, #4194304	@ 0x400000
 8005cbe:	611a      	str	r2, [r3, #16]
 8005cc0:	687b      	ldr	r3, [r7, #4]
 8005cc2:	f8d3 30c4 	ldr.w	r3, [r3, #196]	@ 0xc4
 8005cc6:	6878      	ldr	r0, [r7, #4]
 8005cc8:	4798      	blx	r3
 8005cca:	68bb      	ldr	r3, [r7, #8]
 8005ccc:	f403 0300 	and.w	r3, r3, #8388608	@ 0x800000
 8005cd0:	2b00      	cmp	r3, #0
 8005cd2:	d00e      	beq.n	8005cf2 <HAL_TIM_IRQHandler+0x2ea>
 8005cd4:	68fb      	ldr	r3, [r7, #12]
 8005cd6:	f403 0300 	and.w	r3, r3, #8388608	@ 0x800000
 8005cda:	2b00      	cmp	r3, #0
 8005cdc:	d009      	beq.n	8005cf2 <HAL_TIM_IRQHandler+0x2ea>
 8005cde:	687b      	ldr	r3, [r7, #4]
 8005ce0:	681b      	ldr	r3, [r3, #0]
 8005ce2:	f46f 0200 	mvn.w	r2, #8388608	@ 0x800000
 8005ce6:	611a      	str	r2, [r3, #16]
 8005ce8:	687b      	ldr	r3, [r7, #4]
 8005cea:	f8d3 30c8 	ldr.w	r3, [r3, #200]	@ 0xc8
 8005cee:	6878      	ldr	r0, [r7, #4]
 8005cf0:	4798      	blx	r3
 8005cf2:	bf00      	nop
 8005cf4:	3710      	adds	r7, #16
 8005cf6:	46bd      	mov	sp, r7
 8005cf8:	bd80      	pop	{r7, pc}
	...

08005cfc <HAL_TIM_OC_ConfigChannel>:
 8005cfc:	b580      	push	{r7, lr}
 8005cfe:	b086      	sub	sp, #24
 8005d00:	af00      	add	r7, sp, #0
 8005d02:	60f8      	str	r0, [r7, #12]
 8005d04:	60b9      	str	r1, [r7, #8]
 8005d06:	607a      	str	r2, [r7, #4]
 8005d08:	2300      	movs	r3, #0
 8005d0a:	75fb      	strb	r3, [r7, #23]
 8005d0c:	68fb      	ldr	r3, [r7, #12]
 8005d0e:	f893 303c 	ldrb.w	r3, [r3, #60]	@ 0x3c
 8005d12:	2b01      	cmp	r3, #1
 8005d14:	d101      	bne.n	8005d1a <HAL_TIM_OC_ConfigChannel+0x1e>
 8005d16:	2302      	movs	r3, #2
 8005d18:	e066      	b.n	8005de8 <HAL_TIM_OC_ConfigChannel+0xec>
 8005d1a:	68fb      	ldr	r3, [r7, #12]
 8005d1c:	2201      	movs	r2, #1
 8005d1e:	f883 203c 	strb.w	r2, [r3, #60]	@ 0x3c
 8005d22:	687b      	ldr	r3, [r7, #4]
 8005d24:	2b14      	cmp	r3, #20
 8005d26:	d857      	bhi.n	8005dd8 <HAL_TIM_OC_ConfigChannel+0xdc>
 8005d28:	a201      	add	r2, pc, #4	@ (adr r2, 8005d30 <HAL_TIM_OC_ConfigChannel+0x34>)
 8005d2a:	f852 f023 	ldr.w	pc, [r2, r3, lsl #2]
 8005d2e:	bf00      	nop
 8005d30:	08005d85 	.word	0x08005d85
 8005d34:	08005dd9 	.word	0x08005dd9
 8005d38:	08005dd9 	.word	0x08005dd9
 8005d3c:	08005dd9 	.word	0x08005dd9
 8005d40:	08005d93 	.word	0x08005d93
 8005d44:	08005dd9 	.word	0x08005dd9
 8005d48:	08005dd9 	.word	0x08005dd9
 8005d4c:	08005dd9 	.word	0x08005dd9
 8005d50:	08005da1 	.word	0x08005da1
 8005d54:	08005dd9 	.word	0x08005dd9
 8005d58:	08005dd9 	.word	0x08005dd9
 8005d5c:	08005dd9 	.word	0x08005dd9
 8005d60:	08005daf 	.word	0x08005daf
 8005d64:	08005dd9 	.word	0x08005dd9
 8005d68:	08005dd9 	.word	0x08005dd9
 8005d6c:	08005dd9 	.word	0x08005dd9
 8005d70:	08005dbd 	.word	0x08005dbd
 8005d74:	08005dd9 	.word	0x08005dd9
 8005d78:	08005dd9 	.word	0x08005dd9
 8005d7c:	08005dd9 	.word	0x08005dd9
 8005d80:	08005dcb 	.word	0x08005dcb
 8005d84:	68fb      	ldr	r3, [r7, #12]
 8005d86:	681b      	ldr	r3, [r3, #0]
 8005d88:	68b9      	ldr	r1, [r7, #8]
 8005d8a:	4618      	mov	r0, r3
 8005d8c:	f000 fcd2 	bl	8006734 <TIM_OC1_SetConfig>
 8005d90:	e025      	b.n	8005dde <HAL_TIM_OC_ConfigChannel+0xe2>
 8005d92:	68fb      	ldr	r3, [r7, #12]
 8005d94:	681b      	ldr	r3, [r3, #0]
 8005d96:	68b9      	ldr	r1, [r7, #8]
 8005d98:	4618      	mov	r0, r3
 8005d9a:	f000 fd65 	bl	8006868 <TIM_OC2_SetConfig>
 8005d9e:	e01e      	b.n	8005dde <HAL_TIM_OC_ConfigChannel+0xe2>
 8005da0:	68fb      	ldr	r3, [r7, #12]
 8005da2:	681b      	ldr	r3, [r3, #0]
 8005da4:	68b9      	ldr	r1, [r7, #8]
 8005da6:	4618      	mov	r0, r3
 8005da8:	f000 fdf2 	bl	8006990 <TIM_OC3_SetConfig>
 8005dac:	e017      	b.n	8005dde <HAL_TIM_OC_ConfigChannel+0xe2>
 8005dae:	68fb      	ldr	r3, [r7, #12]
 8005db0:	681b      	ldr	r3, [r3, #0]
 8005db2:	68b9      	ldr	r1, [r7, #8]
 8005db4:	4618      	mov	r0, r3
 8005db6:	f000 fe7d 	bl	8006ab4 <TIM_OC4_SetConfig>
 8005dba:	e010      	b.n	8005dde <HAL_TIM_OC_ConfigChannel+0xe2>
 8005dbc:	68fb      	ldr	r3, [r7, #12]
 8005dbe:	681b      	ldr	r3, [r3, #0]
 8005dc0:	68b9      	ldr	r1, [r7, #8]
 8005dc2:	4618      	mov	r0, r3
 8005dc4:	f000 ff0a 	bl	8006bdc <TIM_OC5_SetConfig>
 8005dc8:	e009      	b.n	8005dde <HAL_TIM_OC_ConfigChannel+0xe2>
 8005dca:	68fb      	ldr	r3, [r7, #12]
 8005dcc:	681b      	ldr	r3, [r3, #0]
 8005dce:	68b9      	ldr	r1, [r7, #8]
 8005dd0:	4618      	mov	r0, r3
 8005dd2:	f000 ff6d 	bl	8006cb0 <TIM_OC6_SetConfig>
 8005dd6:	e002      	b.n	8005dde <HAL_TIM_OC_ConfigChannel+0xe2>
 8005dd8:	2301      	movs	r3, #1
 8005dda:	75fb      	strb	r3, [r7, #23]
 8005ddc:	bf00      	nop
 8005dde:	68fb      	ldr	r3, [r7, #12]
 8005de0:	2200      	movs	r2, #0
 8005de2:	f883 203c 	strb.w	r2, [r3, #60]	@ 0x3c
 8005de6:	7dfb      	ldrb	r3, [r7, #23]
 8005de8:	4618      	mov	r0, r3
 8005dea:	3718      	adds	r7, #24
 8005dec:	46bd      	mov	sp, r7
 8005dee:	bd80      	pop	{r7, pc}

08005df0 <HAL_TIM_PWM_ConfigChannel>:
 8005df0:	b580      	push	{r7, lr}
 8005df2:	b086      	sub	sp, #24
 8005df4:	af00      	add	r7, sp, #0
 8005df6:	60f8      	str	r0, [r7, #12]
 8005df8:	60b9      	str	r1, [r7, #8]
 8005dfa:	607a      	str	r2, [r7, #4]
 8005dfc:	2300      	movs	r3, #0
 8005dfe:	75fb      	strb	r3, [r7, #23]
 8005e00:	68fb      	ldr	r3, [r7, #12]
 8005e02:	f893 303c 	ldrb.w	r3, [r3, #60]	@ 0x3c
 8005e06:	2b01      	cmp	r3, #1
 8005e08:	d101      	bne.n	8005e0e <HAL_TIM_PWM_ConfigChannel+0x1e>
 8005e0a:	2302      	movs	r3, #2
 8005e0c:	e0ff      	b.n	800600e <HAL_TIM_PWM_ConfigChannel+0x21e>
 8005e0e:	68fb      	ldr	r3, [r7, #12]
 8005e10:	2201      	movs	r2, #1
 8005e12:	f883 203c 	strb.w	r2, [r3, #60]	@ 0x3c
 8005e16:	687b      	ldr	r3, [r7, #4]
 8005e18:	2b14      	cmp	r3, #20
 8005e1a:	f200 80f0 	bhi.w	8005ffe <HAL_TIM_PWM_ConfigChannel+0x20e>
 8005e1e:	a201      	add	r2, pc, #4	@ (adr r2, 8005e24 <HAL_TIM_PWM_ConfigChannel+0x34>)
 8005e20:	f852 f023 	ldr.w	pc, [r2, r3, lsl #2]
 8005e24:	08005e79 	.word	0x08005e79
 8005e28:	08005fff 	.word	0x08005fff
 8005e2c:	08005fff 	.word	0x08005fff
 8005e30:	08005fff 	.word	0x08005fff
 8005e34:	08005eb9 	.word	0x08005eb9
 8005e38:	08005fff 	.word	0x08005fff
 8005e3c:	08005fff 	.word	0x08005fff
 8005e40:	08005fff 	.word	0x08005fff
 8005e44:	08005efb 	.word	0x08005efb
 8005e48:	08005fff 	.word	0x08005fff
 8005e4c:	08005fff 	.word	0x08005fff
 8005e50:	08005fff 	.word	0x08005fff
 8005e54:	08005f3b 	.word	0x08005f3b
 8005e58:	08005fff 	.word	0x08005fff
 8005e5c:	08005fff 	.word	0x08005fff
 8005e60:	08005fff 	.word	0x08005fff
 8005e64:	08005f7d 	.word	0x08005f7d
 8005e68:	08005fff 	.word	0x08005fff
 8005e6c:	08005fff 	.word	0x08005fff
 8005e70:	08005fff 	.word	0x08005fff
 8005e74:	08005fbd 	.word	0x08005fbd
 8005e78:	68fb      	ldr	r3, [r7, #12]
 8005e7a:	681b      	ldr	r3, [r3, #0]
 8005e7c:	68b9      	ldr	r1, [r7, #8]
 8005e7e:	4618      	mov	r0, r3
 8005e80:	f000 fc58 	bl	8006734 <TIM_OC1_SetConfig>
 8005e84:	68fb      	ldr	r3, [r7, #12]
 8005e86:	681b      	ldr	r3, [r3, #0]
 8005e88:	699a      	ldr	r2, [r3, #24]
 8005e8a:	68fb      	ldr	r3, [r7, #12]
 8005e8c:	681b      	ldr	r3, [r3, #0]
 8005e8e:	f042 0208 	orr.w	r2, r2, #8
 8005e92:	619a      	str	r2, [r3, #24]
 8005e94:	68fb      	ldr	r3, [r7, #12]
 8005e96:	681b      	ldr	r3, [r3, #0]
 8005e98:	699a      	ldr	r2, [r3, #24]
 8005e9a:	68fb      	ldr	r3, [r7, #12]
 8005e9c:	681b      	ldr	r3, [r3, #0]
 8005e9e:	f022 0204 	bic.w	r2, r2, #4
 8005ea2:	619a      	str	r2, [r3, #24]
 8005ea4:	68fb      	ldr	r3, [r7, #12]
 8005ea6:	681b      	ldr	r3, [r3, #0]
 8005ea8:	6999      	ldr	r1, [r3, #24]
 8005eaa:	68bb      	ldr	r3, [r7, #8]
 8005eac:	691a      	ldr	r2, [r3, #16]
 8005eae:	68fb      	ldr	r3, [r7, #12]
 8005eb0:	681b      	ldr	r3, [r3, #0]
 8005eb2:	430a      	orrs	r2, r1
 8005eb4:	619a      	str	r2, [r3, #24]
 8005eb6:	e0a5      	b.n	8006004 <HAL_TIM_PWM_ConfigChannel+0x214>
 8005eb8:	68fb      	ldr	r3, [r7, #12]
 8005eba:	681b      	ldr	r3, [r3, #0]
 8005ebc:	68b9      	ldr	r1, [r7, #8]
 8005ebe:	4618      	mov	r0, r3
 8005ec0:	f000 fcd2 	bl	8006868 <TIM_OC2_SetConfig>
 8005ec4:	68fb      	ldr	r3, [r7, #12]
 8005ec6:	681b      	ldr	r3, [r3, #0]
 8005ec8:	699a      	ldr	r2, [r3, #24]
 8005eca:	68fb      	ldr	r3, [r7, #12]
 8005ecc:	681b      	ldr	r3, [r3, #0]
 8005ece:	f442 6200 	orr.w	r2, r2, #2048	@ 0x800
 8005ed2:	619a      	str	r2, [r3, #24]
 8005ed4:	68fb      	ldr	r3, [r7, #12]
 8005ed6:	681b      	ldr	r3, [r3, #0]
 8005ed8:	699a      	ldr	r2, [r3, #24]
 8005eda:	68fb      	ldr	r3, [r7, #12]
 8005edc:	681b      	ldr	r3, [r3, #0]
 8005ede:	f422 6280 	bic.w	r2, r2, #1024	@ 0x400
 8005ee2:	619a      	str	r2, [r3, #24]
 8005ee4:	68fb      	ldr	r3, [r7, #12]
 8005ee6:	681b      	ldr	r3, [r3, #0]
 8005ee8:	6999      	ldr	r1, [r3, #24]
 8005eea:	68bb      	ldr	r3, [r7, #8]
 8005eec:	691b      	ldr	r3, [r3, #16]
 8005eee:	021a      	lsls	r2, r3, #8
 8005ef0:	68fb      	ldr	r3, [r7, #12]
 8005ef2:	681b      	ldr	r3, [r3, #0]
 8005ef4:	430a      	orrs	r2, r1
 8005ef6:	619a      	str	r2, [r3, #24]
 8005ef8:	e084      	b.n	8006004 <HAL_TIM_PWM_ConfigChannel+0x214>
 8005efa:	68fb      	ldr	r3, [r7, #12]
 8005efc:	681b      	ldr	r3, [r3, #0]
 8005efe:	68b9      	ldr	r1, [r7, #8]
 8005f00:	4618      	mov	r0, r3
 8005f02:	f000 fd45 	bl	8006990 <TIM_OC3_SetConfig>
 8005f06:	68fb      	ldr	r3, [r7, #12]
 8005f08:	681b      	ldr	r3, [r3, #0]
 8005f0a:	69da      	ldr	r2, [r3, #28]
 8005f0c:	68fb      	ldr	r3, [r7, #12]
 8005f0e:	681b      	ldr	r3, [r3, #0]
 8005f10:	f042 0208 	orr.w	r2, r2, #8
 8005f14:	61da      	str	r2, [r3, #28]
 8005f16:	68fb      	ldr	r3, [r7, #12]
 8005f18:	681b      	ldr	r3, [r3, #0]
 8005f1a:	69da      	ldr	r2, [r3, #28]
 8005f1c:	68fb      	ldr	r3, [r7, #12]
 8005f1e:	681b      	ldr	r3, [r3, #0]
 8005f20:	f022 0204 	bic.w	r2, r2, #4
 8005f24:	61da      	str	r2, [r3, #28]
 8005f26:	68fb      	ldr	r3, [r7, #12]
 8005f28:	681b      	ldr	r3, [r3, #0]
 8005f2a:	69d9      	ldr	r1, [r3, #28]
 8005f2c:	68bb      	ldr	r3, [r7, #8]
 8005f2e:	691a      	ldr	r2, [r3, #16]
 8005f30:	68fb      	ldr	r3, [r7, #12]
 8005f32:	681b      	ldr	r3, [r3, #0]
 8005f34:	430a      	orrs	r2, r1
 8005f36:	61da      	str	r2, [r3, #28]
 8005f38:	e064      	b.n	8006004 <HAL_TIM_PWM_ConfigChannel+0x214>
 8005f3a:	68fb      	ldr	r3, [r7, #12]
 8005f3c:	681b      	ldr	r3, [r3, #0]
 8005f3e:	68b9      	ldr	r1, [r7, #8]
 8005f40:	4618      	mov	r0, r3
 8005f42:	f000 fdb7 	bl	8006ab4 <TIM_OC4_SetConfig>
 8005f46:	68fb      	ldr	r3, [r7, #12]
 8005f48:	681b      	ldr	r3, [r3, #0]
 8005f4a:	69da      	ldr	r2, [r3, #28]
 8005f4c:	68fb      	ldr	r3, [r7, #12]
 8005f4e:	681b      	ldr	r3, [r3, #0]
 8005f50:	f442 6200 	orr.w	r2, r2, #2048	@ 0x800
 8005f54:	61da      	str	r2, [r3, #28]
 8005f56:	68fb      	ldr	r3, [r7, #12]
 8005f58:	681b      	ldr	r3, [r3, #0]
 8005f5a:	69da      	ldr	r2, [r3, #28]
 8005f5c:	68fb      	ldr	r3, [r7, #12]
 8005f5e:	681b      	ldr	r3, [r3, #0]
 8005f60:	f422 6280 	bic.w	r2, r2, #1024	@ 0x400
 8005f64:	61da      	str	r2, [r3, #28]
 8005f66:	68fb      	ldr	r3, [r7, #12]
 8005f68:	681b      	ldr	r3, [r3, #0]
 8005f6a:	69d9      	ldr	r1, [r3, #28]
 8005f6c:	68bb      	ldr	r3, [r7, #8]
 8005f6e:	691b      	ldr	r3, [r3, #16]
 8005f70:	021a      	lsls	r2, r3, #8
 8005f72:	68fb      	ldr	r3, [r7, #12]
 8005f74:	681b      	ldr	r3, [r3, #0]
 8005f76:	430a      	orrs	r2, r1
 8005f78:	61da      	str	r2, [r3, #28]
 8005f7a:	e043      	b.n	8006004 <HAL_TIM_PWM_ConfigChannel+0x214>
 8005f7c:	68fb      	ldr	r3, [r7, #12]
 8005f7e:	681b      	ldr	r3, [r3, #0]
 8005f80:	68b9      	ldr	r1, [r7, #8]
 8005f82:	4618      	mov	r0, r3
 8005f84:	f000 fe2a 	bl	8006bdc <TIM_OC5_SetConfig>
 8005f88:	68fb      	ldr	r3, [r7, #12]
 8005f8a:	681b      	ldr	r3, [r3, #0]
 8005f8c:	6d1a      	ldr	r2, [r3, #80]	@ 0x50
 8005f8e:	68fb      	ldr	r3, [r7, #12]
 8005f90:	681b      	ldr	r3, [r3, #0]
 8005f92:	f042 0208 	orr.w	r2, r2, #8
 8005f96:	651a      	str	r2, [r3, #80]	@ 0x50
 8005f98:	68fb      	ldr	r3, [r7, #12]
 8005f9a:	681b      	ldr	r3, [r3, #0]
 8005f9c:	6d1a      	ldr	r2, [r3, #80]	@ 0x50
 8005f9e:	68fb      	ldr	r3, [r7, #12]
 8005fa0:	681b      	ldr	r3, [r3, #0]
 8005fa2:	f022 0204 	bic.w	r2, r2, #4
 8005fa6:	651a      	str	r2, [r3, #80]	@ 0x50
 8005fa8:	68fb      	ldr	r3, [r7, #12]
 8005faa:	681b      	ldr	r3, [r3, #0]
 8005fac:	6d19      	ldr	r1, [r3, #80]	@ 0x50
 8005fae:	68bb      	ldr	r3, [r7, #8]
 8005fb0:	691a      	ldr	r2, [r3, #16]
 8005fb2:	68fb      	ldr	r3, [r7, #12]
 8005fb4:	681b      	ldr	r3, [r3, #0]
 8005fb6:	430a      	orrs	r2, r1
 8005fb8:	651a      	str	r2, [r3, #80]	@ 0x50
 8005fba:	e023      	b.n	8006004 <HAL_TIM_PWM_ConfigChannel+0x214>
 8005fbc:	68fb      	ldr	r3, [r7, #12]
 8005fbe:	681b      	ldr	r3, [r3, #0]
 8005fc0:	68b9      	ldr	r1, [r7, #8]
 8005fc2:	4618      	mov	r0, r3
 8005fc4:	f000 fe74 	bl	8006cb0 <TIM_OC6_SetConfig>
 8005fc8:	68fb      	ldr	r3, [r7, #12]
 8005fca:	681b      	ldr	r3, [r3, #0]
 8005fcc:	6d1a      	ldr	r2, [r3, #80]	@ 0x50
 8005fce:	68fb      	ldr	r3, [r7, #12]
 8005fd0:	681b      	ldr	r3, [r3, #0]
 8005fd2:	f442 6200 	orr.w	r2, r2, #2048	@ 0x800
 8005fd6:	651a      	str	r2, [r3, #80]	@ 0x50
 8005fd8:	68fb      	ldr	r3, [r7, #12]
 8005fda:	681b      	ldr	r3, [r3, #0]
 8005fdc:	6d1a      	ldr	r2, [r3, #80]	@ 0x50
 8005fde:	68fb      	ldr	r3, [r7, #12]
 8005fe0:	681b      	ldr	r3, [r3, #0]
 8005fe2:	f422 6280 	bic.w	r2, r2, #1024	@ 0x400
 8005fe6:	651a      	str	r2, [r3, #80]	@ 0x50
 8005fe8:	68fb      	ldr	r3, [r7, #12]
 8005fea:	681b      	ldr	r3, [r3, #0]
 8005fec:	6d19      	ldr	r1, [r3, #80]	@ 0x50
 8005fee:	68bb      	ldr	r3, [r7, #8]
 8005ff0:	691b      	ldr	r3, [r3, #16]
 8005ff2:	021a      	lsls	r2, r3, #8
 8005ff4:	68fb      	ldr	r3, [r7, #12]
 8005ff6:	681b      	ldr	r3, [r3, #0]
 8005ff8:	430a      	orrs	r2, r1
 8005ffa:	651a      	str	r2, [r3, #80]	@ 0x50
 8005ffc:	e002      	b.n	8006004 <HAL_TIM_PWM_ConfigChannel+0x214>
 8005ffe:	2301      	movs	r3, #1
 8006000:	75fb      	strb	r3, [r7, #23]
 8006002:	bf00      	nop
 8006004:	68fb      	ldr	r3, [r7, #12]
 8006006:	2200      	movs	r2, #0
 8006008:	f883 203c 	strb.w	r2, [r3, #60]	@ 0x3c
 800600c:	7dfb      	ldrb	r3, [r7, #23]
 800600e:	4618      	mov	r0, r3
 8006010:	3718      	adds	r7, #24
 8006012:	46bd      	mov	sp, r7
 8006014:	bd80      	pop	{r7, pc}
 8006016:	bf00      	nop

08006018 <HAL_TIM_ConfigClockSource>:
 8006018:	b580      	push	{r7, lr}
 800601a:	b084      	sub	sp, #16
 800601c:	af00      	add	r7, sp, #0
 800601e:	6078      	str	r0, [r7, #4]
 8006020:	6039      	str	r1, [r7, #0]
 8006022:	2300      	movs	r3, #0
 8006024:	73fb      	strb	r3, [r7, #15]
 8006026:	687b      	ldr	r3, [r7, #4]
 8006028:	f893 303c 	ldrb.w	r3, [r3, #60]	@ 0x3c
 800602c:	2b01      	cmp	r3, #1
 800602e:	d101      	bne.n	8006034 <HAL_TIM_ConfigClockSource+0x1c>
 8006030:	2302      	movs	r3, #2
 8006032:	e0f6      	b.n	8006222 <HAL_TIM_ConfigClockSource+0x20a>
 8006034:	687b      	ldr	r3, [r7, #4]
 8006036:	2201      	movs	r2, #1
 8006038:	f883 203c 	strb.w	r2, [r3, #60]	@ 0x3c
 800603c:	687b      	ldr	r3, [r7, #4]
 800603e:	2202      	movs	r2, #2
 8006040:	f883 203d 	strb.w	r2, [r3, #61]	@ 0x3d
 8006044:	687b      	ldr	r3, [r7, #4]
 8006046:	681b      	ldr	r3, [r3, #0]
 8006048:	689b      	ldr	r3, [r3, #8]
 800604a:	60bb      	str	r3, [r7, #8]
 800604c:	68bb      	ldr	r3, [r7, #8]
 800604e:	f423 1344 	bic.w	r3, r3, #3211264	@ 0x310000
 8006052:	f023 0377 	bic.w	r3, r3, #119	@ 0x77
 8006056:	60bb      	str	r3, [r7, #8]
 8006058:	68bb      	ldr	r3, [r7, #8]
 800605a:	f423 437f 	bic.w	r3, r3, #65280	@ 0xff00
 800605e:	60bb      	str	r3, [r7, #8]
 8006060:	687b      	ldr	r3, [r7, #4]
 8006062:	681b      	ldr	r3, [r3, #0]
 8006064:	68ba      	ldr	r2, [r7, #8]
 8006066:	609a      	str	r2, [r3, #8]
 8006068:	683b      	ldr	r3, [r7, #0]
 800606a:	681b      	ldr	r3, [r3, #0]
 800606c:	4a6f      	ldr	r2, [pc, #444]	@ (800622c <HAL_TIM_ConfigClockSource+0x214>)
 800606e:	4293      	cmp	r3, r2
 8006070:	f000 80c1 	beq.w	80061f6 <HAL_TIM_ConfigClockSource+0x1de>
 8006074:	4a6d      	ldr	r2, [pc, #436]	@ (800622c <HAL_TIM_ConfigClockSource+0x214>)
 8006076:	4293      	cmp	r3, r2
 8006078:	f200 80c6 	bhi.w	8006208 <HAL_TIM_ConfigClockSource+0x1f0>
 800607c:	4a6c      	ldr	r2, [pc, #432]	@ (8006230 <HAL_TIM_ConfigClockSource+0x218>)
 800607e:	4293      	cmp	r3, r2
 8006080:	f000 80b9 	beq.w	80061f6 <HAL_TIM_ConfigClockSource+0x1de>
 8006084:	4a6a      	ldr	r2, [pc, #424]	@ (8006230 <HAL_TIM_ConfigClockSource+0x218>)
 8006086:	4293      	cmp	r3, r2
 8006088:	f200 80be 	bhi.w	8006208 <HAL_TIM_ConfigClockSource+0x1f0>
 800608c:	4a69      	ldr	r2, [pc, #420]	@ (8006234 <HAL_TIM_ConfigClockSource+0x21c>)
 800608e:	4293      	cmp	r3, r2
 8006090:	f000 80b1 	beq.w	80061f6 <HAL_TIM_ConfigClockSource+0x1de>
 8006094:	4a67      	ldr	r2, [pc, #412]	@ (8006234 <HAL_TIM_ConfigClockSource+0x21c>)
 8006096:	4293      	cmp	r3, r2
 8006098:	f200 80b6 	bhi.w	8006208 <HAL_TIM_ConfigClockSource+0x1f0>
 800609c:	4a66      	ldr	r2, [pc, #408]	@ (8006238 <HAL_TIM_ConfigClockSource+0x220>)
 800609e:	4293      	cmp	r3, r2
 80060a0:	f000 80a9 	beq.w	80061f6 <HAL_TIM_ConfigClockSource+0x1de>
 80060a4:	4a64      	ldr	r2, [pc, #400]	@ (8006238 <HAL_TIM_ConfigClockSource+0x220>)
 80060a6:	4293      	cmp	r3, r2
 80060a8:	f200 80ae 	bhi.w	8006208 <HAL_TIM_ConfigClockSource+0x1f0>
 80060ac:	4a63      	ldr	r2, [pc, #396]	@ (800623c <HAL_TIM_ConfigClockSource+0x224>)
 80060ae:	4293      	cmp	r3, r2
 80060b0:	f000 80a1 	beq.w	80061f6 <HAL_TIM_ConfigClockSource+0x1de>
 80060b4:	4a61      	ldr	r2, [pc, #388]	@ (800623c <HAL_TIM_ConfigClockSource+0x224>)
 80060b6:	4293      	cmp	r3, r2
 80060b8:	f200 80a6 	bhi.w	8006208 <HAL_TIM_ConfigClockSource+0x1f0>
 80060bc:	4a60      	ldr	r2, [pc, #384]	@ (8006240 <HAL_TIM_ConfigClockSource+0x228>)
 80060be:	4293      	cmp	r3, r2
 80060c0:	f000 8099 	beq.w	80061f6 <HAL_TIM_ConfigClockSource+0x1de>
 80060c4:	4a5e      	ldr	r2, [pc, #376]	@ (8006240 <HAL_TIM_ConfigClockSource+0x228>)
 80060c6:	4293      	cmp	r3, r2
 80060c8:	f200 809e 	bhi.w	8006208 <HAL_TIM_ConfigClockSource+0x1f0>
 80060cc:	f1b3 1f10 	cmp.w	r3, #1048592	@ 0x100010
 80060d0:	f000 8091 	beq.w	80061f6 <HAL_TIM_ConfigClockSource+0x1de>
 80060d4:	f1b3 1f10 	cmp.w	r3, #1048592	@ 0x100010
 80060d8:	f200 8096 	bhi.w	8006208 <HAL_TIM_ConfigClockSource+0x1f0>
 80060dc:	f5b3 1f80 	cmp.w	r3, #1048576	@ 0x100000
 80060e0:	f000 8089 	beq.w	80061f6 <HAL_TIM_ConfigClockSource+0x1de>
 80060e4:	f5b3 1f80 	cmp.w	r3, #1048576	@ 0x100000
 80060e8:	f200 808e 	bhi.w	8006208 <HAL_TIM_ConfigClockSource+0x1f0>
 80060ec:	f5b3 5f00 	cmp.w	r3, #8192	@ 0x2000
 80060f0:	d03e      	beq.n	8006170 <HAL_TIM_ConfigClockSource+0x158>
 80060f2:	f5b3 5f00 	cmp.w	r3, #8192	@ 0x2000
 80060f6:	f200 8087 	bhi.w	8006208 <HAL_TIM_ConfigClockSource+0x1f0>
 80060fa:	f5b3 5f80 	cmp.w	r3, #4096	@ 0x1000
 80060fe:	f000 8086 	beq.w	800620e <HAL_TIM_ConfigClockSource+0x1f6>
 8006102:	f5b3 5f80 	cmp.w	r3, #4096	@ 0x1000
 8006106:	d87f      	bhi.n	8006208 <HAL_TIM_ConfigClockSource+0x1f0>
 8006108:	2b70      	cmp	r3, #112	@ 0x70
 800610a:	d01a      	beq.n	8006142 <HAL_TIM_ConfigClockSource+0x12a>
 800610c:	2b70      	cmp	r3, #112	@ 0x70
 800610e:	d87b      	bhi.n	8006208 <HAL_TIM_ConfigClockSource+0x1f0>
 8006110:	2b60      	cmp	r3, #96	@ 0x60
 8006112:	d050      	beq.n	80061b6 <HAL_TIM_ConfigClockSource+0x19e>
 8006114:	2b60      	cmp	r3, #96	@ 0x60
 8006116:	d877      	bhi.n	8006208 <HAL_TIM_ConfigClockSource+0x1f0>
 8006118:	2b50      	cmp	r3, #80	@ 0x50
 800611a:	d03c      	beq.n	8006196 <HAL_TIM_ConfigClockSource+0x17e>
 800611c:	2b50      	cmp	r3, #80	@ 0x50
 800611e:	d873      	bhi.n	8006208 <HAL_TIM_ConfigClockSource+0x1f0>
 8006120:	2b40      	cmp	r3, #64	@ 0x40
 8006122:	d058      	beq.n	80061d6 <HAL_TIM_ConfigClockSource+0x1be>
 8006124:	2b40      	cmp	r3, #64	@ 0x40
 8006126:	d86f      	bhi.n	8006208 <HAL_TIM_ConfigClockSource+0x1f0>
 8006128:	2b30      	cmp	r3, #48	@ 0x30
 800612a:	d064      	beq.n	80061f6 <HAL_TIM_ConfigClockSource+0x1de>
 800612c:	2b30      	cmp	r3, #48	@ 0x30
 800612e:	d86b      	bhi.n	8006208 <HAL_TIM_ConfigClockSource+0x1f0>
 8006130:	2b20      	cmp	r3, #32
 8006132:	d060      	beq.n	80061f6 <HAL_TIM_ConfigClockSource+0x1de>
 8006134:	2b20      	cmp	r3, #32
 8006136:	d867      	bhi.n	8006208 <HAL_TIM_ConfigClockSource+0x1f0>
 8006138:	2b00      	cmp	r3, #0
 800613a:	d05c      	beq.n	80061f6 <HAL_TIM_ConfigClockSource+0x1de>
 800613c:	2b10      	cmp	r3, #16
 800613e:	d05a      	beq.n	80061f6 <HAL_TIM_ConfigClockSource+0x1de>
 8006140:	e062      	b.n	8006208 <HAL_TIM_ConfigClockSource+0x1f0>
 8006142:	687b      	ldr	r3, [r7, #4]
 8006144:	6818      	ldr	r0, [r3, #0]
 8006146:	683b      	ldr	r3, [r7, #0]
 8006148:	6899      	ldr	r1, [r3, #8]
 800614a:	683b      	ldr	r3, [r7, #0]
 800614c:	685a      	ldr	r2, [r3, #4]
 800614e:	683b      	ldr	r3, [r7, #0]
 8006150:	68db      	ldr	r3, [r3, #12]
 8006152:	f000 fe95 	bl	8006e80 <TIM_ETR_SetConfig>
 8006156:	687b      	ldr	r3, [r7, #4]
 8006158:	681b      	ldr	r3, [r3, #0]
 800615a:	689b      	ldr	r3, [r3, #8]
 800615c:	60bb      	str	r3, [r7, #8]
 800615e:	68bb      	ldr	r3, [r7, #8]
 8006160:	f043 0377 	orr.w	r3, r3, #119	@ 0x77
 8006164:	60bb      	str	r3, [r7, #8]
 8006166:	687b      	ldr	r3, [r7, #4]
 8006168:	681b      	ldr	r3, [r3, #0]
 800616a:	68ba      	ldr	r2, [r7, #8]
 800616c:	609a      	str	r2, [r3, #8]
 800616e:	e04f      	b.n	8006210 <HAL_TIM_ConfigClockSource+0x1f8>
 8006170:	687b      	ldr	r3, [r7, #4]
 8006172:	6818      	ldr	r0, [r3, #0]
 8006174:	683b      	ldr	r3, [r7, #0]
 8006176:	6899      	ldr	r1, [r3, #8]
 8006178:	683b      	ldr	r3, [r7, #0]
 800617a:	685a      	ldr	r2, [r3, #4]
 800617c:	683b      	ldr	r3, [r7, #0]
 800617e:	68db      	ldr	r3, [r3, #12]
 8006180:	f000 fe7e 	bl	8006e80 <TIM_ETR_SetConfig>
 8006184:	687b      	ldr	r3, [r7, #4]
 8006186:	681b      	ldr	r3, [r3, #0]
 8006188:	689a      	ldr	r2, [r3, #8]
 800618a:	687b      	ldr	r3, [r7, #4]
 800618c:	681b      	ldr	r3, [r3, #0]
 800618e:	f442 4280 	orr.w	r2, r2, #16384	@ 0x4000
 8006192:	609a      	str	r2, [r3, #8]
 8006194:	e03c      	b.n	8006210 <HAL_TIM_ConfigClockSource+0x1f8>
 8006196:	687b      	ldr	r3, [r7, #4]
 8006198:	6818      	ldr	r0, [r3, #0]
 800619a:	683b      	ldr	r3, [r7, #0]
 800619c:	6859      	ldr	r1, [r3, #4]
 800619e:	683b      	ldr	r3, [r7, #0]
 80061a0:	68db      	ldr	r3, [r3, #12]
 80061a2:	461a      	mov	r2, r3
 80061a4:	f000 fdf0 	bl	8006d88 <TIM_TI1_ConfigInputStage>
 80061a8:	687b      	ldr	r3, [r7, #4]
 80061aa:	681b      	ldr	r3, [r3, #0]
 80061ac:	2150      	movs	r1, #80	@ 0x50
 80061ae:	4618      	mov	r0, r3
 80061b0:	f000 fe49 	bl	8006e46 <TIM_ITRx_SetConfig>
 80061b4:	e02c      	b.n	8006210 <HAL_TIM_ConfigClockSource+0x1f8>
 80061b6:	687b      	ldr	r3, [r7, #4]
 80061b8:	6818      	ldr	r0, [r3, #0]
 80061ba:	683b      	ldr	r3, [r7, #0]
 80061bc:	6859      	ldr	r1, [r3, #4]
 80061be:	683b      	ldr	r3, [r7, #0]
 80061c0:	68db      	ldr	r3, [r3, #12]
 80061c2:	461a      	mov	r2, r3
 80061c4:	f000 fe0f 	bl	8006de6 <TIM_TI2_ConfigInputStage>
 80061c8:	687b      	ldr	r3, [r7, #4]
 80061ca:	681b      	ldr	r3, [r3, #0]
 80061cc:	2160      	movs	r1, #96	@ 0x60
 80061ce:	4618      	mov	r0, r3
 80061d0:	f000 fe39 	bl	8006e46 <TIM_ITRx_SetConfig>
 80061d4:	e01c      	b.n	8006210 <HAL_TIM_ConfigClockSource+0x1f8>
 80061d6:	687b      	ldr	r3, [r7, #4]
 80061d8:	6818      	ldr	r0, [r3, #0]
 80061da:	683b      	ldr	r3, [r7, #0]
 80061dc:	6859      	ldr	r1, [r3, #4]
 80061de:	683b      	ldr	r3, [r7, #0]
 80061e0:	68db      	ldr	r3, [r3, #12]
 80061e2:	461a      	mov	r2, r3
 80061e4:	f000 fdd0 	bl	8006d88 <TIM_TI1_ConfigInputStage>
 80061e8:	687b      	ldr	r3, [r7, #4]
 80061ea:	681b      	ldr	r3, [r3, #0]
 80061ec:	2140      	movs	r1, #64	@ 0x40
 80061ee:	4618      	mov	r0, r3
 80061f0:	f000 fe29 	bl	8006e46 <TIM_ITRx_SetConfig>
 80061f4:	e00c      	b.n	8006210 <HAL_TIM_ConfigClockSource+0x1f8>
 80061f6:	687b      	ldr	r3, [r7, #4]
 80061f8:	681a      	ldr	r2, [r3, #0]
 80061fa:	683b      	ldr	r3, [r7, #0]
 80061fc:	681b      	ldr	r3, [r3, #0]
 80061fe:	4619      	mov	r1, r3
 8006200:	4610      	mov	r0, r2
 8006202:	f000 fe20 	bl	8006e46 <TIM_ITRx_SetConfig>
 8006206:	e003      	b.n	8006210 <HAL_TIM_ConfigClockSource+0x1f8>
 8006208:	2301      	movs	r3, #1
 800620a:	73fb      	strb	r3, [r7, #15]
 800620c:	e000      	b.n	8006210 <HAL_TIM_ConfigClockSource+0x1f8>
 800620e:	bf00      	nop
 8006210:	687b      	ldr	r3, [r7, #4]
 8006212:	2201      	movs	r2, #1
 8006214:	f883 203d 	strb.w	r2, [r3, #61]	@ 0x3d
 8006218:	687b      	ldr	r3, [r7, #4]
 800621a:	2200      	movs	r2, #0
 800621c:	f883 203c 	strb.w	r2, [r3, #60]	@ 0x3c
 8006220:	7bfb      	ldrb	r3, [r7, #15]
 8006222:	4618      	mov	r0, r3
 8006224:	3710      	adds	r7, #16
 8006226:	46bd      	mov	sp, r7
 8006228:	bd80      	pop	{r7, pc}
 800622a:	bf00      	nop
 800622c:	00100070 	.word	0x00100070
 8006230:	00100060 	.word	0x00100060
 8006234:	00100050 	.word	0x00100050
 8006238:	00100040 	.word	0x00100040
 800623c:	00100030 	.word	0x00100030
 8006240:	00100020 	.word	0x00100020

08006244 <HAL_TIM_PeriodElapsedCallback>:
 8006244:	b480      	push	{r7}
 8006246:	b083      	sub	sp, #12
 8006248:	af00      	add	r7, sp, #0
 800624a:	6078      	str	r0, [r7, #4]
 800624c:	bf00      	nop
 800624e:	370c      	adds	r7, #12
 8006250:	46bd      	mov	sp, r7
 8006252:	f85d 7b04 	ldr.w	r7, [sp], #4
 8006256:	4770      	bx	lr

08006258 <HAL_TIM_PeriodElapsedHalfCpltCallback>:
 8006258:	b480      	push	{r7}
 800625a:	b083      	sub	sp, #12
 800625c:	af00      	add	r7, sp, #0
 800625e:	6078      	str	r0, [r7, #4]
 8006260:	bf00      	nop
 8006262:	370c      	adds	r7, #12
 8006264:	46bd      	mov	sp, r7
 8006266:	f85d 7b04 	ldr.w	r7, [sp], #4
 800626a:	4770      	bx	lr

0800626c <HAL_TIM_OC_DelayElapsedCallback>:
 800626c:	b480      	push	{r7}
 800626e:	b083      	sub	sp, #12
 8006270:	af00      	add	r7, sp, #0
 8006272:	6078      	str	r0, [r7, #4]
 8006274:	bf00      	nop
 8006276:	370c      	adds	r7, #12
 8006278:	46bd      	mov	sp, r7
 800627a:	f85d 7b04 	ldr.w	r7, [sp], #4
 800627e:	4770      	bx	lr

08006280 <HAL_TIM_IC_CaptureCallback>:
 8006280:	b480      	push	{r7}
 8006282:	b083      	sub	sp, #12
 8006284:	af00      	add	r7, sp, #0
 8006286:	6078      	str	r0, [r7, #4]
 8006288:	bf00      	nop
 800628a:	370c      	adds	r7, #12
 800628c:	46bd      	mov	sp, r7
 800628e:	f85d 7b04 	ldr.w	r7, [sp], #4
 8006292:	4770      	bx	lr

08006294 <HAL_TIM_IC_CaptureHalfCpltCallback>:
 8006294:	b480      	push	{r7}
 8006296:	b083      	sub	sp, #12
 8006298:	af00      	add	r7, sp, #0
 800629a:	6078      	str	r0, [r7, #4]
 800629c:	bf00      	nop
 800629e:	370c      	adds	r7, #12
 80062a0:	46bd      	mov	sp, r7
 80062a2:	f85d 7b04 	ldr.w	r7, [sp], #4
 80062a6:	4770      	bx	lr

080062a8 <HAL_TIM_PWM_PulseFinishedCallback>:
 80062a8:	b480      	push	{r7}
 80062aa:	b083      	sub	sp, #12
 80062ac:	af00      	add	r7, sp, #0
 80062ae:	6078      	str	r0, [r7, #4]
 80062b0:	bf00      	nop
 80062b2:	370c      	adds	r7, #12
 80062b4:	46bd      	mov	sp, r7
 80062b6:	f85d 7b04 	ldr.w	r7, [sp], #4
 80062ba:	4770      	bx	lr

080062bc <HAL_TIM_PWM_PulseFinishedHalfCpltCallback>:
 80062bc:	b480      	push	{r7}
 80062be:	b083      	sub	sp, #12
 80062c0:	af00      	add	r7, sp, #0
 80062c2:	6078      	str	r0, [r7, #4]
 80062c4:	bf00      	nop
 80062c6:	370c      	adds	r7, #12
 80062c8:	46bd      	mov	sp, r7
 80062ca:	f85d 7b04 	ldr.w	r7, [sp], #4
 80062ce:	4770      	bx	lr

080062d0 <HAL_TIM_TriggerCallback>:
 80062d0:	b480      	push	{r7}
 80062d2:	b083      	sub	sp, #12
 80062d4:	af00      	add	r7, sp, #0
 80062d6:	6078      	str	r0, [r7, #4]
 80062d8:	bf00      	nop
 80062da:	370c      	adds	r7, #12
 80062dc:	46bd      	mov	sp, r7
 80062de:	f85d 7b04 	ldr.w	r7, [sp], #4
 80062e2:	4770      	bx	lr

080062e4 <HAL_TIM_TriggerHalfCpltCallback>:
 80062e4:	b480      	push	{r7}
 80062e6:	b083      	sub	sp, #12
 80062e8:	af00      	add	r7, sp, #0
 80062ea:	6078      	str	r0, [r7, #4]
 80062ec:	bf00      	nop
 80062ee:	370c      	adds	r7, #12
 80062f0:	46bd      	mov	sp, r7
 80062f2:	f85d 7b04 	ldr.w	r7, [sp], #4
 80062f6:	4770      	bx	lr

080062f8 <HAL_TIM_ErrorCallback>:
 80062f8:	b480      	push	{r7}
 80062fa:	b083      	sub	sp, #12
 80062fc:	af00      	add	r7, sp, #0
 80062fe:	6078      	str	r0, [r7, #4]
 8006300:	bf00      	nop
 8006302:	370c      	adds	r7, #12
 8006304:	46bd      	mov	sp, r7
 8006306:	f85d 7b04 	ldr.w	r7, [sp], #4
 800630a:	4770      	bx	lr

0800630c <HAL_TIM_RegisterCallback>:
 800630c:	b480      	push	{r7}
 800630e:	b087      	sub	sp, #28
 8006310:	af00      	add	r7, sp, #0
 8006312:	60f8      	str	r0, [r7, #12]
 8006314:	460b      	mov	r3, r1
 8006316:	607a      	str	r2, [r7, #4]
 8006318:	72fb      	strb	r3, [r7, #11]
 800631a:	2300      	movs	r3, #0
 800631c:	75fb      	strb	r3, [r7, #23]
 800631e:	687b      	ldr	r3, [r7, #4]
 8006320:	2b00      	cmp	r3, #0
 8006322:	d101      	bne.n	8006328 <HAL_TIM_RegisterCallback+0x1c>
 8006324:	2301      	movs	r3, #1
 8006326:	e14a      	b.n	80065be <HAL_TIM_RegisterCallback+0x2b2>
 8006328:	68fb      	ldr	r3, [r7, #12]
 800632a:	f893 303d 	ldrb.w	r3, [r3, #61]	@ 0x3d
 800632e:	b2db      	uxtb	r3, r3
 8006330:	2b01      	cmp	r3, #1
 8006332:	f040 80dd 	bne.w	80064f0 <HAL_TIM_RegisterCallback+0x1e4>
 8006336:	7afb      	ldrb	r3, [r7, #11]
 8006338:	2b1f      	cmp	r3, #31
 800633a:	f200 80d6 	bhi.w	80064ea <HAL_TIM_RegisterCallback+0x1de>
 800633e:	a201      	add	r2, pc, #4	@ (adr r2, 8006344 <HAL_TIM_RegisterCallback+0x38>)
 8006340:	f852 f023 	ldr.w	pc, [r2, r3, lsl #2]
 8006344:	080063c5 	.word	0x080063c5
 8006348:	080063cd 	.word	0x080063cd
 800634c:	080063d5 	.word	0x080063d5
 8006350:	080063dd 	.word	0x080063dd
 8006354:	080063e5 	.word	0x080063e5
 8006358:	080063ed 	.word	0x080063ed
 800635c:	080063f5 	.word	0x080063f5
 8006360:	080063fd 	.word	0x080063fd
 8006364:	08006405 	.word	0x08006405
 8006368:	0800640d 	.word	0x0800640d
 800636c:	08006415 	.word	0x08006415
 8006370:	0800641d 	.word	0x0800641d
 8006374:	08006425 	.word	0x08006425
 8006378:	0800642d 	.word	0x0800642d
 800637c:	08006437 	.word	0x08006437
 8006380:	08006441 	.word	0x08006441
 8006384:	0800644b 	.word	0x0800644b
 8006388:	08006455 	.word	0x08006455
 800638c:	0800645f 	.word	0x0800645f
 8006390:	08006469 	.word	0x08006469
 8006394:	08006473 	.word	0x08006473
 8006398:	0800647d 	.word	0x0800647d
 800639c:	08006487 	.word	0x08006487
 80063a0:	08006491 	.word	0x08006491
 80063a4:	0800649b 	.word	0x0800649b
 80063a8:	080064a5 	.word	0x080064a5
 80063ac:	080064af 	.word	0x080064af
 80063b0:	080064b9 	.word	0x080064b9
 80063b4:	080064c3 	.word	0x080064c3
 80063b8:	080064cd 	.word	0x080064cd
 80063bc:	080064d7 	.word	0x080064d7
 80063c0:	080064e1 	.word	0x080064e1
 80063c4:	68fb      	ldr	r3, [r7, #12]
 80063c6:	687a      	ldr	r2, [r7, #4]
 80063c8:	64da      	str	r2, [r3, #76]	@ 0x4c
 80063ca:	e0f7      	b.n	80065bc <HAL_TIM_RegisterCallback+0x2b0>
 80063cc:	68fb      	ldr	r3, [r7, #12]
 80063ce:	687a      	ldr	r2, [r7, #4]
 80063d0:	651a      	str	r2, [r3, #80]	@ 0x50
 80063d2:	e0f3      	b.n	80065bc <HAL_TIM_RegisterCallback+0x2b0>
 80063d4:	68fb      	ldr	r3, [r7, #12]
 80063d6:	687a      	ldr	r2, [r7, #4]
 80063d8:	655a      	str	r2, [r3, #84]	@ 0x54
 80063da:	e0ef      	b.n	80065bc <HAL_TIM_RegisterCallback+0x2b0>
 80063dc:	68fb      	ldr	r3, [r7, #12]
 80063de:	687a      	ldr	r2, [r7, #4]
 80063e0:	659a      	str	r2, [r3, #88]	@ 0x58
 80063e2:	e0eb      	b.n	80065bc <HAL_TIM_RegisterCallback+0x2b0>
 80063e4:	68fb      	ldr	r3, [r7, #12]
 80063e6:	687a      	ldr	r2, [r7, #4]
 80063e8:	65da      	str	r2, [r3, #92]	@ 0x5c
 80063ea:	e0e7      	b.n	80065bc <HAL_TIM_RegisterCallback+0x2b0>
 80063ec:	68fb      	ldr	r3, [r7, #12]
 80063ee:	687a      	ldr	r2, [r7, #4]
 80063f0:	661a      	str	r2, [r3, #96]	@ 0x60
 80063f2:	e0e3      	b.n	80065bc <HAL_TIM_RegisterCallback+0x2b0>
 80063f4:	68fb      	ldr	r3, [r7, #12]
 80063f6:	687a      	ldr	r2, [r7, #4]
 80063f8:	665a      	str	r2, [r3, #100]	@ 0x64
 80063fa:	e0df      	b.n	80065bc <HAL_TIM_RegisterCallback+0x2b0>
 80063fc:	68fb      	ldr	r3, [r7, #12]
 80063fe:	687a      	ldr	r2, [r7, #4]
 8006400:	669a      	str	r2, [r3, #104]	@ 0x68
 8006402:	e0db      	b.n	80065bc <HAL_TIM_RegisterCallback+0x2b0>
 8006404:	68fb      	ldr	r3, [r7, #12]
 8006406:	687a      	ldr	r2, [r7, #4]
 8006408:	66da      	str	r2, [r3, #108]	@ 0x6c
 800640a:	e0d7      	b.n	80065bc <HAL_TIM_RegisterCallback+0x2b0>
 800640c:	68fb      	ldr	r3, [r7, #12]
 800640e:	687a      	ldr	r2, [r7, #4]
 8006410:	671a      	str	r2, [r3, #112]	@ 0x70
 8006412:	e0d3      	b.n	80065bc <HAL_TIM_RegisterCallback+0x2b0>
 8006414:	68fb      	ldr	r3, [r7, #12]
 8006416:	687a      	ldr	r2, [r7, #4]
 8006418:	675a      	str	r2, [r3, #116]	@ 0x74
 800641a:	e0cf      	b.n	80065bc <HAL_TIM_RegisterCallback+0x2b0>
 800641c:	68fb      	ldr	r3, [r7, #12]
 800641e:	687a      	ldr	r2, [r7, #4]
 8006420:	679a      	str	r2, [r3, #120]	@ 0x78
 8006422:	e0cb      	b.n	80065bc <HAL_TIM_RegisterCallback+0x2b0>
 8006424:	68fb      	ldr	r3, [r7, #12]
 8006426:	687a      	ldr	r2, [r7, #4]
 8006428:	67da      	str	r2, [r3, #124]	@ 0x7c
 800642a:	e0c7      	b.n	80065bc <HAL_TIM_RegisterCallback+0x2b0>
 800642c:	68fb      	ldr	r3, [r7, #12]
 800642e:	687a      	ldr	r2, [r7, #4]
 8006430:	f8c3 2080 	str.w	r2, [r3, #128]	@ 0x80
 8006434:	e0c2      	b.n	80065bc <HAL_TIM_RegisterCallback+0x2b0>
 8006436:	68fb      	ldr	r3, [r7, #12]
 8006438:	687a      	ldr	r2, [r7, #4]
 800643a:	f8c3 2084 	str.w	r2, [r3, #132]	@ 0x84
 800643e:	e0bd      	b.n	80065bc <HAL_TIM_RegisterCallback+0x2b0>
 8006440:	68fb      	ldr	r3, [r7, #12]
 8006442:	687a      	ldr	r2, [r7, #4]
 8006444:	f8c3 2088 	str.w	r2, [r3, #136]	@ 0x88
 8006448:	e0b8      	b.n	80065bc <HAL_TIM_RegisterCallback+0x2b0>
 800644a:	68fb      	ldr	r3, [r7, #12]
 800644c:	687a      	ldr	r2, [r7, #4]
 800644e:	f8c3 208c 	str.w	r2, [r3, #140]	@ 0x8c
 8006452:	e0b3      	b.n	80065bc <HAL_TIM_RegisterCallback+0x2b0>
 8006454:	68fb      	ldr	r3, [r7, #12]
 8006456:	687a      	ldr	r2, [r7, #4]
 8006458:	f8c3 2090 	str.w	r2, [r3, #144]	@ 0x90
 800645c:	e0ae      	b.n	80065bc <HAL_TIM_RegisterCallback+0x2b0>
 800645e:	68fb      	ldr	r3, [r7, #12]
 8006460:	687a      	ldr	r2, [r7, #4]
 8006462:	f8c3 2094 	str.w	r2, [r3, #148]	@ 0x94
 8006466:	e0a9      	b.n	80065bc <HAL_TIM_RegisterCallback+0x2b0>
 8006468:	68fb      	ldr	r3, [r7, #12]
 800646a:	687a      	ldr	r2, [r7, #4]
 800646c:	f8c3 2098 	str.w	r2, [r3, #152]	@ 0x98
 8006470:	e0a4      	b.n	80065bc <HAL_TIM_RegisterCallback+0x2b0>
 8006472:	68fb      	ldr	r3, [r7, #12]
 8006474:	687a      	ldr	r2, [r7, #4]
 8006476:	f8c3 209c 	str.w	r2, [r3, #156]	@ 0x9c
 800647a:	e09f      	b.n	80065bc <HAL_TIM_RegisterCallback+0x2b0>
 800647c:	68fb      	ldr	r3, [r7, #12]
 800647e:	687a      	ldr	r2, [r7, #4]
 8006480:	f8c3 20a0 	str.w	r2, [r3, #160]	@ 0xa0
 8006484:	e09a      	b.n	80065bc <HAL_TIM_RegisterCallback+0x2b0>
 8006486:	68fb      	ldr	r3, [r7, #12]
 8006488:	687a      	ldr	r2, [r7, #4]
 800648a:	f8c3 20a4 	str.w	r2, [r3, #164]	@ 0xa4
 800648e:	e095      	b.n	80065bc <HAL_TIM_RegisterCallback+0x2b0>
 8006490:	68fb      	ldr	r3, [r7, #12]
 8006492:	687a      	ldr	r2, [r7, #4]
 8006494:	f8c3 20a8 	str.w	r2, [r3, #168]	@ 0xa8
 8006498:	e090      	b.n	80065bc <HAL_TIM_RegisterCallback+0x2b0>
 800649a:	68fb      	ldr	r3, [r7, #12]
 800649c:	687a      	ldr	r2, [r7, #4]
 800649e:	f8c3 20ac 	str.w	r2, [r3, #172]	@ 0xac
 80064a2:	e08b      	b.n	80065bc <HAL_TIM_RegisterCallback+0x2b0>
 80064a4:	68fb      	ldr	r3, [r7, #12]
 80064a6:	687a      	ldr	r2, [r7, #4]
 80064a8:	f8c3 20b0 	str.w	r2, [r3, #176]	@ 0xb0
 80064ac:	e086      	b.n	80065bc <HAL_TIM_RegisterCallback+0x2b0>
 80064ae:	68fb      	ldr	r3, [r7, #12]
 80064b0:	687a      	ldr	r2, [r7, #4]
 80064b2:	f8c3 20b4 	str.w	r2, [r3, #180]	@ 0xb4
 80064b6:	e081      	b.n	80065bc <HAL_TIM_RegisterCallback+0x2b0>
 80064b8:	68fb      	ldr	r3, [r7, #12]
 80064ba:	687a      	ldr	r2, [r7, #4]
 80064bc:	f8c3 20b8 	str.w	r2, [r3, #184]	@ 0xb8
 80064c0:	e07c      	b.n	80065bc <HAL_TIM_RegisterCallback+0x2b0>
 80064c2:	68fb      	ldr	r3, [r7, #12]
 80064c4:	687a      	ldr	r2, [r7, #4]
 80064c6:	f8c3 20bc 	str.w	r2, [r3, #188]	@ 0xbc
 80064ca:	e077      	b.n	80065bc <HAL_TIM_RegisterCallback+0x2b0>
 80064cc:	68fb      	ldr	r3, [r7, #12]
 80064ce:	687a      	ldr	r2, [r7, #4]
 80064d0:	f8c3 20c0 	str.w	r2, [r3, #192]	@ 0xc0
 80064d4:	e072      	b.n	80065bc <HAL_TIM_RegisterCallback+0x2b0>
 80064d6:	68fb      	ldr	r3, [r7, #12]
 80064d8:	687a      	ldr	r2, [r7, #4]
 80064da:	f8c3 20c4 	str.w	r2, [r3, #196]	@ 0xc4
 80064de:	e06d      	b.n	80065bc <HAL_TIM_RegisterCallback+0x2b0>
 80064e0:	68fb      	ldr	r3, [r7, #12]
 80064e2:	687a      	ldr	r2, [r7, #4]
 80064e4:	f8c3 20c8 	str.w	r2, [r3, #200]	@ 0xc8
 80064e8:	e068      	b.n	80065bc <HAL_TIM_RegisterCallback+0x2b0>
 80064ea:	2301      	movs	r3, #1
 80064ec:	75fb      	strb	r3, [r7, #23]
 80064ee:	e065      	b.n	80065bc <HAL_TIM_RegisterCallback+0x2b0>
 80064f0:	68fb      	ldr	r3, [r7, #12]
 80064f2:	f893 303d 	ldrb.w	r3, [r3, #61]	@ 0x3d
 80064f6:	b2db      	uxtb	r3, r3
 80064f8:	2b00      	cmp	r3, #0
 80064fa:	d15d      	bne.n	80065b8 <HAL_TIM_RegisterCallback+0x2ac>
 80064fc:	7afb      	ldrb	r3, [r7, #11]
 80064fe:	2b0d      	cmp	r3, #13
 8006500:	d857      	bhi.n	80065b2 <HAL_TIM_RegisterCallback+0x2a6>
 8006502:	a201      	add	r2, pc, #4	@ (adr r2, 8006508 <HAL_TIM_RegisterCallback+0x1fc>)
 8006504:	f852 f023 	ldr.w	pc, [r2, r3, lsl #2]
 8006508:	08006541 	.word	0x08006541
 800650c:	08006549 	.word	0x08006549
 8006510:	08006551 	.word	0x08006551
 8006514:	08006559 	.word	0x08006559
 8006518:	08006561 	.word	0x08006561
 800651c:	08006569 	.word	0x08006569
 8006520:	08006571 	.word	0x08006571
 8006524:	08006579 	.word	0x08006579
 8006528:	08006581 	.word	0x08006581
 800652c:	08006589 	.word	0x08006589
 8006530:	08006591 	.word	0x08006591
 8006534:	08006599 	.word	0x08006599
 8006538:	080065a1 	.word	0x080065a1
 800653c:	080065a9 	.word	0x080065a9
 8006540:	68fb      	ldr	r3, [r7, #12]
 8006542:	687a      	ldr	r2, [r7, #4]
 8006544:	64da      	str	r2, [r3, #76]	@ 0x4c
 8006546:	e039      	b.n	80065bc <HAL_TIM_RegisterCallback+0x2b0>
 8006548:	68fb      	ldr	r3, [r7, #12]
 800654a:	687a      	ldr	r2, [r7, #4]
 800654c:	651a      	str	r2, [r3, #80]	@ 0x50
 800654e:	e035      	b.n	80065bc <HAL_TIM_RegisterCallback+0x2b0>
 8006550:	68fb      	ldr	r3, [r7, #12]
 8006552:	687a      	ldr	r2, [r7, #4]
 8006554:	655a      	str	r2, [r3, #84]	@ 0x54
 8006556:	e031      	b.n	80065bc <HAL_TIM_RegisterCallback+0x2b0>
 8006558:	68fb      	ldr	r3, [r7, #12]
 800655a:	687a      	ldr	r2, [r7, #4]
 800655c:	659a      	str	r2, [r3, #88]	@ 0x58
 800655e:	e02d      	b.n	80065bc <HAL_TIM_RegisterCallback+0x2b0>
 8006560:	68fb      	ldr	r3, [r7, #12]
 8006562:	687a      	ldr	r2, [r7, #4]
 8006564:	65da      	str	r2, [r3, #92]	@ 0x5c
 8006566:	e029      	b.n	80065bc <HAL_TIM_RegisterCallback+0x2b0>
 8006568:	68fb      	ldr	r3, [r7, #12]
 800656a:	687a      	ldr	r2, [r7, #4]
 800656c:	661a      	str	r2, [r3, #96]	@ 0x60
 800656e:	e025      	b.n	80065bc <HAL_TIM_RegisterCallback+0x2b0>
 8006570:	68fb      	ldr	r3, [r7, #12]
 8006572:	687a      	ldr	r2, [r7, #4]
 8006574:	665a      	str	r2, [r3, #100]	@ 0x64
 8006576:	e021      	b.n	80065bc <HAL_TIM_RegisterCallback+0x2b0>
 8006578:	68fb      	ldr	r3, [r7, #12]
 800657a:	687a      	ldr	r2, [r7, #4]
 800657c:	669a      	str	r2, [r3, #104]	@ 0x68
 800657e:	e01d      	b.n	80065bc <HAL_TIM_RegisterCallback+0x2b0>
 8006580:	68fb      	ldr	r3, [r7, #12]
 8006582:	687a      	ldr	r2, [r7, #4]
 8006584:	66da      	str	r2, [r3, #108]	@ 0x6c
 8006586:	e019      	b.n	80065bc <HAL_TIM_RegisterCallback+0x2b0>
 8006588:	68fb      	ldr	r3, [r7, #12]
 800658a:	687a      	ldr	r2, [r7, #4]
 800658c:	671a      	str	r2, [r3, #112]	@ 0x70
 800658e:	e015      	b.n	80065bc <HAL_TIM_RegisterCallback+0x2b0>
 8006590:	68fb      	ldr	r3, [r7, #12]
 8006592:	687a      	ldr	r2, [r7, #4]
 8006594:	675a      	str	r2, [r3, #116]	@ 0x74
 8006596:	e011      	b.n	80065bc <HAL_TIM_RegisterCallback+0x2b0>
 8006598:	68fb      	ldr	r3, [r7, #12]
 800659a:	687a      	ldr	r2, [r7, #4]
 800659c:	679a      	str	r2, [r3, #120]	@ 0x78
 800659e:	e00d      	b.n	80065bc <HAL_TIM_RegisterCallback+0x2b0>
 80065a0:	68fb      	ldr	r3, [r7, #12]
 80065a2:	687a      	ldr	r2, [r7, #4]
 80065a4:	67da      	str	r2, [r3, #124]	@ 0x7c
 80065a6:	e009      	b.n	80065bc <HAL_TIM_RegisterCallback+0x2b0>
 80065a8:	68fb      	ldr	r3, [r7, #12]
 80065aa:	687a      	ldr	r2, [r7, #4]
 80065ac:	f8c3 2080 	str.w	r2, [r3, #128]	@ 0x80
 80065b0:	e004      	b.n	80065bc <HAL_TIM_RegisterCallback+0x2b0>
 80065b2:	2301      	movs	r3, #1
 80065b4:	75fb      	strb	r3, [r7, #23]
 80065b6:	e001      	b.n	80065bc <HAL_TIM_RegisterCallback+0x2b0>
 80065b8:	2301      	movs	r3, #1
 80065ba:	75fb      	strb	r3, [r7, #23]
 80065bc:	7dfb      	ldrb	r3, [r7, #23]
 80065be:	4618      	mov	r0, r3
 80065c0:	371c      	adds	r7, #28
 80065c2:	46bd      	mov	sp, r7
 80065c4:	f85d 7b04 	ldr.w	r7, [sp], #4
 80065c8:	4770      	bx	lr
 80065ca:	bf00      	nop

080065cc <TIM_Base_SetConfig>:
 80065cc:	b480      	push	{r7}
 80065ce:	b085      	sub	sp, #20
 80065d0:	af00      	add	r7, sp, #0
 80065d2:	6078      	str	r0, [r7, #4]
 80065d4:	6039      	str	r1, [r7, #0]
 80065d6:	687b      	ldr	r3, [r7, #4]
 80065d8:	681b      	ldr	r3, [r3, #0]
 80065da:	60fb      	str	r3, [r7, #12]
 80065dc:	687b      	ldr	r3, [r7, #4]
 80065de:	4a4c      	ldr	r2, [pc, #304]	@ (8006710 <TIM_Base_SetConfig+0x144>)
 80065e0:	4293      	cmp	r3, r2
 80065e2:	d017      	beq.n	8006614 <TIM_Base_SetConfig+0x48>
 80065e4:	687b      	ldr	r3, [r7, #4]
 80065e6:	f1b3 4f80 	cmp.w	r3, #1073741824	@ 0x40000000
 80065ea:	d013      	beq.n	8006614 <TIM_Base_SetConfig+0x48>
 80065ec:	687b      	ldr	r3, [r7, #4]
 80065ee:	4a49      	ldr	r2, [pc, #292]	@ (8006714 <TIM_Base_SetConfig+0x148>)
 80065f0:	4293      	cmp	r3, r2
 80065f2:	d00f      	beq.n	8006614 <TIM_Base_SetConfig+0x48>
 80065f4:	687b      	ldr	r3, [r7, #4]
 80065f6:	4a48      	ldr	r2, [pc, #288]	@ (8006718 <TIM_Base_SetConfig+0x14c>)
 80065f8:	4293      	cmp	r3, r2
 80065fa:	d00b      	beq.n	8006614 <TIM_Base_SetConfig+0x48>
 80065fc:	687b      	ldr	r3, [r7, #4]
 80065fe:	4a47      	ldr	r2, [pc, #284]	@ (800671c <TIM_Base_SetConfig+0x150>)
 8006600:	4293      	cmp	r3, r2
 8006602:	d007      	beq.n	8006614 <TIM_Base_SetConfig+0x48>
 8006604:	687b      	ldr	r3, [r7, #4]
 8006606:	4a46      	ldr	r2, [pc, #280]	@ (8006720 <TIM_Base_SetConfig+0x154>)
 8006608:	4293      	cmp	r3, r2
 800660a:	d003      	beq.n	8006614 <TIM_Base_SetConfig+0x48>
 800660c:	687b      	ldr	r3, [r7, #4]
 800660e:	4a45      	ldr	r2, [pc, #276]	@ (8006724 <TIM_Base_SetConfig+0x158>)
 8006610:	4293      	cmp	r3, r2
 8006612:	d108      	bne.n	8006626 <TIM_Base_SetConfig+0x5a>
 8006614:	68fb      	ldr	r3, [r7, #12]
 8006616:	f023 0370 	bic.w	r3, r3, #112	@ 0x70
 800661a:	60fb      	str	r3, [r7, #12]
 800661c:	683b      	ldr	r3, [r7, #0]
 800661e:	685b      	ldr	r3, [r3, #4]
 8006620:	68fa      	ldr	r2, [r7, #12]
 8006622:	4313      	orrs	r3, r2
 8006624:	60fb      	str	r3, [r7, #12]
 8006626:	687b      	ldr	r3, [r7, #4]
 8006628:	4a39      	ldr	r2, [pc, #228]	@ (8006710 <TIM_Base_SetConfig+0x144>)
 800662a:	4293      	cmp	r3, r2
 800662c:	d023      	beq.n	8006676 <TIM_Base_SetConfig+0xaa>
 800662e:	687b      	ldr	r3, [r7, #4]
 8006630:	f1b3 4f80 	cmp.w	r3, #1073741824	@ 0x40000000
 8006634:	d01f      	beq.n	8006676 <TIM_Base_SetConfig+0xaa>
 8006636:	687b      	ldr	r3, [r7, #4]
 8006638:	4a36      	ldr	r2, [pc, #216]	@ (8006714 <TIM_Base_SetConfig+0x148>)
 800663a:	4293      	cmp	r3, r2
 800663c:	d01b      	beq.n	8006676 <TIM_Base_SetConfig+0xaa>
 800663e:	687b      	ldr	r3, [r7, #4]
 8006640:	4a35      	ldr	r2, [pc, #212]	@ (8006718 <TIM_Base_SetConfig+0x14c>)
 8006642:	4293      	cmp	r3, r2
 8006644:	d017      	beq.n	8006676 <TIM_Base_SetConfig+0xaa>
 8006646:	687b      	ldr	r3, [r7, #4]
 8006648:	4a34      	ldr	r2, [pc, #208]	@ (800671c <TIM_Base_SetConfig+0x150>)
 800664a:	4293      	cmp	r3, r2
 800664c:	d013      	beq.n	8006676 <TIM_Base_SetConfig+0xaa>
 800664e:	687b      	ldr	r3, [r7, #4]
 8006650:	4a33      	ldr	r2, [pc, #204]	@ (8006720 <TIM_Base_SetConfig+0x154>)
 8006652:	4293      	cmp	r3, r2
 8006654:	d00f      	beq.n	8006676 <TIM_Base_SetConfig+0xaa>
 8006656:	687b      	ldr	r3, [r7, #4]
 8006658:	4a33      	ldr	r2, [pc, #204]	@ (8006728 <TIM_Base_SetConfig+0x15c>)
 800665a:	4293      	cmp	r3, r2
 800665c:	d00b      	beq.n	8006676 <TIM_Base_SetConfig+0xaa>
 800665e:	687b      	ldr	r3, [r7, #4]
 8006660:	4a32      	ldr	r2, [pc, #200]	@ (800672c <TIM_Base_SetConfig+0x160>)
 8006662:	4293      	cmp	r3, r2
 8006664:	d007      	beq.n	8006676 <TIM_Base_SetConfig+0xaa>
 8006666:	687b      	ldr	r3, [r7, #4]
 8006668:	4a31      	ldr	r2, [pc, #196]	@ (8006730 <TIM_Base_SetConfig+0x164>)
 800666a:	4293      	cmp	r3, r2
 800666c:	d003      	beq.n	8006676 <TIM_Base_SetConfig+0xaa>
 800666e:	687b      	ldr	r3, [r7, #4]
 8006670:	4a2c      	ldr	r2, [pc, #176]	@ (8006724 <TIM_Base_SetConfig+0x158>)
 8006672:	4293      	cmp	r3, r2
 8006674:	d108      	bne.n	8006688 <TIM_Base_SetConfig+0xbc>
 8006676:	68fb      	ldr	r3, [r7, #12]
 8006678:	f423 7340 	bic.w	r3, r3, #768	@ 0x300
 800667c:	60fb      	str	r3, [r7, #12]
 800667e:	683b      	ldr	r3, [r7, #0]
 8006680:	68db      	ldr	r3, [r3, #12]
 8006682:	68fa      	ldr	r2, [r7, #12]
 8006684:	4313      	orrs	r3, r2
 8006686:	60fb      	str	r3, [r7, #12]
 8006688:	68fb      	ldr	r3, [r7, #12]
 800668a:	f023 0280 	bic.w	r2, r3, #128	@ 0x80
 800668e:	683b      	ldr	r3, [r7, #0]
 8006690:	695b      	ldr	r3, [r3, #20]
 8006692:	4313      	orrs	r3, r2
 8006694:	60fb      	str	r3, [r7, #12]
 8006696:	687b      	ldr	r3, [r7, #4]
 8006698:	68fa      	ldr	r2, [r7, #12]
 800669a:	601a      	str	r2, [r3, #0]
 800669c:	683b      	ldr	r3, [r7, #0]
 800669e:	689a      	ldr	r2, [r3, #8]
 80066a0:	687b      	ldr	r3, [r7, #4]
 80066a2:	62da      	str	r2, [r3, #44]	@ 0x2c
 80066a4:	683b      	ldr	r3, [r7, #0]
 80066a6:	681a      	ldr	r2, [r3, #0]
 80066a8:	687b      	ldr	r3, [r7, #4]
 80066aa:	629a      	str	r2, [r3, #40]	@ 0x28
 80066ac:	687b      	ldr	r3, [r7, #4]
 80066ae:	4a18      	ldr	r2, [pc, #96]	@ (8006710 <TIM_Base_SetConfig+0x144>)
 80066b0:	4293      	cmp	r3, r2
 80066b2:	d013      	beq.n	80066dc <TIM_Base_SetConfig+0x110>
 80066b4:	687b      	ldr	r3, [r7, #4]
 80066b6:	4a1a      	ldr	r2, [pc, #104]	@ (8006720 <TIM_Base_SetConfig+0x154>)
 80066b8:	4293      	cmp	r3, r2
 80066ba:	d00f      	beq.n	80066dc <TIM_Base_SetConfig+0x110>
 80066bc:	687b      	ldr	r3, [r7, #4]
 80066be:	4a1a      	ldr	r2, [pc, #104]	@ (8006728 <TIM_Base_SetConfig+0x15c>)
 80066c0:	4293      	cmp	r3, r2
 80066c2:	d00b      	beq.n	80066dc <TIM_Base_SetConfig+0x110>
 80066c4:	687b      	ldr	r3, [r7, #4]
 80066c6:	4a19      	ldr	r2, [pc, #100]	@ (800672c <TIM_Base_SetConfig+0x160>)
 80066c8:	4293      	cmp	r3, r2
 80066ca:	d007      	beq.n	80066dc <TIM_Base_SetConfig+0x110>
 80066cc:	687b      	ldr	r3, [r7, #4]
 80066ce:	4a18      	ldr	r2, [pc, #96]	@ (8006730 <TIM_Base_SetConfig+0x164>)
 80066d0:	4293      	cmp	r3, r2
 80066d2:	d003      	beq.n	80066dc <TIM_Base_SetConfig+0x110>
 80066d4:	687b      	ldr	r3, [r7, #4]
 80066d6:	4a13      	ldr	r2, [pc, #76]	@ (8006724 <TIM_Base_SetConfig+0x158>)
 80066d8:	4293      	cmp	r3, r2
 80066da:	d103      	bne.n	80066e4 <TIM_Base_SetConfig+0x118>
 80066dc:	683b      	ldr	r3, [r7, #0]
 80066de:	691a      	ldr	r2, [r3, #16]
 80066e0:	687b      	ldr	r3, [r7, #4]
 80066e2:	631a      	str	r2, [r3, #48]	@ 0x30
 80066e4:	687b      	ldr	r3, [r7, #4]
 80066e6:	2201      	movs	r2, #1
 80066e8:	615a      	str	r2, [r3, #20]
 80066ea:	687b      	ldr	r3, [r7, #4]
 80066ec:	691b      	ldr	r3, [r3, #16]
 80066ee:	f003 0301 	and.w	r3, r3, #1
 80066f2:	2b01      	cmp	r3, #1
 80066f4:	d105      	bne.n	8006702 <TIM_Base_SetConfig+0x136>
 80066f6:	687b      	ldr	r3, [r7, #4]
 80066f8:	691b      	ldr	r3, [r3, #16]
 80066fa:	f023 0201 	bic.w	r2, r3, #1
 80066fe:	687b      	ldr	r3, [r7, #4]
 8006700:	611a      	str	r2, [r3, #16]
 8006702:	bf00      	nop
 8006704:	3714      	adds	r7, #20
 8006706:	46bd      	mov	sp, r7
 8006708:	f85d 7b04 	ldr.w	r7, [sp], #4
 800670c:	4770      	bx	lr
 800670e:	bf00      	nop
 8006710:	40012c00 	.word	0x40012c00
 8006714:	40000400 	.word	0x40000400
 8006718:	40000800 	.word	0x40000800
 800671c:	40000c00 	.word	0x40000c00
 8006720:	40013400 	.word	0x40013400
 8006724:	40015000 	.word	0x40015000
 8006728:	40014000 	.word	0x40014000
 800672c:	40014400 	.word	0x40014400
 8006730:	40014800 	.word	0x40014800

08006734 <TIM_OC1_SetConfig>:
 8006734:	b480      	push	{r7}
 8006736:	b087      	sub	sp, #28
 8006738:	af00      	add	r7, sp, #0
 800673a:	6078      	str	r0, [r7, #4]
 800673c:	6039      	str	r1, [r7, #0]
 800673e:	687b      	ldr	r3, [r7, #4]
 8006740:	6a1b      	ldr	r3, [r3, #32]
 8006742:	617b      	str	r3, [r7, #20]
 8006744:	687b      	ldr	r3, [r7, #4]
 8006746:	6a1b      	ldr	r3, [r3, #32]
 8006748:	f023 0201 	bic.w	r2, r3, #1
 800674c:	687b      	ldr	r3, [r7, #4]
 800674e:	621a      	str	r2, [r3, #32]
 8006750:	687b      	ldr	r3, [r7, #4]
 8006752:	685b      	ldr	r3, [r3, #4]
 8006754:	613b      	str	r3, [r7, #16]
 8006756:	687b      	ldr	r3, [r7, #4]
 8006758:	699b      	ldr	r3, [r3, #24]
 800675a:	60fb      	str	r3, [r7, #12]
 800675c:	68fb      	ldr	r3, [r7, #12]
 800675e:	f423 3380 	bic.w	r3, r3, #65536	@ 0x10000
 8006762:	f023 0370 	bic.w	r3, r3, #112	@ 0x70
 8006766:	60fb      	str	r3, [r7, #12]
 8006768:	68fb      	ldr	r3, [r7, #12]
 800676a:	f023 0303 	bic.w	r3, r3, #3
 800676e:	60fb      	str	r3, [r7, #12]
 8006770:	683b      	ldr	r3, [r7, #0]
 8006772:	681b      	ldr	r3, [r3, #0]
 8006774:	68fa      	ldr	r2, [r7, #12]
 8006776:	4313      	orrs	r3, r2
 8006778:	60fb      	str	r3, [r7, #12]
 800677a:	697b      	ldr	r3, [r7, #20]
 800677c:	f023 0302 	bic.w	r3, r3, #2
 8006780:	617b      	str	r3, [r7, #20]
 8006782:	683b      	ldr	r3, [r7, #0]
 8006784:	689b      	ldr	r3, [r3, #8]
 8006786:	697a      	ldr	r2, [r7, #20]
 8006788:	4313      	orrs	r3, r2
 800678a:	617b      	str	r3, [r7, #20]
 800678c:	687b      	ldr	r3, [r7, #4]
 800678e:	4a30      	ldr	r2, [pc, #192]	@ (8006850 <TIM_OC1_SetConfig+0x11c>)
 8006790:	4293      	cmp	r3, r2
 8006792:	d013      	beq.n	80067bc <TIM_OC1_SetConfig+0x88>
 8006794:	687b      	ldr	r3, [r7, #4]
 8006796:	4a2f      	ldr	r2, [pc, #188]	@ (8006854 <TIM_OC1_SetConfig+0x120>)
 8006798:	4293      	cmp	r3, r2
 800679a:	d00f      	beq.n	80067bc <TIM_OC1_SetConfig+0x88>
 800679c:	687b      	ldr	r3, [r7, #4]
 800679e:	4a2e      	ldr	r2, [pc, #184]	@ (8006858 <TIM_OC1_SetConfig+0x124>)
 80067a0:	4293      	cmp	r3, r2
 80067a2:	d00b      	beq.n	80067bc <TIM_OC1_SetConfig+0x88>
 80067a4:	687b      	ldr	r3, [r7, #4]
 80067a6:	4a2d      	ldr	r2, [pc, #180]	@ (800685c <TIM_OC1_SetConfig+0x128>)
 80067a8:	4293      	cmp	r3, r2
 80067aa:	d007      	beq.n	80067bc <TIM_OC1_SetConfig+0x88>
 80067ac:	687b      	ldr	r3, [r7, #4]
 80067ae:	4a2c      	ldr	r2, [pc, #176]	@ (8006860 <TIM_OC1_SetConfig+0x12c>)
 80067b0:	4293      	cmp	r3, r2
 80067b2:	d003      	beq.n	80067bc <TIM_OC1_SetConfig+0x88>
 80067b4:	687b      	ldr	r3, [r7, #4]
 80067b6:	4a2b      	ldr	r2, [pc, #172]	@ (8006864 <TIM_OC1_SetConfig+0x130>)
 80067b8:	4293      	cmp	r3, r2
 80067ba:	d10c      	bne.n	80067d6 <TIM_OC1_SetConfig+0xa2>
 80067bc:	697b      	ldr	r3, [r7, #20]
 80067be:	f023 0308 	bic.w	r3, r3, #8
 80067c2:	617b      	str	r3, [r7, #20]
 80067c4:	683b      	ldr	r3, [r7, #0]
 80067c6:	68db      	ldr	r3, [r3, #12]
 80067c8:	697a      	ldr	r2, [r7, #20]
 80067ca:	4313      	orrs	r3, r2
 80067cc:	617b      	str	r3, [r7, #20]
 80067ce:	697b      	ldr	r3, [r7, #20]
 80067d0:	f023 0304 	bic.w	r3, r3, #4
 80067d4:	617b      	str	r3, [r7, #20]
 80067d6:	687b      	ldr	r3, [r7, #4]
 80067d8:	4a1d      	ldr	r2, [pc, #116]	@ (8006850 <TIM_OC1_SetConfig+0x11c>)
 80067da:	4293      	cmp	r3, r2
 80067dc:	d013      	beq.n	8006806 <TIM_OC1_SetConfig+0xd2>
 80067de:	687b      	ldr	r3, [r7, #4]
 80067e0:	4a1c      	ldr	r2, [pc, #112]	@ (8006854 <TIM_OC1_SetConfig+0x120>)
 80067e2:	4293      	cmp	r3, r2
 80067e4:	d00f      	beq.n	8006806 <TIM_OC1_SetConfig+0xd2>
 80067e6:	687b      	ldr	r3, [r7, #4]
 80067e8:	4a1b      	ldr	r2, [pc, #108]	@ (8006858 <TIM_OC1_SetConfig+0x124>)
 80067ea:	4293      	cmp	r3, r2
 80067ec:	d00b      	beq.n	8006806 <TIM_OC1_SetConfig+0xd2>
 80067ee:	687b      	ldr	r3, [r7, #4]
 80067f0:	4a1a      	ldr	r2, [pc, #104]	@ (800685c <TIM_OC1_SetConfig+0x128>)
 80067f2:	4293      	cmp	r3, r2
 80067f4:	d007      	beq.n	8006806 <TIM_OC1_SetConfig+0xd2>
 80067f6:	687b      	ldr	r3, [r7, #4]
 80067f8:	4a19      	ldr	r2, [pc, #100]	@ (8006860 <TIM_OC1_SetConfig+0x12c>)
 80067fa:	4293      	cmp	r3, r2
 80067fc:	d003      	beq.n	8006806 <TIM_OC1_SetConfig+0xd2>
 80067fe:	687b      	ldr	r3, [r7, #4]
 8006800:	4a18      	ldr	r2, [pc, #96]	@ (8006864 <TIM_OC1_SetConfig+0x130>)
 8006802:	4293      	cmp	r3, r2
 8006804:	d111      	bne.n	800682a <TIM_OC1_SetConfig+0xf6>
 8006806:	693b      	ldr	r3, [r7, #16]
 8006808:	f423 7380 	bic.w	r3, r3, #256	@ 0x100
 800680c:	613b      	str	r3, [r7, #16]
 800680e:	693b      	ldr	r3, [r7, #16]
 8006810:	f423 7300 	bic.w	r3, r3, #512	@ 0x200
 8006814:	613b      	str	r3, [r7, #16]
 8006816:	683b      	ldr	r3, [r7, #0]
 8006818:	695b      	ldr	r3, [r3, #20]
 800681a:	693a      	ldr	r2, [r7, #16]
 800681c:	4313      	orrs	r3, r2
 800681e:	613b      	str	r3, [r7, #16]
 8006820:	683b      	ldr	r3, [r7, #0]
 8006822:	699b      	ldr	r3, [r3, #24]
 8006824:	693a      	ldr	r2, [r7, #16]
 8006826:	4313      	orrs	r3, r2
 8006828:	613b      	str	r3, [r7, #16]
 800682a:	687b      	ldr	r3, [r7, #4]
 800682c:	693a      	ldr	r2, [r7, #16]
 800682e:	605a      	str	r2, [r3, #4]
 8006830:	687b      	ldr	r3, [r7, #4]
 8006832:	68fa      	ldr	r2, [r7, #12]
 8006834:	619a      	str	r2, [r3, #24]
 8006836:	683b      	ldr	r3, [r7, #0]
 8006838:	685a      	ldr	r2, [r3, #4]
 800683a:	687b      	ldr	r3, [r7, #4]
 800683c:	635a      	str	r2, [r3, #52]	@ 0x34
 800683e:	687b      	ldr	r3, [r7, #4]
 8006840:	697a      	ldr	r2, [r7, #20]
 8006842:	621a      	str	r2, [r3, #32]
 8006844:	bf00      	nop
 8006846:	371c      	adds	r7, #28
 8006848:	46bd      	mov	sp, r7
 800684a:	f85d 7b04 	ldr.w	r7, [sp], #4
 800684e:	4770      	bx	lr
 8006850:	40012c00 	.word	0x40012c00
 8006854:	40013400 	.word	0x40013400
 8006858:	40014000 	.word	0x40014000
 800685c:	40014400 	.word	0x40014400
 8006860:	40014800 	.word	0x40014800
 8006864:	40015000 	.word	0x40015000

08006868 <TIM_OC2_SetConfig>:
 8006868:	b480      	push	{r7}
 800686a:	b087      	sub	sp, #28
 800686c:	af00      	add	r7, sp, #0
 800686e:	6078      	str	r0, [r7, #4]
 8006870:	6039      	str	r1, [r7, #0]
 8006872:	687b      	ldr	r3, [r7, #4]
 8006874:	6a1b      	ldr	r3, [r3, #32]
 8006876:	617b      	str	r3, [r7, #20]
 8006878:	687b      	ldr	r3, [r7, #4]
 800687a:	6a1b      	ldr	r3, [r3, #32]
 800687c:	f023 0210 	bic.w	r2, r3, #16
 8006880:	687b      	ldr	r3, [r7, #4]
 8006882:	621a      	str	r2, [r3, #32]
 8006884:	687b      	ldr	r3, [r7, #4]
 8006886:	685b      	ldr	r3, [r3, #4]
 8006888:	613b      	str	r3, [r7, #16]
 800688a:	687b      	ldr	r3, [r7, #4]
 800688c:	699b      	ldr	r3, [r3, #24]
 800688e:	60fb      	str	r3, [r7, #12]
 8006890:	68fb      	ldr	r3, [r7, #12]
 8006892:	f023 7380 	bic.w	r3, r3, #16777216	@ 0x1000000
 8006896:	f423 43e0 	bic.w	r3, r3, #28672	@ 0x7000
 800689a:	60fb      	str	r3, [r7, #12]
 800689c:	68fb      	ldr	r3, [r7, #12]
 800689e:	f423 7340 	bic.w	r3, r3, #768	@ 0x300
 80068a2:	60fb      	str	r3, [r7, #12]
 80068a4:	683b      	ldr	r3, [r7, #0]
 80068a6:	681b      	ldr	r3, [r3, #0]
 80068a8:	021b      	lsls	r3, r3, #8
 80068aa:	68fa      	ldr	r2, [r7, #12]
 80068ac:	4313      	orrs	r3, r2
 80068ae:	60fb      	str	r3, [r7, #12]
 80068b0:	697b      	ldr	r3, [r7, #20]
 80068b2:	f023 0320 	bic.w	r3, r3, #32
 80068b6:	617b      	str	r3, [r7, #20]
 80068b8:	683b      	ldr	r3, [r7, #0]
 80068ba:	689b      	ldr	r3, [r3, #8]
 80068bc:	011b      	lsls	r3, r3, #4
 80068be:	697a      	ldr	r2, [r7, #20]
 80068c0:	4313      	orrs	r3, r2
 80068c2:	617b      	str	r3, [r7, #20]
 80068c4:	687b      	ldr	r3, [r7, #4]
 80068c6:	4a2c      	ldr	r2, [pc, #176]	@ (8006978 <TIM_OC2_SetConfig+0x110>)
 80068c8:	4293      	cmp	r3, r2
 80068ca:	d007      	beq.n	80068dc <TIM_OC2_SetConfig+0x74>
 80068cc:	687b      	ldr	r3, [r7, #4]
 80068ce:	4a2b      	ldr	r2, [pc, #172]	@ (800697c <TIM_OC2_SetConfig+0x114>)
 80068d0:	4293      	cmp	r3, r2
 80068d2:	d003      	beq.n	80068dc <TIM_OC2_SetConfig+0x74>
 80068d4:	687b      	ldr	r3, [r7, #4]
 80068d6:	4a2a      	ldr	r2, [pc, #168]	@ (8006980 <TIM_OC2_SetConfig+0x118>)
 80068d8:	4293      	cmp	r3, r2
 80068da:	d10d      	bne.n	80068f8 <TIM_OC2_SetConfig+0x90>
 80068dc:	697b      	ldr	r3, [r7, #20]
 80068de:	f023 0380 	bic.w	r3, r3, #128	@ 0x80
 80068e2:	617b      	str	r3, [r7, #20]
 80068e4:	683b      	ldr	r3, [r7, #0]
 80068e6:	68db      	ldr	r3, [r3, #12]
 80068e8:	011b      	lsls	r3, r3, #4
 80068ea:	697a      	ldr	r2, [r7, #20]
 80068ec:	4313      	orrs	r3, r2
 80068ee:	617b      	str	r3, [r7, #20]
 80068f0:	697b      	ldr	r3, [r7, #20]
 80068f2:	f023 0340 	bic.w	r3, r3, #64	@ 0x40
 80068f6:	617b      	str	r3, [r7, #20]
 80068f8:	687b      	ldr	r3, [r7, #4]
 80068fa:	4a1f      	ldr	r2, [pc, #124]	@ (8006978 <TIM_OC2_SetConfig+0x110>)
 80068fc:	4293      	cmp	r3, r2
 80068fe:	d013      	beq.n	8006928 <TIM_OC2_SetConfig+0xc0>
 8006900:	687b      	ldr	r3, [r7, #4]
 8006902:	4a1e      	ldr	r2, [pc, #120]	@ (800697c <TIM_OC2_SetConfig+0x114>)
 8006904:	4293      	cmp	r3, r2
 8006906:	d00f      	beq.n	8006928 <TIM_OC2_SetConfig+0xc0>
 8006908:	687b      	ldr	r3, [r7, #4]
 800690a:	4a1e      	ldr	r2, [pc, #120]	@ (8006984 <TIM_OC2_SetConfig+0x11c>)
 800690c:	4293      	cmp	r3, r2
 800690e:	d00b      	beq.n	8006928 <TIM_OC2_SetConfig+0xc0>
 8006910:	687b      	ldr	r3, [r7, #4]
 8006912:	4a1d      	ldr	r2, [pc, #116]	@ (8006988 <TIM_OC2_SetConfig+0x120>)
 8006914:	4293      	cmp	r3, r2
 8006916:	d007      	beq.n	8006928 <TIM_OC2_SetConfig+0xc0>
 8006918:	687b      	ldr	r3, [r7, #4]
 800691a:	4a1c      	ldr	r2, [pc, #112]	@ (800698c <TIM_OC2_SetConfig+0x124>)
 800691c:	4293      	cmp	r3, r2
 800691e:	d003      	beq.n	8006928 <TIM_OC2_SetConfig+0xc0>
 8006920:	687b      	ldr	r3, [r7, #4]
 8006922:	4a17      	ldr	r2, [pc, #92]	@ (8006980 <TIM_OC2_SetConfig+0x118>)
 8006924:	4293      	cmp	r3, r2
 8006926:	d113      	bne.n	8006950 <TIM_OC2_SetConfig+0xe8>
 8006928:	693b      	ldr	r3, [r7, #16]
 800692a:	f423 6380 	bic.w	r3, r3, #1024	@ 0x400
 800692e:	613b      	str	r3, [r7, #16]
 8006930:	693b      	ldr	r3, [r7, #16]
 8006932:	f423 6300 	bic.w	r3, r3, #2048	@ 0x800
 8006936:	613b      	str	r3, [r7, #16]
 8006938:	683b      	ldr	r3, [r7, #0]
 800693a:	695b      	ldr	r3, [r3, #20]
 800693c:	009b      	lsls	r3, r3, #2
 800693e:	693a      	ldr	r2, [r7, #16]
 8006940:	4313      	orrs	r3, r2
 8006942:	613b      	str	r3, [r7, #16]
 8006944:	683b      	ldr	r3, [r7, #0]
 8006946:	699b      	ldr	r3, [r3, #24]
 8006948:	009b      	lsls	r3, r3, #2
 800694a:	693a      	ldr	r2, [r7, #16]
 800694c:	4313      	orrs	r3, r2
 800694e:	613b      	str	r3, [r7, #16]
 8006950:	687b      	ldr	r3, [r7, #4]
 8006952:	693a      	ldr	r2, [r7, #16]
 8006954:	605a      	str	r2, [r3, #4]
 8006956:	687b      	ldr	r3, [r7, #4]
 8006958:	68fa      	ldr	r2, [r7, #12]
 800695a:	619a      	str	r2, [r3, #24]
 800695c:	683b      	ldr	r3, [r7, #0]
 800695e:	685a      	ldr	r2, [r3, #4]
 8006960:	687b      	ldr	r3, [r7, #4]
 8006962:	639a      	str	r2, [r3, #56]	@ 0x38
 8006964:	687b      	ldr	r3, [r7, #4]
 8006966:	697a      	ldr	r2, [r7, #20]
 8006968:	621a      	str	r2, [r3, #32]
 800696a:	bf00      	nop
 800696c:	371c      	adds	r7, #28
 800696e:	46bd      	mov	sp, r7
 8006970:	f85d 7b04 	ldr.w	r7, [sp], #4
 8006974:	4770      	bx	lr
 8006976:	bf00      	nop
 8006978:	40012c00 	.word	0x40012c00
 800697c:	40013400 	.word	0x40013400
 8006980:	40015000 	.word	0x40015000
 8006984:	40014000 	.word	0x40014000
 8006988:	40014400 	.word	0x40014400
 800698c:	40014800 	.word	0x40014800

08006990 <TIM_OC3_SetConfig>:
 8006990:	b480      	push	{r7}
 8006992:	b087      	sub	sp, #28
 8006994:	af00      	add	r7, sp, #0
 8006996:	6078      	str	r0, [r7, #4]
 8006998:	6039      	str	r1, [r7, #0]
 800699a:	687b      	ldr	r3, [r7, #4]
 800699c:	6a1b      	ldr	r3, [r3, #32]
 800699e:	617b      	str	r3, [r7, #20]
 80069a0:	687b      	ldr	r3, [r7, #4]
 80069a2:	6a1b      	ldr	r3, [r3, #32]
 80069a4:	f423 7280 	bic.w	r2, r3, #256	@ 0x100
 80069a8:	687b      	ldr	r3, [r7, #4]
 80069aa:	621a      	str	r2, [r3, #32]
 80069ac:	687b      	ldr	r3, [r7, #4]
 80069ae:	685b      	ldr	r3, [r3, #4]
 80069b0:	613b      	str	r3, [r7, #16]
 80069b2:	687b      	ldr	r3, [r7, #4]
 80069b4:	69db      	ldr	r3, [r3, #28]
 80069b6:	60fb      	str	r3, [r7, #12]
 80069b8:	68fb      	ldr	r3, [r7, #12]
 80069ba:	f423 3380 	bic.w	r3, r3, #65536	@ 0x10000
 80069be:	f023 0370 	bic.w	r3, r3, #112	@ 0x70
 80069c2:	60fb      	str	r3, [r7, #12]
 80069c4:	68fb      	ldr	r3, [r7, #12]
 80069c6:	f023 0303 	bic.w	r3, r3, #3
 80069ca:	60fb      	str	r3, [r7, #12]
 80069cc:	683b      	ldr	r3, [r7, #0]
 80069ce:	681b      	ldr	r3, [r3, #0]
 80069d0:	68fa      	ldr	r2, [r7, #12]
 80069d2:	4313      	orrs	r3, r2
 80069d4:	60fb      	str	r3, [r7, #12]
 80069d6:	697b      	ldr	r3, [r7, #20]
 80069d8:	f423 7300 	bic.w	r3, r3, #512	@ 0x200
 80069dc:	617b      	str	r3, [r7, #20]
 80069de:	683b      	ldr	r3, [r7, #0]
 80069e0:	689b      	ldr	r3, [r3, #8]
 80069e2:	021b      	lsls	r3, r3, #8
 80069e4:	697a      	ldr	r2, [r7, #20]
 80069e6:	4313      	orrs	r3, r2
 80069e8:	617b      	str	r3, [r7, #20]
 80069ea:	687b      	ldr	r3, [r7, #4]
 80069ec:	4a2b      	ldr	r2, [pc, #172]	@ (8006a9c <TIM_OC3_SetConfig+0x10c>)
 80069ee:	4293      	cmp	r3, r2
 80069f0:	d007      	beq.n	8006a02 <TIM_OC3_SetConfig+0x72>
 80069f2:	687b      	ldr	r3, [r7, #4]
 80069f4:	4a2a      	ldr	r2, [pc, #168]	@ (8006aa0 <TIM_OC3_SetConfig+0x110>)
 80069f6:	4293      	cmp	r3, r2
 80069f8:	d003      	beq.n	8006a02 <TIM_OC3_SetConfig+0x72>
 80069fa:	687b      	ldr	r3, [r7, #4]
 80069fc:	4a29      	ldr	r2, [pc, #164]	@ (8006aa4 <TIM_OC3_SetConfig+0x114>)
 80069fe:	4293      	cmp	r3, r2
 8006a00:	d10d      	bne.n	8006a1e <TIM_OC3_SetConfig+0x8e>
 8006a02:	697b      	ldr	r3, [r7, #20]
 8006a04:	f423 6300 	bic.w	r3, r3, #2048	@ 0x800
 8006a08:	617b      	str	r3, [r7, #20]
 8006a0a:	683b      	ldr	r3, [r7, #0]
 8006a0c:	68db      	ldr	r3, [r3, #12]
 8006a0e:	021b      	lsls	r3, r3, #8
 8006a10:	697a      	ldr	r2, [r7, #20]
 8006a12:	4313      	orrs	r3, r2
 8006a14:	617b      	str	r3, [r7, #20]
 8006a16:	697b      	ldr	r3, [r7, #20]
 8006a18:	f423 6380 	bic.w	r3, r3, #1024	@ 0x400
 8006a1c:	617b      	str	r3, [r7, #20]
 8006a1e:	687b      	ldr	r3, [r7, #4]
 8006a20:	4a1e      	ldr	r2, [pc, #120]	@ (8006a9c <TIM_OC3_SetConfig+0x10c>)
 8006a22:	4293      	cmp	r3, r2
 8006a24:	d013      	beq.n	8006a4e <TIM_OC3_SetConfig+0xbe>
 8006a26:	687b      	ldr	r3, [r7, #4]
 8006a28:	4a1d      	ldr	r2, [pc, #116]	@ (8006aa0 <TIM_OC3_SetConfig+0x110>)
 8006a2a:	4293      	cmp	r3, r2
 8006a2c:	d00f      	beq.n	8006a4e <TIM_OC3_SetConfig+0xbe>
 8006a2e:	687b      	ldr	r3, [r7, #4]
 8006a30:	4a1d      	ldr	r2, [pc, #116]	@ (8006aa8 <TIM_OC3_SetConfig+0x118>)
 8006a32:	4293      	cmp	r3, r2
 8006a34:	d00b      	beq.n	8006a4e <TIM_OC3_SetConfig+0xbe>
 8006a36:	687b      	ldr	r3, [r7, #4]
 8006a38:	4a1c      	ldr	r2, [pc, #112]	@ (8006aac <TIM_OC3_SetConfig+0x11c>)
 8006a3a:	4293      	cmp	r3, r2
 8006a3c:	d007      	beq.n	8006a4e <TIM_OC3_SetConfig+0xbe>
 8006a3e:	687b      	ldr	r3, [r7, #4]
 8006a40:	4a1b      	ldr	r2, [pc, #108]	@ (8006ab0 <TIM_OC3_SetConfig+0x120>)
 8006a42:	4293      	cmp	r3, r2
 8006a44:	d003      	beq.n	8006a4e <TIM_OC3_SetConfig+0xbe>
 8006a46:	687b      	ldr	r3, [r7, #4]
 8006a48:	4a16      	ldr	r2, [pc, #88]	@ (8006aa4 <TIM_OC3_SetConfig+0x114>)
 8006a4a:	4293      	cmp	r3, r2
 8006a4c:	d113      	bne.n	8006a76 <TIM_OC3_SetConfig+0xe6>
 8006a4e:	693b      	ldr	r3, [r7, #16]
 8006a50:	f423 5380 	bic.w	r3, r3, #4096	@ 0x1000
 8006a54:	613b      	str	r3, [r7, #16]
 8006a56:	693b      	ldr	r3, [r7, #16]
 8006a58:	f423 5300 	bic.w	r3, r3, #8192	@ 0x2000
 8006a5c:	613b      	str	r3, [r7, #16]
 8006a5e:	683b      	ldr	r3, [r7, #0]
 8006a60:	695b      	ldr	r3, [r3, #20]
 8006a62:	011b      	lsls	r3, r3, #4
 8006a64:	693a      	ldr	r2, [r7, #16]
 8006a66:	4313      	orrs	r3, r2
 8006a68:	613b      	str	r3, [r7, #16]
 8006a6a:	683b      	ldr	r3, [r7, #0]
 8006a6c:	699b      	ldr	r3, [r3, #24]
 8006a6e:	011b      	lsls	r3, r3, #4
 8006a70:	693a      	ldr	r2, [r7, #16]
 8006a72:	4313      	orrs	r3, r2
 8006a74:	613b      	str	r3, [r7, #16]
 8006a76:	687b      	ldr	r3, [r7, #4]
 8006a78:	693a      	ldr	r2, [r7, #16]
 8006a7a:	605a      	str	r2, [r3, #4]
 8006a7c:	687b      	ldr	r3, [r7, #4]
 8006a7e:	68fa      	ldr	r2, [r7, #12]
 8006a80:	61da      	str	r2, [r3, #28]
 8006a82:	683b      	ldr	r3, [r7, #0]
 8006a84:	685a      	ldr	r2, [r3, #4]
 8006a86:	687b      	ldr	r3, [r7, #4]
 8006a88:	63da      	str	r2, [r3, #60]	@ 0x3c
 8006a8a:	687b      	ldr	r3, [r7, #4]
 8006a8c:	697a      	ldr	r2, [r7, #20]
 8006a8e:	621a      	str	r2, [r3, #32]
 8006a90:	bf00      	nop
 8006a92:	371c      	adds	r7, #28
 8006a94:	46bd      	mov	sp, r7
 8006a96:	f85d 7b04 	ldr.w	r7, [sp], #4
 8006a9a:	4770      	bx	lr
 8006a9c:	40012c00 	.word	0x40012c00
 8006aa0:	40013400 	.word	0x40013400
 8006aa4:	40015000 	.word	0x40015000
 8006aa8:	40014000 	.word	0x40014000
 8006aac:	40014400 	.word	0x40014400
 8006ab0:	40014800 	.word	0x40014800

08006ab4 <TIM_OC4_SetConfig>:
 8006ab4:	b480      	push	{r7}
 8006ab6:	b087      	sub	sp, #28
 8006ab8:	af00      	add	r7, sp, #0
 8006aba:	6078      	str	r0, [r7, #4]
 8006abc:	6039      	str	r1, [r7, #0]
 8006abe:	687b      	ldr	r3, [r7, #4]
 8006ac0:	6a1b      	ldr	r3, [r3, #32]
 8006ac2:	617b      	str	r3, [r7, #20]
 8006ac4:	687b      	ldr	r3, [r7, #4]
 8006ac6:	6a1b      	ldr	r3, [r3, #32]
 8006ac8:	f423 5280 	bic.w	r2, r3, #4096	@ 0x1000
 8006acc:	687b      	ldr	r3, [r7, #4]
 8006ace:	621a      	str	r2, [r3, #32]
 8006ad0:	687b      	ldr	r3, [r7, #4]
 8006ad2:	685b      	ldr	r3, [r3, #4]
 8006ad4:	613b      	str	r3, [r7, #16]
 8006ad6:	687b      	ldr	r3, [r7, #4]
 8006ad8:	69db      	ldr	r3, [r3, #28]
 8006ada:	60fb      	str	r3, [r7, #12]
 8006adc:	68fb      	ldr	r3, [r7, #12]
 8006ade:	f023 7380 	bic.w	r3, r3, #16777216	@ 0x1000000
 8006ae2:	f423 43e0 	bic.w	r3, r3, #28672	@ 0x7000
 8006ae6:	60fb      	str	r3, [r7, #12]
 8006ae8:	68fb      	ldr	r3, [r7, #12]
 8006aea:	f423 7340 	bic.w	r3, r3, #768	@ 0x300
 8006aee:	60fb      	str	r3, [r7, #12]
 8006af0:	683b      	ldr	r3, [r7, #0]
 8006af2:	681b      	ldr	r3, [r3, #0]
 8006af4:	021b      	lsls	r3, r3, #8
 8006af6:	68fa      	ldr	r2, [r7, #12]
 8006af8:	4313      	orrs	r3, r2
 8006afa:	60fb      	str	r3, [r7, #12]
 8006afc:	697b      	ldr	r3, [r7, #20]
 8006afe:	f423 5300 	bic.w	r3, r3, #8192	@ 0x2000
 8006b02:	617b      	str	r3, [r7, #20]
 8006b04:	683b      	ldr	r3, [r7, #0]
 8006b06:	689b      	ldr	r3, [r3, #8]
 8006b08:	031b      	lsls	r3, r3, #12
 8006b0a:	697a      	ldr	r2, [r7, #20]
 8006b0c:	4313      	orrs	r3, r2
 8006b0e:	617b      	str	r3, [r7, #20]
 8006b10:	687b      	ldr	r3, [r7, #4]
 8006b12:	4a2c      	ldr	r2, [pc, #176]	@ (8006bc4 <TIM_OC4_SetConfig+0x110>)
 8006b14:	4293      	cmp	r3, r2
 8006b16:	d007      	beq.n	8006b28 <TIM_OC4_SetConfig+0x74>
 8006b18:	687b      	ldr	r3, [r7, #4]
 8006b1a:	4a2b      	ldr	r2, [pc, #172]	@ (8006bc8 <TIM_OC4_SetConfig+0x114>)
 8006b1c:	4293      	cmp	r3, r2
 8006b1e:	d003      	beq.n	8006b28 <TIM_OC4_SetConfig+0x74>
 8006b20:	687b      	ldr	r3, [r7, #4]
 8006b22:	4a2a      	ldr	r2, [pc, #168]	@ (8006bcc <TIM_OC4_SetConfig+0x118>)
 8006b24:	4293      	cmp	r3, r2
 8006b26:	d10d      	bne.n	8006b44 <TIM_OC4_SetConfig+0x90>
 8006b28:	697b      	ldr	r3, [r7, #20]
 8006b2a:	f423 4300 	bic.w	r3, r3, #32768	@ 0x8000
 8006b2e:	617b      	str	r3, [r7, #20]
 8006b30:	683b      	ldr	r3, [r7, #0]
 8006b32:	68db      	ldr	r3, [r3, #12]
 8006b34:	031b      	lsls	r3, r3, #12
 8006b36:	697a      	ldr	r2, [r7, #20]
 8006b38:	4313      	orrs	r3, r2
 8006b3a:	617b      	str	r3, [r7, #20]
 8006b3c:	697b      	ldr	r3, [r7, #20]
 8006b3e:	f423 4380 	bic.w	r3, r3, #16384	@ 0x4000
 8006b42:	617b      	str	r3, [r7, #20]
 8006b44:	687b      	ldr	r3, [r7, #4]
 8006b46:	4a1f      	ldr	r2, [pc, #124]	@ (8006bc4 <TIM_OC4_SetConfig+0x110>)
 8006b48:	4293      	cmp	r3, r2
 8006b4a:	d013      	beq.n	8006b74 <TIM_OC4_SetConfig+0xc0>
 8006b4c:	687b      	ldr	r3, [r7, #4]
 8006b4e:	4a1e      	ldr	r2, [pc, #120]	@ (8006bc8 <TIM_OC4_SetConfig+0x114>)
 8006b50:	4293      	cmp	r3, r2
 8006b52:	d00f      	beq.n	8006b74 <TIM_OC4_SetConfig+0xc0>
 8006b54:	687b      	ldr	r3, [r7, #4]
 8006b56:	4a1e      	ldr	r2, [pc, #120]	@ (8006bd0 <TIM_OC4_SetConfig+0x11c>)
 8006b58:	4293      	cmp	r3, r2
 8006b5a:	d00b      	beq.n	8006b74 <TIM_OC4_SetConfig+0xc0>
 8006b5c:	687b      	ldr	r3, [r7, #4]
 8006b5e:	4a1d      	ldr	r2, [pc, #116]	@ (8006bd4 <TIM_OC4_SetConfig+0x120>)
 8006b60:	4293      	cmp	r3, r2
 8006b62:	d007      	beq.n	8006b74 <TIM_OC4_SetConfig+0xc0>
 8006b64:	687b      	ldr	r3, [r7, #4]
 8006b66:	4a1c      	ldr	r2, [pc, #112]	@ (8006bd8 <TIM_OC4_SetConfig+0x124>)
 8006b68:	4293      	cmp	r3, r2
 8006b6a:	d003      	beq.n	8006b74 <TIM_OC4_SetConfig+0xc0>
 8006b6c:	687b      	ldr	r3, [r7, #4]
 8006b6e:	4a17      	ldr	r2, [pc, #92]	@ (8006bcc <TIM_OC4_SetConfig+0x118>)
 8006b70:	4293      	cmp	r3, r2
 8006b72:	d113      	bne.n	8006b9c <TIM_OC4_SetConfig+0xe8>
 8006b74:	693b      	ldr	r3, [r7, #16]
 8006b76:	f423 4380 	bic.w	r3, r3, #16384	@ 0x4000
 8006b7a:	613b      	str	r3, [r7, #16]
 8006b7c:	693b      	ldr	r3, [r7, #16]
 8006b7e:	f423 4300 	bic.w	r3, r3, #32768	@ 0x8000
 8006b82:	613b      	str	r3, [r7, #16]
 8006b84:	683b      	ldr	r3, [r7, #0]
 8006b86:	695b      	ldr	r3, [r3, #20]
 8006b88:	019b      	lsls	r3, r3, #6
 8006b8a:	693a      	ldr	r2, [r7, #16]
 8006b8c:	4313      	orrs	r3, r2
 8006b8e:	613b      	str	r3, [r7, #16]
 8006b90:	683b      	ldr	r3, [r7, #0]
 8006b92:	699b      	ldr	r3, [r3, #24]
 8006b94:	019b      	lsls	r3, r3, #6
 8006b96:	693a      	ldr	r2, [r7, #16]
 8006b98:	4313      	orrs	r3, r2
 8006b9a:	613b      	str	r3, [r7, #16]
 8006b9c:	687b      	ldr	r3, [r7, #4]
 8006b9e:	693a      	ldr	r2, [r7, #16]
 8006ba0:	605a      	str	r2, [r3, #4]
 8006ba2:	687b      	ldr	r3, [r7, #4]
 8006ba4:	68fa      	ldr	r2, [r7, #12]
 8006ba6:	61da      	str	r2, [r3, #28]
 8006ba8:	683b      	ldr	r3, [r7, #0]
 8006baa:	685a      	ldr	r2, [r3, #4]
 8006bac:	687b      	ldr	r3, [r7, #4]
 8006bae:	641a      	str	r2, [r3, #64]	@ 0x40
 8006bb0:	687b      	ldr	r3, [r7, #4]
 8006bb2:	697a      	ldr	r2, [r7, #20]
 8006bb4:	621a      	str	r2, [r3, #32]
 8006bb6:	bf00      	nop
 8006bb8:	371c      	adds	r7, #28
 8006bba:	46bd      	mov	sp, r7
 8006bbc:	f85d 7b04 	ldr.w	r7, [sp], #4
 8006bc0:	4770      	bx	lr
 8006bc2:	bf00      	nop
 8006bc4:	40012c00 	.word	0x40012c00
 8006bc8:	40013400 	.word	0x40013400
 8006bcc:	40015000 	.word	0x40015000
 8006bd0:	40014000 	.word	0x40014000
 8006bd4:	40014400 	.word	0x40014400
 8006bd8:	40014800 	.word	0x40014800

08006bdc <TIM_OC5_SetConfig>:
 8006bdc:	b480      	push	{r7}
 8006bde:	b087      	sub	sp, #28
 8006be0:	af00      	add	r7, sp, #0
 8006be2:	6078      	str	r0, [r7, #4]
 8006be4:	6039      	str	r1, [r7, #0]
 8006be6:	687b      	ldr	r3, [r7, #4]
 8006be8:	6a1b      	ldr	r3, [r3, #32]
 8006bea:	613b      	str	r3, [r7, #16]
 8006bec:	687b      	ldr	r3, [r7, #4]
 8006bee:	6a1b      	ldr	r3, [r3, #32]
 8006bf0:	f423 3280 	bic.w	r2, r3, #65536	@ 0x10000
 8006bf4:	687b      	ldr	r3, [r7, #4]
 8006bf6:	621a      	str	r2, [r3, #32]
 8006bf8:	687b      	ldr	r3, [r7, #4]
 8006bfa:	685b      	ldr	r3, [r3, #4]
 8006bfc:	617b      	str	r3, [r7, #20]
 8006bfe:	687b      	ldr	r3, [r7, #4]
 8006c00:	6d1b      	ldr	r3, [r3, #80]	@ 0x50
 8006c02:	60fb      	str	r3, [r7, #12]
 8006c04:	68fb      	ldr	r3, [r7, #12]
 8006c06:	f423 3380 	bic.w	r3, r3, #65536	@ 0x10000
 8006c0a:	f023 0370 	bic.w	r3, r3, #112	@ 0x70
 8006c0e:	60fb      	str	r3, [r7, #12]
 8006c10:	683b      	ldr	r3, [r7, #0]
 8006c12:	681b      	ldr	r3, [r3, #0]
 8006c14:	68fa      	ldr	r2, [r7, #12]
 8006c16:	4313      	orrs	r3, r2
 8006c18:	60fb      	str	r3, [r7, #12]
 8006c1a:	693b      	ldr	r3, [r7, #16]
 8006c1c:	f423 3300 	bic.w	r3, r3, #131072	@ 0x20000
 8006c20:	613b      	str	r3, [r7, #16]
 8006c22:	683b      	ldr	r3, [r7, #0]
 8006c24:	689b      	ldr	r3, [r3, #8]
 8006c26:	041b      	lsls	r3, r3, #16
 8006c28:	693a      	ldr	r2, [r7, #16]
 8006c2a:	4313      	orrs	r3, r2
 8006c2c:	613b      	str	r3, [r7, #16]
 8006c2e:	687b      	ldr	r3, [r7, #4]
 8006c30:	4a19      	ldr	r2, [pc, #100]	@ (8006c98 <TIM_OC5_SetConfig+0xbc>)
 8006c32:	4293      	cmp	r3, r2
 8006c34:	d013      	beq.n	8006c5e <TIM_OC5_SetConfig+0x82>
 8006c36:	687b      	ldr	r3, [r7, #4]
 8006c38:	4a18      	ldr	r2, [pc, #96]	@ (8006c9c <TIM_OC5_SetConfig+0xc0>)
 8006c3a:	4293      	cmp	r3, r2
 8006c3c:	d00f      	beq.n	8006c5e <TIM_OC5_SetConfig+0x82>
 8006c3e:	687b      	ldr	r3, [r7, #4]
 8006c40:	4a17      	ldr	r2, [pc, #92]	@ (8006ca0 <TIM_OC5_SetConfig+0xc4>)
 8006c42:	4293      	cmp	r3, r2
 8006c44:	d00b      	beq.n	8006c5e <TIM_OC5_SetConfig+0x82>
 8006c46:	687b      	ldr	r3, [r7, #4]
 8006c48:	4a16      	ldr	r2, [pc, #88]	@ (8006ca4 <TIM_OC5_SetConfig+0xc8>)
 8006c4a:	4293      	cmp	r3, r2
 8006c4c:	d007      	beq.n	8006c5e <TIM_OC5_SetConfig+0x82>
 8006c4e:	687b      	ldr	r3, [r7, #4]
 8006c50:	4a15      	ldr	r2, [pc, #84]	@ (8006ca8 <TIM_OC5_SetConfig+0xcc>)
 8006c52:	4293      	cmp	r3, r2
 8006c54:	d003      	beq.n	8006c5e <TIM_OC5_SetConfig+0x82>
 8006c56:	687b      	ldr	r3, [r7, #4]
 8006c58:	4a14      	ldr	r2, [pc, #80]	@ (8006cac <TIM_OC5_SetConfig+0xd0>)
 8006c5a:	4293      	cmp	r3, r2
 8006c5c:	d109      	bne.n	8006c72 <TIM_OC5_SetConfig+0x96>
 8006c5e:	697b      	ldr	r3, [r7, #20]
 8006c60:	f423 3380 	bic.w	r3, r3, #65536	@ 0x10000
 8006c64:	617b      	str	r3, [r7, #20]
 8006c66:	683b      	ldr	r3, [r7, #0]
 8006c68:	695b      	ldr	r3, [r3, #20]
 8006c6a:	021b      	lsls	r3, r3, #8
 8006c6c:	697a      	ldr	r2, [r7, #20]
 8006c6e:	4313      	orrs	r3, r2
 8006c70:	617b      	str	r3, [r7, #20]
 8006c72:	687b      	ldr	r3, [r7, #4]
 8006c74:	697a      	ldr	r2, [r7, #20]
 8006c76:	605a      	str	r2, [r3, #4]
 8006c78:	687b      	ldr	r3, [r7, #4]
 8006c7a:	68fa      	ldr	r2, [r7, #12]
 8006c7c:	651a      	str	r2, [r3, #80]	@ 0x50
 8006c7e:	683b      	ldr	r3, [r7, #0]
 8006c80:	685a      	ldr	r2, [r3, #4]
 8006c82:	687b      	ldr	r3, [r7, #4]
 8006c84:	649a      	str	r2, [r3, #72]	@ 0x48
 8006c86:	687b      	ldr	r3, [r7, #4]
 8006c88:	693a      	ldr	r2, [r7, #16]
 8006c8a:	621a      	str	r2, [r3, #32]
 8006c8c:	bf00      	nop
 8006c8e:	371c      	adds	r7, #28
 8006c90:	46bd      	mov	sp, r7
 8006c92:	f85d 7b04 	ldr.w	r7, [sp], #4
 8006c96:	4770      	bx	lr
 8006c98:	40012c00 	.word	0x40012c00
 8006c9c:	40013400 	.word	0x40013400
 8006ca0:	40014000 	.word	0x40014000
 8006ca4:	40014400 	.word	0x40014400
 8006ca8:	40014800 	.word	0x40014800
 8006cac:	40015000 	.word	0x40015000

08006cb0 <TIM_OC6_SetConfig>:
 8006cb0:	b480      	push	{r7}
 8006cb2:	b087      	sub	sp, #28
 8006cb4:	af00      	add	r7, sp, #0
 8006cb6:	6078      	str	r0, [r7, #4]
 8006cb8:	6039      	str	r1, [r7, #0]
 8006cba:	687b      	ldr	r3, [r7, #4]
 8006cbc:	6a1b      	ldr	r3, [r3, #32]
 8006cbe:	613b      	str	r3, [r7, #16]
 8006cc0:	687b      	ldr	r3, [r7, #4]
 8006cc2:	6a1b      	ldr	r3, [r3, #32]
 8006cc4:	f423 1280 	bic.w	r2, r3, #1048576	@ 0x100000
 8006cc8:	687b      	ldr	r3, [r7, #4]
 8006cca:	621a      	str	r2, [r3, #32]
 8006ccc:	687b      	ldr	r3, [r7, #4]
 8006cce:	685b      	ldr	r3, [r3, #4]
 8006cd0:	617b      	str	r3, [r7, #20]
 8006cd2:	687b      	ldr	r3, [r7, #4]
 8006cd4:	6d1b      	ldr	r3, [r3, #80]	@ 0x50
 8006cd6:	60fb      	str	r3, [r7, #12]
 8006cd8:	68fb      	ldr	r3, [r7, #12]
 8006cda:	f023 7380 	bic.w	r3, r3, #16777216	@ 0x1000000
 8006cde:	f423 43e0 	bic.w	r3, r3, #28672	@ 0x7000
 8006ce2:	60fb      	str	r3, [r7, #12]
 8006ce4:	683b      	ldr	r3, [r7, #0]
 8006ce6:	681b      	ldr	r3, [r3, #0]
 8006ce8:	021b      	lsls	r3, r3, #8
 8006cea:	68fa      	ldr	r2, [r7, #12]
 8006cec:	4313      	orrs	r3, r2
 8006cee:	60fb      	str	r3, [r7, #12]
 8006cf0:	693b      	ldr	r3, [r7, #16]
 8006cf2:	f423 1300 	bic.w	r3, r3, #2097152	@ 0x200000
 8006cf6:	613b      	str	r3, [r7, #16]
 8006cf8:	683b      	ldr	r3, [r7, #0]
 8006cfa:	689b      	ldr	r3, [r3, #8]
 8006cfc:	051b      	lsls	r3, r3, #20
 8006cfe:	693a      	ldr	r2, [r7, #16]
 8006d00:	4313      	orrs	r3, r2
 8006d02:	613b      	str	r3, [r7, #16]
 8006d04:	687b      	ldr	r3, [r7, #4]
 8006d06:	4a1a      	ldr	r2, [pc, #104]	@ (8006d70 <TIM_OC6_SetConfig+0xc0>)
 8006d08:	4293      	cmp	r3, r2
 8006d0a:	d013      	beq.n	8006d34 <TIM_OC6_SetConfig+0x84>
 8006d0c:	687b      	ldr	r3, [r7, #4]
 8006d0e:	4a19      	ldr	r2, [pc, #100]	@ (8006d74 <TIM_OC6_SetConfig+0xc4>)
 8006d10:	4293      	cmp	r3, r2
 8006d12:	d00f      	beq.n	8006d34 <TIM_OC6_SetConfig+0x84>
 8006d14:	687b      	ldr	r3, [r7, #4]
 8006d16:	4a18      	ldr	r2, [pc, #96]	@ (8006d78 <TIM_OC6_SetConfig+0xc8>)
 8006d18:	4293      	cmp	r3, r2
 8006d1a:	d00b      	beq.n	8006d34 <TIM_OC6_SetConfig+0x84>
 8006d1c:	687b      	ldr	r3, [r7, #4]
 8006d1e:	4a17      	ldr	r2, [pc, #92]	@ (8006d7c <TIM_OC6_SetConfig+0xcc>)
 8006d20:	4293      	cmp	r3, r2
 8006d22:	d007      	beq.n	8006d34 <TIM_OC6_SetConfig+0x84>
 8006d24:	687b      	ldr	r3, [r7, #4]
 8006d26:	4a16      	ldr	r2, [pc, #88]	@ (8006d80 <TIM_OC6_SetConfig+0xd0>)
 8006d28:	4293      	cmp	r3, r2
 8006d2a:	d003      	beq.n	8006d34 <TIM_OC6_SetConfig+0x84>
 8006d2c:	687b      	ldr	r3, [r7, #4]
 8006d2e:	4a15      	ldr	r2, [pc, #84]	@ (8006d84 <TIM_OC6_SetConfig+0xd4>)
 8006d30:	4293      	cmp	r3, r2
 8006d32:	d109      	bne.n	8006d48 <TIM_OC6_SetConfig+0x98>
 8006d34:	697b      	ldr	r3, [r7, #20]
 8006d36:	f423 2380 	bic.w	r3, r3, #262144	@ 0x40000
 8006d3a:	617b      	str	r3, [r7, #20]
 8006d3c:	683b      	ldr	r3, [r7, #0]
 8006d3e:	695b      	ldr	r3, [r3, #20]
 8006d40:	029b      	lsls	r3, r3, #10
 8006d42:	697a      	ldr	r2, [r7, #20]
 8006d44:	4313      	orrs	r3, r2
 8006d46:	617b      	str	r3, [r7, #20]
 8006d48:	687b      	ldr	r3, [r7, #4]
 8006d4a:	697a      	ldr	r2, [r7, #20]
 8006d4c:	605a      	str	r2, [r3, #4]
 8006d4e:	687b      	ldr	r3, [r7, #4]
 8006d50:	68fa      	ldr	r2, [r7, #12]
 8006d52:	651a      	str	r2, [r3, #80]	@ 0x50
 8006d54:	683b      	ldr	r3, [r7, #0]
 8006d56:	685a      	ldr	r2, [r3, #4]
 8006d58:	687b      	ldr	r3, [r7, #4]
 8006d5a:	64da      	str	r2, [r3, #76]	@ 0x4c
 8006d5c:	687b      	ldr	r3, [r7, #4]
 8006d5e:	693a      	ldr	r2, [r7, #16]
 8006d60:	621a      	str	r2, [r3, #32]
 8006d62:	bf00      	nop
 8006d64:	371c      	adds	r7, #28
 8006d66:	46bd      	mov	sp, r7
 8006d68:	f85d 7b04 	ldr.w	r7, [sp], #4
 8006d6c:	4770      	bx	lr
 8006d6e:	bf00      	nop
 8006d70:	40012c00 	.word	0x40012c00
 8006d74:	40013400 	.word	0x40013400
 8006d78:	40014000 	.word	0x40014000
 8006d7c:	40014400 	.word	0x40014400
 8006d80:	40014800 	.word	0x40014800
 8006d84:	40015000 	.word	0x40015000

08006d88 <TIM_TI1_ConfigInputStage>:
 8006d88:	b480      	push	{r7}
 8006d8a:	b087      	sub	sp, #28
 8006d8c:	af00      	add	r7, sp, #0
 8006d8e:	60f8      	str	r0, [r7, #12]
 8006d90:	60b9      	str	r1, [r7, #8]
 8006d92:	607a      	str	r2, [r7, #4]
 8006d94:	68fb      	ldr	r3, [r7, #12]
 8006d96:	6a1b      	ldr	r3, [r3, #32]
 8006d98:	617b      	str	r3, [r7, #20]
 8006d9a:	68fb      	ldr	r3, [r7, #12]
 8006d9c:	6a1b      	ldr	r3, [r3, #32]
 8006d9e:	f023 0201 	bic.w	r2, r3, #1
 8006da2:	68fb      	ldr	r3, [r7, #12]
 8006da4:	621a      	str	r2, [r3, #32]
 8006da6:	68fb      	ldr	r3, [r7, #12]
 8006da8:	699b      	ldr	r3, [r3, #24]
 8006daa:	613b      	str	r3, [r7, #16]
 8006dac:	693b      	ldr	r3, [r7, #16]
 8006dae:	f023 03f0 	bic.w	r3, r3, #240	@ 0xf0
 8006db2:	613b      	str	r3, [r7, #16]
 8006db4:	687b      	ldr	r3, [r7, #4]
 8006db6:	011b      	lsls	r3, r3, #4
 8006db8:	693a      	ldr	r2, [r7, #16]
 8006dba:	4313      	orrs	r3, r2
 8006dbc:	613b      	str	r3, [r7, #16]
 8006dbe:	697b      	ldr	r3, [r7, #20]
 8006dc0:	f023 030a 	bic.w	r3, r3, #10
 8006dc4:	617b      	str	r3, [r7, #20]
 8006dc6:	697a      	ldr	r2, [r7, #20]
 8006dc8:	68bb      	ldr	r3, [r7, #8]
 8006dca:	4313      	orrs	r3, r2
 8006dcc:	617b      	str	r3, [r7, #20]
 8006dce:	68fb      	ldr	r3, [r7, #12]
 8006dd0:	693a      	ldr	r2, [r7, #16]
 8006dd2:	619a      	str	r2, [r3, #24]
 8006dd4:	68fb      	ldr	r3, [r7, #12]
 8006dd6:	697a      	ldr	r2, [r7, #20]
 8006dd8:	621a      	str	r2, [r3, #32]
 8006dda:	bf00      	nop
 8006ddc:	371c      	adds	r7, #28
 8006dde:	46bd      	mov	sp, r7
 8006de0:	f85d 7b04 	ldr.w	r7, [sp], #4
 8006de4:	4770      	bx	lr

08006de6 <TIM_TI2_ConfigInputStage>:
 8006de6:	b480      	push	{r7}
 8006de8:	b087      	sub	sp, #28
 8006dea:	af00      	add	r7, sp, #0
 8006dec:	60f8      	str	r0, [r7, #12]
 8006dee:	60b9      	str	r1, [r7, #8]
 8006df0:	607a      	str	r2, [r7, #4]
 8006df2:	68fb      	ldr	r3, [r7, #12]
 8006df4:	6a1b      	ldr	r3, [r3, #32]
 8006df6:	617b      	str	r3, [r7, #20]
 8006df8:	68fb      	ldr	r3, [r7, #12]
 8006dfa:	6a1b      	ldr	r3, [r3, #32]
 8006dfc:	f023 0210 	bic.w	r2, r3, #16
 8006e00:	68fb      	ldr	r3, [r7, #12]
 8006e02:	621a      	str	r2, [r3, #32]
 8006e04:	68fb      	ldr	r3, [r7, #12]
 8006e06:	699b      	ldr	r3, [r3, #24]
 8006e08:	613b      	str	r3, [r7, #16]
 8006e0a:	693b      	ldr	r3, [r7, #16]
 8006e0c:	f423 4370 	bic.w	r3, r3, #61440	@ 0xf000
 8006e10:	613b      	str	r3, [r7, #16]
 8006e12:	687b      	ldr	r3, [r7, #4]
 8006e14:	031b      	lsls	r3, r3, #12
 8006e16:	693a      	ldr	r2, [r7, #16]
 8006e18:	4313      	orrs	r3, r2
 8006e1a:	613b      	str	r3, [r7, #16]
 8006e1c:	697b      	ldr	r3, [r7, #20]
 8006e1e:	f023 03a0 	bic.w	r3, r3, #160	@ 0xa0
 8006e22:	617b      	str	r3, [r7, #20]
 8006e24:	68bb      	ldr	r3, [r7, #8]
 8006e26:	011b      	lsls	r3, r3, #4
 8006e28:	697a      	ldr	r2, [r7, #20]
 8006e2a:	4313      	orrs	r3, r2
 8006e2c:	617b      	str	r3, [r7, #20]
 8006e2e:	68fb      	ldr	r3, [r7, #12]
 8006e30:	693a      	ldr	r2, [r7, #16]
 8006e32:	619a      	str	r2, [r3, #24]
 8006e34:	68fb      	ldr	r3, [r7, #12]
 8006e36:	697a      	ldr	r2, [r7, #20]
 8006e38:	621a      	str	r2, [r3, #32]
 8006e3a:	bf00      	nop
 8006e3c:	371c      	adds	r7, #28
 8006e3e:	46bd      	mov	sp, r7
 8006e40:	f85d 7b04 	ldr.w	r7, [sp], #4
 8006e44:	4770      	bx	lr

08006e46 <TIM_ITRx_SetConfig>:
 8006e46:	b480      	push	{r7}
 8006e48:	b085      	sub	sp, #20
 8006e4a:	af00      	add	r7, sp, #0
 8006e4c:	6078      	str	r0, [r7, #4]
 8006e4e:	6039      	str	r1, [r7, #0]
 8006e50:	687b      	ldr	r3, [r7, #4]
 8006e52:	689b      	ldr	r3, [r3, #8]
 8006e54:	60fb      	str	r3, [r7, #12]
 8006e56:	68fb      	ldr	r3, [r7, #12]
 8006e58:	f423 1340 	bic.w	r3, r3, #3145728	@ 0x300000
 8006e5c:	f023 0370 	bic.w	r3, r3, #112	@ 0x70
 8006e60:	60fb      	str	r3, [r7, #12]
 8006e62:	683a      	ldr	r2, [r7, #0]
 8006e64:	68fb      	ldr	r3, [r7, #12]
 8006e66:	4313      	orrs	r3, r2
 8006e68:	f043 0307 	orr.w	r3, r3, #7
 8006e6c:	60fb      	str	r3, [r7, #12]
 8006e6e:	687b      	ldr	r3, [r7, #4]
 8006e70:	68fa      	ldr	r2, [r7, #12]
 8006e72:	609a      	str	r2, [r3, #8]
 8006e74:	bf00      	nop
 8006e76:	3714      	adds	r7, #20
 8006e78:	46bd      	mov	sp, r7
 8006e7a:	f85d 7b04 	ldr.w	r7, [sp], #4
 8006e7e:	4770      	bx	lr

08006e80 <TIM_ETR_SetConfig>:
 8006e80:	b480      	push	{r7}
 8006e82:	b087      	sub	sp, #28
 8006e84:	af00      	add	r7, sp, #0
 8006e86:	60f8      	str	r0, [r7, #12]
 8006e88:	60b9      	str	r1, [r7, #8]
 8006e8a:	607a      	str	r2, [r7, #4]
 8006e8c:	603b      	str	r3, [r7, #0]
 8006e8e:	68fb      	ldr	r3, [r7, #12]
 8006e90:	689b      	ldr	r3, [r3, #8]
 8006e92:	617b      	str	r3, [r7, #20]
 8006e94:	697b      	ldr	r3, [r7, #20]
 8006e96:	f423 437f 	bic.w	r3, r3, #65280	@ 0xff00
 8006e9a:	617b      	str	r3, [r7, #20]
 8006e9c:	683b      	ldr	r3, [r7, #0]
 8006e9e:	021a      	lsls	r2, r3, #8
 8006ea0:	687b      	ldr	r3, [r7, #4]
 8006ea2:	431a      	orrs	r2, r3
 8006ea4:	68bb      	ldr	r3, [r7, #8]
 8006ea6:	4313      	orrs	r3, r2
 8006ea8:	697a      	ldr	r2, [r7, #20]
 8006eaa:	4313      	orrs	r3, r2
 8006eac:	617b      	str	r3, [r7, #20]
 8006eae:	68fb      	ldr	r3, [r7, #12]
 8006eb0:	697a      	ldr	r2, [r7, #20]
 8006eb2:	609a      	str	r2, [r3, #8]
 8006eb4:	bf00      	nop
 8006eb6:	371c      	adds	r7, #28
 8006eb8:	46bd      	mov	sp, r7
 8006eba:	f85d 7b04 	ldr.w	r7, [sp], #4
 8006ebe:	4770      	bx	lr

08006ec0 <TIM_CCxChannelCmd>:
 8006ec0:	b480      	push	{r7}
 8006ec2:	b087      	sub	sp, #28
 8006ec4:	af00      	add	r7, sp, #0
 8006ec6:	60f8      	str	r0, [r7, #12]
 8006ec8:	60b9      	str	r1, [r7, #8]
 8006eca:	607a      	str	r2, [r7, #4]
 8006ecc:	68bb      	ldr	r3, [r7, #8]
 8006ece:	f003 031f 	and.w	r3, r3, #31
 8006ed2:	2201      	movs	r2, #1
 8006ed4:	fa02 f303 	lsl.w	r3, r2, r3
 8006ed8:	617b      	str	r3, [r7, #20]
 8006eda:	68fb      	ldr	r3, [r7, #12]
 8006edc:	6a1a      	ldr	r2, [r3, #32]
 8006ede:	697b      	ldr	r3, [r7, #20]
 8006ee0:	43db      	mvns	r3, r3
 8006ee2:	401a      	ands	r2, r3
 8006ee4:	68fb      	ldr	r3, [r7, #12]
 8006ee6:	621a      	str	r2, [r3, #32]
 8006ee8:	68fb      	ldr	r3, [r7, #12]
 8006eea:	6a1a      	ldr	r2, [r3, #32]
 8006eec:	68bb      	ldr	r3, [r7, #8]
 8006eee:	f003 031f 	and.w	r3, r3, #31
 8006ef2:	6879      	ldr	r1, [r7, #4]
 8006ef4:	fa01 f303 	lsl.w	r3, r1, r3
 8006ef8:	431a      	orrs	r2, r3
 8006efa:	68fb      	ldr	r3, [r7, #12]
 8006efc:	621a      	str	r2, [r3, #32]
 8006efe:	bf00      	nop
 8006f00:	371c      	adds	r7, #28
 8006f02:	46bd      	mov	sp, r7
 8006f04:	f85d 7b04 	ldr.w	r7, [sp], #4
 8006f08:	4770      	bx	lr
	...

08006f0c <TIM_ResetCallback>:
 8006f0c:	b480      	push	{r7}
 8006f0e:	b083      	sub	sp, #12
 8006f10:	af00      	add	r7, sp, #0
 8006f12:	6078      	str	r0, [r7, #4]
 8006f14:	687b      	ldr	r3, [r7, #4]
 8006f16:	4a26      	ldr	r2, [pc, #152]	@ (8006fb0 <TIM_ResetCallback+0xa4>)
 8006f18:	f8c3 2084 	str.w	r2, [r3, #132]	@ 0x84
 8006f1c:	687b      	ldr	r3, [r7, #4]
 8006f1e:	4a25      	ldr	r2, [pc, #148]	@ (8006fb4 <TIM_ResetCallback+0xa8>)
 8006f20:	f8c3 2088 	str.w	r2, [r3, #136]	@ 0x88
 8006f24:	687b      	ldr	r3, [r7, #4]
 8006f26:	4a24      	ldr	r2, [pc, #144]	@ (8006fb8 <TIM_ResetCallback+0xac>)
 8006f28:	f8c3 208c 	str.w	r2, [r3, #140]	@ 0x8c
 8006f2c:	687b      	ldr	r3, [r7, #4]
 8006f2e:	4a23      	ldr	r2, [pc, #140]	@ (8006fbc <TIM_ResetCallback+0xb0>)
 8006f30:	f8c3 2090 	str.w	r2, [r3, #144]	@ 0x90
 8006f34:	687b      	ldr	r3, [r7, #4]
 8006f36:	4a22      	ldr	r2, [pc, #136]	@ (8006fc0 <TIM_ResetCallback+0xb4>)
 8006f38:	f8c3 2094 	str.w	r2, [r3, #148]	@ 0x94
 8006f3c:	687b      	ldr	r3, [r7, #4]
 8006f3e:	4a21      	ldr	r2, [pc, #132]	@ (8006fc4 <TIM_ResetCallback+0xb8>)
 8006f40:	f8c3 2098 	str.w	r2, [r3, #152]	@ 0x98
 8006f44:	687b      	ldr	r3, [r7, #4]
 8006f46:	4a20      	ldr	r2, [pc, #128]	@ (8006fc8 <TIM_ResetCallback+0xbc>)
 8006f48:	f8c3 209c 	str.w	r2, [r3, #156]	@ 0x9c
 8006f4c:	687b      	ldr	r3, [r7, #4]
 8006f4e:	4a1f      	ldr	r2, [pc, #124]	@ (8006fcc <TIM_ResetCallback+0xc0>)
 8006f50:	f8c3 20a0 	str.w	r2, [r3, #160]	@ 0xa0
 8006f54:	687b      	ldr	r3, [r7, #4]
 8006f56:	4a1e      	ldr	r2, [pc, #120]	@ (8006fd0 <TIM_ResetCallback+0xc4>)
 8006f58:	f8c3 20a4 	str.w	r2, [r3, #164]	@ 0xa4
 8006f5c:	687b      	ldr	r3, [r7, #4]
 8006f5e:	4a1d      	ldr	r2, [pc, #116]	@ (8006fd4 <TIM_ResetCallback+0xc8>)
 8006f60:	f8c3 20a8 	str.w	r2, [r3, #168]	@ 0xa8
 8006f64:	687b      	ldr	r3, [r7, #4]
 8006f66:	4a1c      	ldr	r2, [pc, #112]	@ (8006fd8 <TIM_ResetCallback+0xcc>)
 8006f68:	f8c3 20ac 	str.w	r2, [r3, #172]	@ 0xac
 8006f6c:	687b      	ldr	r3, [r7, #4]
 8006f6e:	4a1b      	ldr	r2, [pc, #108]	@ (8006fdc <TIM_ResetCallback+0xd0>)
 8006f70:	f8c3 20b0 	str.w	r2, [r3, #176]	@ 0xb0
 8006f74:	687b      	ldr	r3, [r7, #4]
 8006f76:	4a1a      	ldr	r2, [pc, #104]	@ (8006fe0 <TIM_ResetCallback+0xd4>)
 8006f78:	f8c3 20b4 	str.w	r2, [r3, #180]	@ 0xb4
 8006f7c:	687b      	ldr	r3, [r7, #4]
 8006f7e:	4a19      	ldr	r2, [pc, #100]	@ (8006fe4 <TIM_ResetCallback+0xd8>)
 8006f80:	f8c3 20b8 	str.w	r2, [r3, #184]	@ 0xb8
 8006f84:	687b      	ldr	r3, [r7, #4]
 8006f86:	4a18      	ldr	r2, [pc, #96]	@ (8006fe8 <TIM_ResetCallback+0xdc>)
 8006f88:	f8c3 20bc 	str.w	r2, [r3, #188]	@ 0xbc
 8006f8c:	687b      	ldr	r3, [r7, #4]
 8006f8e:	4a17      	ldr	r2, [pc, #92]	@ (8006fec <TIM_ResetCallback+0xe0>)
 8006f90:	f8c3 20c0 	str.w	r2, [r3, #192]	@ 0xc0
 8006f94:	687b      	ldr	r3, [r7, #4]
 8006f96:	4a16      	ldr	r2, [pc, #88]	@ (8006ff0 <TIM_ResetCallback+0xe4>)
 8006f98:	f8c3 20c4 	str.w	r2, [r3, #196]	@ 0xc4
 8006f9c:	687b      	ldr	r3, [r7, #4]
 8006f9e:	4a15      	ldr	r2, [pc, #84]	@ (8006ff4 <TIM_ResetCallback+0xe8>)
 8006fa0:	f8c3 20c8 	str.w	r2, [r3, #200]	@ 0xc8
 8006fa4:	bf00      	nop
 8006fa6:	370c      	adds	r7, #12
 8006fa8:	46bd      	mov	sp, r7
 8006faa:	f85d 7b04 	ldr.w	r7, [sp], #4
 8006fae:	4770      	bx	lr
 8006fb0:	08006245 	.word	0x08006245
 8006fb4:	08006259 	.word	0x08006259
 8006fb8:	080062d1 	.word	0x080062d1
 8006fbc:	080062e5 	.word	0x080062e5
 8006fc0:	08006281 	.word	0x08006281
 8006fc4:	08006295 	.word	0x08006295
 8006fc8:	0800626d 	.word	0x0800626d
 8006fcc:	080062a9 	.word	0x080062a9
 8006fd0:	080062bd 	.word	0x080062bd
 8006fd4:	080062f9 	.word	0x080062f9
 8006fd8:	0800724d 	.word	0x0800724d
 8006fdc:	08007261 	.word	0x08007261
 8006fe0:	08007275 	.word	0x08007275
 8006fe4:	08007289 	.word	0x08007289
 8006fe8:	0800729d 	.word	0x0800729d
 8006fec:	080072b1 	.word	0x080072b1
 8006ff0:	080072c5 	.word	0x080072c5
 8006ff4:	080072d9 	.word	0x080072d9

08006ff8 <HAL_TIMEx_MasterConfigSynchronization>:
 8006ff8:	b480      	push	{r7}
 8006ffa:	b085      	sub	sp, #20
 8006ffc:	af00      	add	r7, sp, #0
 8006ffe:	6078      	str	r0, [r7, #4]
 8007000:	6039      	str	r1, [r7, #0]
 8007002:	687b      	ldr	r3, [r7, #4]
 8007004:	f893 303c 	ldrb.w	r3, [r3, #60]	@ 0x3c
 8007008:	2b01      	cmp	r3, #1
 800700a:	d101      	bne.n	8007010 <HAL_TIMEx_MasterConfigSynchronization+0x18>
 800700c:	2302      	movs	r3, #2
 800700e:	e074      	b.n	80070fa <HAL_TIMEx_MasterConfigSynchronization+0x102>
 8007010:	687b      	ldr	r3, [r7, #4]
 8007012:	2201      	movs	r2, #1
 8007014:	f883 203c 	strb.w	r2, [r3, #60]	@ 0x3c
 8007018:	687b      	ldr	r3, [r7, #4]
 800701a:	2202      	movs	r2, #2
 800701c:	f883 203d 	strb.w	r2, [r3, #61]	@ 0x3d
 8007020:	687b      	ldr	r3, [r7, #4]
 8007022:	681b      	ldr	r3, [r3, #0]
 8007024:	685b      	ldr	r3, [r3, #4]
 8007026:	60fb      	str	r3, [r7, #12]
 8007028:	687b      	ldr	r3, [r7, #4]
 800702a:	681b      	ldr	r3, [r3, #0]
 800702c:	689b      	ldr	r3, [r3, #8]
 800702e:	60bb      	str	r3, [r7, #8]
 8007030:	687b      	ldr	r3, [r7, #4]
 8007032:	681b      	ldr	r3, [r3, #0]
 8007034:	4a34      	ldr	r2, [pc, #208]	@ (8007108 <HAL_TIMEx_MasterConfigSynchronization+0x110>)
 8007036:	4293      	cmp	r3, r2
 8007038:	d009      	beq.n	800704e <HAL_TIMEx_MasterConfigSynchronization+0x56>
 800703a:	687b      	ldr	r3, [r7, #4]
 800703c:	681b      	ldr	r3, [r3, #0]
 800703e:	4a33      	ldr	r2, [pc, #204]	@ (800710c <HAL_TIMEx_MasterConfigSynchronization+0x114>)
 8007040:	4293      	cmp	r3, r2
 8007042:	d004      	beq.n	800704e <HAL_TIMEx_MasterConfigSynchronization+0x56>
 8007044:	687b      	ldr	r3, [r7, #4]
 8007046:	681b      	ldr	r3, [r3, #0]
 8007048:	4a31      	ldr	r2, [pc, #196]	@ (8007110 <HAL_TIMEx_MasterConfigSynchronization+0x118>)
 800704a:	4293      	cmp	r3, r2
 800704c:	d108      	bne.n	8007060 <HAL_TIMEx_MasterConfigSynchronization+0x68>
 800704e:	68fb      	ldr	r3, [r7, #12]
 8007050:	f423 0370 	bic.w	r3, r3, #15728640	@ 0xf00000
 8007054:	60fb      	str	r3, [r7, #12]
 8007056:	683b      	ldr	r3, [r7, #0]
 8007058:	685b      	ldr	r3, [r3, #4]
 800705a:	68fa      	ldr	r2, [r7, #12]
 800705c:	4313      	orrs	r3, r2
 800705e:	60fb      	str	r3, [r7, #12]
 8007060:	68fb      	ldr	r3, [r7, #12]
 8007062:	f023 7300 	bic.w	r3, r3, #33554432	@ 0x2000000
 8007066:	f023 0370 	bic.w	r3, r3, #112	@ 0x70
 800706a:	60fb      	str	r3, [r7, #12]
 800706c:	683b      	ldr	r3, [r7, #0]
 800706e:	681b      	ldr	r3, [r3, #0]
 8007070:	68fa      	ldr	r2, [r7, #12]
 8007072:	4313      	orrs	r3, r2
 8007074:	60fb      	str	r3, [r7, #12]
 8007076:	687b      	ldr	r3, [r7, #4]
 8007078:	681b      	ldr	r3, [r3, #0]
 800707a:	68fa      	ldr	r2, [r7, #12]
 800707c:	605a      	str	r2, [r3, #4]
 800707e:	687b      	ldr	r3, [r7, #4]
 8007080:	681b      	ldr	r3, [r3, #0]
 8007082:	4a21      	ldr	r2, [pc, #132]	@ (8007108 <HAL_TIMEx_MasterConfigSynchronization+0x110>)
 8007084:	4293      	cmp	r3, r2
 8007086:	d022      	beq.n	80070ce <HAL_TIMEx_MasterConfigSynchronization+0xd6>
 8007088:	687b      	ldr	r3, [r7, #4]
 800708a:	681b      	ldr	r3, [r3, #0]
 800708c:	f1b3 4f80 	cmp.w	r3, #1073741824	@ 0x40000000
 8007090:	d01d      	beq.n	80070ce <HAL_TIMEx_MasterConfigSynchronization+0xd6>
 8007092:	687b      	ldr	r3, [r7, #4]
 8007094:	681b      	ldr	r3, [r3, #0]
 8007096:	4a1f      	ldr	r2, [pc, #124]	@ (8007114 <HAL_TIMEx_MasterConfigSynchronization+0x11c>)
 8007098:	4293      	cmp	r3, r2
 800709a:	d018      	beq.n	80070ce <HAL_TIMEx_MasterConfigSynchronization+0xd6>
 800709c:	687b      	ldr	r3, [r7, #4]
 800709e:	681b      	ldr	r3, [r3, #0]
 80070a0:	4a1d      	ldr	r2, [pc, #116]	@ (8007118 <HAL_TIMEx_MasterConfigSynchronization+0x120>)
 80070a2:	4293      	cmp	r3, r2
 80070a4:	d013      	beq.n	80070ce <HAL_TIMEx_MasterConfigSynchronization+0xd6>
 80070a6:	687b      	ldr	r3, [r7, #4]
 80070a8:	681b      	ldr	r3, [r3, #0]
 80070aa:	4a1c      	ldr	r2, [pc, #112]	@ (800711c <HAL_TIMEx_MasterConfigSynchronization+0x124>)
 80070ac:	4293      	cmp	r3, r2
 80070ae:	d00e      	beq.n	80070ce <HAL_TIMEx_MasterConfigSynchronization+0xd6>
 80070b0:	687b      	ldr	r3, [r7, #4]
 80070b2:	681b      	ldr	r3, [r3, #0]
 80070b4:	4a15      	ldr	r2, [pc, #84]	@ (800710c <HAL_TIMEx_MasterConfigSynchronization+0x114>)
 80070b6:	4293      	cmp	r3, r2
 80070b8:	d009      	beq.n	80070ce <HAL_TIMEx_MasterConfigSynchronization+0xd6>
 80070ba:	687b      	ldr	r3, [r7, #4]
 80070bc:	681b      	ldr	r3, [r3, #0]
 80070be:	4a18      	ldr	r2, [pc, #96]	@ (8007120 <HAL_TIMEx_MasterConfigSynchronization+0x128>)
 80070c0:	4293      	cmp	r3, r2
 80070c2:	d004      	beq.n	80070ce <HAL_TIMEx_MasterConfigSynchronization+0xd6>
 80070c4:	687b      	ldr	r3, [r7, #4]
 80070c6:	681b      	ldr	r3, [r3, #0]
 80070c8:	4a11      	ldr	r2, [pc, #68]	@ (8007110 <HAL_TIMEx_MasterConfigSynchronization+0x118>)
 80070ca:	4293      	cmp	r3, r2
 80070cc:	d10c      	bne.n	80070e8 <HAL_TIMEx_MasterConfigSynchronization+0xf0>
 80070ce:	68bb      	ldr	r3, [r7, #8]
 80070d0:	f023 0380 	bic.w	r3, r3, #128	@ 0x80
 80070d4:	60bb      	str	r3, [r7, #8]
 80070d6:	683b      	ldr	r3, [r7, #0]
 80070d8:	689b      	ldr	r3, [r3, #8]
 80070da:	68ba      	ldr	r2, [r7, #8]
 80070dc:	4313      	orrs	r3, r2
 80070de:	60bb      	str	r3, [r7, #8]
 80070e0:	687b      	ldr	r3, [r7, #4]
 80070e2:	681b      	ldr	r3, [r3, #0]
 80070e4:	68ba      	ldr	r2, [r7, #8]
 80070e6:	609a      	str	r2, [r3, #8]
 80070e8:	687b      	ldr	r3, [r7, #4]
 80070ea:	2201      	movs	r2, #1
 80070ec:	f883 203d 	strb.w	r2, [r3, #61]	@ 0x3d
 80070f0:	687b      	ldr	r3, [r7, #4]
 80070f2:	2200      	movs	r2, #0
 80070f4:	f883 203c 	strb.w	r2, [r3, #60]	@ 0x3c
 80070f8:	2300      	movs	r3, #0
 80070fa:	4618      	mov	r0, r3
 80070fc:	3714      	adds	r7, #20
 80070fe:	46bd      	mov	sp, r7
 8007100:	f85d 7b04 	ldr.w	r7, [sp], #4
 8007104:	4770      	bx	lr
 8007106:	bf00      	nop
 8007108:	40012c00 	.word	0x40012c00
 800710c:	40013400 	.word	0x40013400
 8007110:	40015000 	.word	0x40015000
 8007114:	40000400 	.word	0x40000400
 8007118:	40000800 	.word	0x40000800
 800711c:	40000c00 	.word	0x40000c00
 8007120:	40014000 	.word	0x40014000

08007124 <HAL_TIMEx_ConfigBreakDeadTime>:
 8007124:	b480      	push	{r7}
 8007126:	b085      	sub	sp, #20
 8007128:	af00      	add	r7, sp, #0
 800712a:	6078      	str	r0, [r7, #4]
 800712c:	6039      	str	r1, [r7, #0]
 800712e:	2300      	movs	r3, #0
 8007130:	60fb      	str	r3, [r7, #12]
 8007132:	687b      	ldr	r3, [r7, #4]
 8007134:	f893 303c 	ldrb.w	r3, [r3, #60]	@ 0x3c
 8007138:	2b01      	cmp	r3, #1
 800713a:	d101      	bne.n	8007140 <HAL_TIMEx_ConfigBreakDeadTime+0x1c>
 800713c:	2302      	movs	r3, #2
 800713e:	e078      	b.n	8007232 <HAL_TIMEx_ConfigBreakDeadTime+0x10e>
 8007140:	687b      	ldr	r3, [r7, #4]
 8007142:	2201      	movs	r2, #1
 8007144:	f883 203c 	strb.w	r2, [r3, #60]	@ 0x3c
 8007148:	68fb      	ldr	r3, [r7, #12]
 800714a:	f023 02ff 	bic.w	r2, r3, #255	@ 0xff
 800714e:	683b      	ldr	r3, [r7, #0]
 8007150:	68db      	ldr	r3, [r3, #12]
 8007152:	4313      	orrs	r3, r2
 8007154:	60fb      	str	r3, [r7, #12]
 8007156:	68fb      	ldr	r3, [r7, #12]
 8007158:	f423 7240 	bic.w	r2, r3, #768	@ 0x300
 800715c:	683b      	ldr	r3, [r7, #0]
 800715e:	689b      	ldr	r3, [r3, #8]
 8007160:	4313      	orrs	r3, r2
 8007162:	60fb      	str	r3, [r7, #12]
 8007164:	68fb      	ldr	r3, [r7, #12]
 8007166:	f423 6280 	bic.w	r2, r3, #1024	@ 0x400
 800716a:	683b      	ldr	r3, [r7, #0]
 800716c:	685b      	ldr	r3, [r3, #4]
 800716e:	4313      	orrs	r3, r2
 8007170:	60fb      	str	r3, [r7, #12]
 8007172:	68fb      	ldr	r3, [r7, #12]
 8007174:	f423 6200 	bic.w	r2, r3, #2048	@ 0x800
 8007178:	683b      	ldr	r3, [r7, #0]
 800717a:	681b      	ldr	r3, [r3, #0]
 800717c:	4313      	orrs	r3, r2
 800717e:	60fb      	str	r3, [r7, #12]
 8007180:	68fb      	ldr	r3, [r7, #12]
 8007182:	f423 5280 	bic.w	r2, r3, #4096	@ 0x1000
 8007186:	683b      	ldr	r3, [r7, #0]
 8007188:	691b      	ldr	r3, [r3, #16]
 800718a:	4313      	orrs	r3, r2
 800718c:	60fb      	str	r3, [r7, #12]
 800718e:	68fb      	ldr	r3, [r7, #12]
 8007190:	f423 5200 	bic.w	r2, r3, #8192	@ 0x2000
 8007194:	683b      	ldr	r3, [r7, #0]
 8007196:	695b      	ldr	r3, [r3, #20]
 8007198:	4313      	orrs	r3, r2
 800719a:	60fb      	str	r3, [r7, #12]
 800719c:	68fb      	ldr	r3, [r7, #12]
 800719e:	f423 4280 	bic.w	r2, r3, #16384	@ 0x4000
 80071a2:	683b      	ldr	r3, [r7, #0]
 80071a4:	6b1b      	ldr	r3, [r3, #48]	@ 0x30
 80071a6:	4313      	orrs	r3, r2
 80071a8:	60fb      	str	r3, [r7, #12]
 80071aa:	68fb      	ldr	r3, [r7, #12]
 80071ac:	f423 2270 	bic.w	r2, r3, #983040	@ 0xf0000
 80071b0:	683b      	ldr	r3, [r7, #0]
 80071b2:	699b      	ldr	r3, [r3, #24]
 80071b4:	041b      	lsls	r3, r3, #16
 80071b6:	4313      	orrs	r3, r2
 80071b8:	60fb      	str	r3, [r7, #12]
 80071ba:	68fb      	ldr	r3, [r7, #12]
 80071bc:	f023 5280 	bic.w	r2, r3, #268435456	@ 0x10000000
 80071c0:	683b      	ldr	r3, [r7, #0]
 80071c2:	69db      	ldr	r3, [r3, #28]
 80071c4:	4313      	orrs	r3, r2
 80071c6:	60fb      	str	r3, [r7, #12]
 80071c8:	687b      	ldr	r3, [r7, #4]
 80071ca:	681b      	ldr	r3, [r3, #0]
 80071cc:	4a1c      	ldr	r2, [pc, #112]	@ (8007240 <HAL_TIMEx_ConfigBreakDeadTime+0x11c>)
 80071ce:	4293      	cmp	r3, r2
 80071d0:	d009      	beq.n	80071e6 <HAL_TIMEx_ConfigBreakDeadTime+0xc2>
 80071d2:	687b      	ldr	r3, [r7, #4]
 80071d4:	681b      	ldr	r3, [r3, #0]
 80071d6:	4a1b      	ldr	r2, [pc, #108]	@ (8007244 <HAL_TIMEx_ConfigBreakDeadTime+0x120>)
 80071d8:	4293      	cmp	r3, r2
 80071da:	d004      	beq.n	80071e6 <HAL_TIMEx_ConfigBreakDeadTime+0xc2>
 80071dc:	687b      	ldr	r3, [r7, #4]
 80071de:	681b      	ldr	r3, [r3, #0]
 80071e0:	4a19      	ldr	r2, [pc, #100]	@ (8007248 <HAL_TIMEx_ConfigBreakDeadTime+0x124>)
 80071e2:	4293      	cmp	r3, r2
 80071e4:	d11c      	bne.n	8007220 <HAL_TIMEx_ConfigBreakDeadTime+0xfc>
 80071e6:	68fb      	ldr	r3, [r7, #12]
 80071e8:	f423 0270 	bic.w	r2, r3, #15728640	@ 0xf00000
 80071ec:	683b      	ldr	r3, [r7, #0]
 80071ee:	6a9b      	ldr	r3, [r3, #40]	@ 0x28
 80071f0:	051b      	lsls	r3, r3, #20
 80071f2:	4313      	orrs	r3, r2
 80071f4:	60fb      	str	r3, [r7, #12]
 80071f6:	68fb      	ldr	r3, [r7, #12]
 80071f8:	f023 7280 	bic.w	r2, r3, #16777216	@ 0x1000000
 80071fc:	683b      	ldr	r3, [r7, #0]
 80071fe:	6a1b      	ldr	r3, [r3, #32]
 8007200:	4313      	orrs	r3, r2
 8007202:	60fb      	str	r3, [r7, #12]
 8007204:	68fb      	ldr	r3, [r7, #12]
 8007206:	f023 7200 	bic.w	r2, r3, #33554432	@ 0x2000000
 800720a:	683b      	ldr	r3, [r7, #0]
 800720c:	6a5b      	ldr	r3, [r3, #36]	@ 0x24
 800720e:	4313      	orrs	r3, r2
 8007210:	60fb      	str	r3, [r7, #12]
 8007212:	68fb      	ldr	r3, [r7, #12]
 8007214:	f023 5200 	bic.w	r2, r3, #536870912	@ 0x20000000
 8007218:	683b      	ldr	r3, [r7, #0]
 800721a:	6adb      	ldr	r3, [r3, #44]	@ 0x2c
 800721c:	4313      	orrs	r3, r2
 800721e:	60fb      	str	r3, [r7, #12]
 8007220:	687b      	ldr	r3, [r7, #4]
 8007222:	681b      	ldr	r3, [r3, #0]
 8007224:	68fa      	ldr	r2, [r7, #12]
 8007226:	645a      	str	r2, [r3, #68]	@ 0x44
 8007228:	687b      	ldr	r3, [r7, #4]
 800722a:	2200      	movs	r2, #0
 800722c:	f883 203c 	strb.w	r2, [r3, #60]	@ 0x3c
 8007230:	2300      	movs	r3, #0
 8007232:	4618      	mov	r0, r3
 8007234:	3714      	adds	r7, #20
 8007236:	46bd      	mov	sp, r7
 8007238:	f85d 7b04 	ldr.w	r7, [sp], #4
 800723c:	4770      	bx	lr
 800723e:	bf00      	nop
 8007240:	40012c00 	.word	0x40012c00
 8007244:	40013400 	.word	0x40013400
 8007248:	40015000 	.word	0x40015000

0800724c <HAL_TIMEx_CommutCallback>:
 800724c:	b480      	push	{r7}
 800724e:	b083      	sub	sp, #12
 8007250:	af00      	add	r7, sp, #0
 8007252:	6078      	str	r0, [r7, #4]
 8007254:	bf00      	nop
 8007256:	370c      	adds	r7, #12
 8007258:	46bd      	mov	sp, r7
 800725a:	f85d 7b04 	ldr.w	r7, [sp], #4
 800725e:	4770      	bx	lr

08007260 <HAL_TIMEx_CommutHalfCpltCallback>:
 8007260:	b480      	push	{r7}
 8007262:	b083      	sub	sp, #12
 8007264:	af00      	add	r7, sp, #0
 8007266:	6078      	str	r0, [r7, #4]
 8007268:	bf00      	nop
 800726a:	370c      	adds	r7, #12
 800726c:	46bd      	mov	sp, r7
 800726e:	f85d 7b04 	ldr.w	r7, [sp], #4
 8007272:	4770      	bx	lr

08007274 <HAL_TIMEx_BreakCallback>:
 8007274:	b480      	push	{r7}
 8007276:	b083      	sub	sp, #12
 8007278:	af00      	add	r7, sp, #0
 800727a:	6078      	str	r0, [r7, #4]
 800727c:	bf00      	nop
 800727e:	370c      	adds	r7, #12
 8007280:	46bd      	mov	sp, r7
 8007282:	f85d 7b04 	ldr.w	r7, [sp], #4
 8007286:	4770      	bx	lr

08007288 <HAL_TIMEx_Break2Callback>:
 8007288:	b480      	push	{r7}
 800728a:	b083      	sub	sp, #12
 800728c:	af00      	add	r7, sp, #0
 800728e:	6078      	str	r0, [r7, #4]
 8007290:	bf00      	nop
 8007292:	370c      	adds	r7, #12
 8007294:	46bd      	mov	sp, r7
 8007296:	f85d 7b04 	ldr.w	r7, [sp], #4
 800729a:	4770      	bx	lr

0800729c <HAL_TIMEx_EncoderIndexCallback>:
 800729c:	b480      	push	{r7}
 800729e:	b083      	sub	sp, #12
 80072a0:	af00      	add	r7, sp, #0
 80072a2:	6078      	str	r0, [r7, #4]
 80072a4:	bf00      	nop
 80072a6:	370c      	adds	r7, #12
 80072a8:	46bd      	mov	sp, r7
 80072aa:	f85d 7b04 	ldr.w	r7, [sp], #4
 80072ae:	4770      	bx	lr

080072b0 <HAL_TIMEx_DirectionChangeCallback>:
 80072b0:	b480      	push	{r7}
 80072b2:	b083      	sub	sp, #12
 80072b4:	af00      	add	r7, sp, #0
 80072b6:	6078      	str	r0, [r7, #4]
 80072b8:	bf00      	nop
 80072ba:	370c      	adds	r7, #12
 80072bc:	46bd      	mov	sp, r7
 80072be:	f85d 7b04 	ldr.w	r7, [sp], #4
 80072c2:	4770      	bx	lr

080072c4 <HAL_TIMEx_IndexErrorCallback>:
 80072c4:	b480      	push	{r7}
 80072c6:	b083      	sub	sp, #12
 80072c8:	af00      	add	r7, sp, #0
 80072ca:	6078      	str	r0, [r7, #4]
 80072cc:	bf00      	nop
 80072ce:	370c      	adds	r7, #12
 80072d0:	46bd      	mov	sp, r7
 80072d2:	f85d 7b04 	ldr.w	r7, [sp], #4
 80072d6:	4770      	bx	lr

080072d8 <HAL_TIMEx_TransitionErrorCallback>:
 80072d8:	b480      	push	{r7}
 80072da:	b083      	sub	sp, #12
 80072dc:	af00      	add	r7, sp, #0
 80072de:	6078      	str	r0, [r7, #4]
 80072e0:	bf00      	nop
 80072e2:	370c      	adds	r7, #12
 80072e4:	46bd      	mov	sp, r7
 80072e6:	f85d 7b04 	ldr.w	r7, [sp], #4
 80072ea:	4770      	bx	lr

080072ec <HAL_UART_Init>:
 80072ec:	b580      	push	{r7, lr}
 80072ee:	b082      	sub	sp, #8
 80072f0:	af00      	add	r7, sp, #0
 80072f2:	6078      	str	r0, [r7, #4]
 80072f4:	687b      	ldr	r3, [r7, #4]
 80072f6:	2b00      	cmp	r3, #0
 80072f8:	d101      	bne.n	80072fe <HAL_UART_Init+0x12>
 80072fa:	2301      	movs	r3, #1
 80072fc:	e050      	b.n	80073a0 <HAL_UART_Init+0xb4>
 80072fe:	687b      	ldr	r3, [r7, #4]
 8007300:	f8d3 3088 	ldr.w	r3, [r3, #136]	@ 0x88
 8007304:	2b00      	cmp	r3, #0
 8007306:	d114      	bne.n	8007332 <HAL_UART_Init+0x46>
 8007308:	687b      	ldr	r3, [r7, #4]
 800730a:	2200      	movs	r2, #0
 800730c:	f883 2084 	strb.w	r2, [r3, #132]	@ 0x84
 8007310:	6878      	ldr	r0, [r7, #4]
 8007312:	f000 fe37 	bl	8007f84 <UART_InitCallbacksToDefault>
 8007316:	687b      	ldr	r3, [r7, #4]
 8007318:	f8d3 30c4 	ldr.w	r3, [r3, #196]	@ 0xc4
 800731c:	2b00      	cmp	r3, #0
 800731e:	d103      	bne.n	8007328 <HAL_UART_Init+0x3c>
 8007320:	687b      	ldr	r3, [r7, #4]
 8007322:	4a21      	ldr	r2, [pc, #132]	@ (80073a8 <HAL_UART_Init+0xbc>)
 8007324:	f8c3 20c4 	str.w	r2, [r3, #196]	@ 0xc4
 8007328:	687b      	ldr	r3, [r7, #4]
 800732a:	f8d3 30c4 	ldr.w	r3, [r3, #196]	@ 0xc4
 800732e:	6878      	ldr	r0, [r7, #4]
 8007330:	4798      	blx	r3
 8007332:	687b      	ldr	r3, [r7, #4]
 8007334:	2224      	movs	r2, #36	@ 0x24
 8007336:	f8c3 2088 	str.w	r2, [r3, #136]	@ 0x88
 800733a:	687b      	ldr	r3, [r7, #4]
 800733c:	681b      	ldr	r3, [r3, #0]
 800733e:	681a      	ldr	r2, [r3, #0]
 8007340:	687b      	ldr	r3, [r7, #4]
 8007342:	681b      	ldr	r3, [r3, #0]
 8007344:	f022 0201 	bic.w	r2, r2, #1
 8007348:	601a      	str	r2, [r3, #0]
 800734a:	687b      	ldr	r3, [r7, #4]
 800734c:	6a9b      	ldr	r3, [r3, #40]	@ 0x28
 800734e:	2b00      	cmp	r3, #0
 8007350:	d002      	beq.n	8007358 <HAL_UART_Init+0x6c>
 8007352:	6878      	ldr	r0, [r7, #4]
 8007354:	f001 f964 	bl	8008620 <UART_AdvFeatureConfig>
 8007358:	6878      	ldr	r0, [r7, #4]
 800735a:	f000 fe65 	bl	8008028 <UART_SetConfig>
 800735e:	4603      	mov	r3, r0
 8007360:	2b01      	cmp	r3, #1
 8007362:	d101      	bne.n	8007368 <HAL_UART_Init+0x7c>
 8007364:	2301      	movs	r3, #1
 8007366:	e01b      	b.n	80073a0 <HAL_UART_Init+0xb4>
 8007368:	687b      	ldr	r3, [r7, #4]
 800736a:	681b      	ldr	r3, [r3, #0]
 800736c:	685a      	ldr	r2, [r3, #4]
 800736e:	687b      	ldr	r3, [r7, #4]
 8007370:	681b      	ldr	r3, [r3, #0]
 8007372:	f422 4290 	bic.w	r2, r2, #18432	@ 0x4800
 8007376:	605a      	str	r2, [r3, #4]
 8007378:	687b      	ldr	r3, [r7, #4]
 800737a:	681b      	ldr	r3, [r3, #0]
 800737c:	689a      	ldr	r2, [r3, #8]
 800737e:	687b      	ldr	r3, [r7, #4]
 8007380:	681b      	ldr	r3, [r3, #0]
 8007382:	f022 022a 	bic.w	r2, r2, #42	@ 0x2a
 8007386:	609a      	str	r2, [r3, #8]
 8007388:	687b      	ldr	r3, [r7, #4]
 800738a:	681b      	ldr	r3, [r3, #0]
 800738c:	681a      	ldr	r2, [r3, #0]
 800738e:	687b      	ldr	r3, [r7, #4]
 8007390:	681b      	ldr	r3, [r3, #0]
 8007392:	f042 0201 	orr.w	r2, r2, #1
 8007396:	601a      	str	r2, [r3, #0]
 8007398:	6878      	ldr	r0, [r7, #4]
 800739a:	f001 f9e3 	bl	8008764 <UART_CheckIdleState>
 800739e:	4603      	mov	r3, r0
 80073a0:	4618      	mov	r0, r3
 80073a2:	3708      	adds	r7, #8
 80073a4:	46bd      	mov	sp, r7
 80073a6:	bd80      	pop	{r7, pc}
 80073a8:	08002059 	.word	0x08002059

080073ac <HAL_UART_RegisterCallback>:
 80073ac:	b480      	push	{r7}
 80073ae:	b087      	sub	sp, #28
 80073b0:	af00      	add	r7, sp, #0
 80073b2:	60f8      	str	r0, [r7, #12]
 80073b4:	460b      	mov	r3, r1
 80073b6:	607a      	str	r2, [r7, #4]
 80073b8:	72fb      	strb	r3, [r7, #11]
 80073ba:	2300      	movs	r3, #0
 80073bc:	75fb      	strb	r3, [r7, #23]
 80073be:	687b      	ldr	r3, [r7, #4]
 80073c0:	2b00      	cmp	r3, #0
 80073c2:	d109      	bne.n	80073d8 <HAL_UART_RegisterCallback+0x2c>
 80073c4:	68fb      	ldr	r3, [r7, #12]
 80073c6:	f8d3 3090 	ldr.w	r3, [r3, #144]	@ 0x90
 80073ca:	f043 0240 	orr.w	r2, r3, #64	@ 0x40
 80073ce:	68fb      	ldr	r3, [r7, #12]
 80073d0:	f8c3 2090 	str.w	r2, [r3, #144]	@ 0x90
 80073d4:	2301      	movs	r3, #1
 80073d6:	e09c      	b.n	8007512 <HAL_UART_RegisterCallback+0x166>
 80073d8:	68fb      	ldr	r3, [r7, #12]
 80073da:	f8d3 3088 	ldr.w	r3, [r3, #136]	@ 0x88
 80073de:	2b20      	cmp	r3, #32
 80073e0:	d16c      	bne.n	80074bc <HAL_UART_RegisterCallback+0x110>
 80073e2:	7afb      	ldrb	r3, [r7, #11]
 80073e4:	2b0c      	cmp	r3, #12
 80073e6:	d85e      	bhi.n	80074a6 <HAL_UART_RegisterCallback+0xfa>
 80073e8:	a201      	add	r2, pc, #4	@ (adr r2, 80073f0 <HAL_UART_RegisterCallback+0x44>)
 80073ea:	f852 f023 	ldr.w	pc, [r2, r3, lsl #2]
 80073ee:	bf00      	nop
 80073f0:	08007425 	.word	0x08007425
 80073f4:	0800742f 	.word	0x0800742f
 80073f8:	08007439 	.word	0x08007439
 80073fc:	08007443 	.word	0x08007443
 8007400:	0800744d 	.word	0x0800744d
 8007404:	08007457 	.word	0x08007457
 8007408:	08007461 	.word	0x08007461
 800740c:	0800746b 	.word	0x0800746b
 8007410:	08007475 	.word	0x08007475
 8007414:	0800747f 	.word	0x0800747f
 8007418:	08007489 	.word	0x08007489
 800741c:	08007493 	.word	0x08007493
 8007420:	0800749d 	.word	0x0800749d
 8007424:	68fb      	ldr	r3, [r7, #12]
 8007426:	687a      	ldr	r2, [r7, #4]
 8007428:	f8c3 2094 	str.w	r2, [r3, #148]	@ 0x94
 800742c:	e070      	b.n	8007510 <HAL_UART_RegisterCallback+0x164>
 800742e:	68fb      	ldr	r3, [r7, #12]
 8007430:	687a      	ldr	r2, [r7, #4]
 8007432:	f8c3 2098 	str.w	r2, [r3, #152]	@ 0x98
 8007436:	e06b      	b.n	8007510 <HAL_UART_RegisterCallback+0x164>
 8007438:	68fb      	ldr	r3, [r7, #12]
 800743a:	687a      	ldr	r2, [r7, #4]
 800743c:	f8c3 209c 	str.w	r2, [r3, #156]	@ 0x9c
 8007440:	e066      	b.n	8007510 <HAL_UART_RegisterCallback+0x164>
 8007442:	68fb      	ldr	r3, [r7, #12]
 8007444:	687a      	ldr	r2, [r7, #4]
 8007446:	f8c3 20a0 	str.w	r2, [r3, #160]	@ 0xa0
 800744a:	e061      	b.n	8007510 <HAL_UART_RegisterCallback+0x164>
 800744c:	68fb      	ldr	r3, [r7, #12]
 800744e:	687a      	ldr	r2, [r7, #4]
 8007450:	f8c3 20a4 	str.w	r2, [r3, #164]	@ 0xa4
 8007454:	e05c      	b.n	8007510 <HAL_UART_RegisterCallback+0x164>
 8007456:	68fb      	ldr	r3, [r7, #12]
 8007458:	687a      	ldr	r2, [r7, #4]
 800745a:	f8c3 20a8 	str.w	r2, [r3, #168]	@ 0xa8
 800745e:	e057      	b.n	8007510 <HAL_UART_RegisterCallback+0x164>
 8007460:	68fb      	ldr	r3, [r7, #12]
 8007462:	687a      	ldr	r2, [r7, #4]
 8007464:	f8c3 20ac 	str.w	r2, [r3, #172]	@ 0xac
 8007468:	e052      	b.n	8007510 <HAL_UART_RegisterCallback+0x164>
 800746a:	68fb      	ldr	r3, [r7, #12]
 800746c:	687a      	ldr	r2, [r7, #4]
 800746e:	f8c3 20b0 	str.w	r2, [r3, #176]	@ 0xb0
 8007472:	e04d      	b.n	8007510 <HAL_UART_RegisterCallback+0x164>
 8007474:	68fb      	ldr	r3, [r7, #12]
 8007476:	687a      	ldr	r2, [r7, #4]
 8007478:	f8c3 20b4 	str.w	r2, [r3, #180]	@ 0xb4
 800747c:	e048      	b.n	8007510 <HAL_UART_RegisterCallback+0x164>
 800747e:	68fb      	ldr	r3, [r7, #12]
 8007480:	687a      	ldr	r2, [r7, #4]
 8007482:	f8c3 20b8 	str.w	r2, [r3, #184]	@ 0xb8
 8007486:	e043      	b.n	8007510 <HAL_UART_RegisterCallback+0x164>
 8007488:	68fb      	ldr	r3, [r7, #12]
 800748a:	687a      	ldr	r2, [r7, #4]
 800748c:	f8c3 20bc 	str.w	r2, [r3, #188]	@ 0xbc
 8007490:	e03e      	b.n	8007510 <HAL_UART_RegisterCallback+0x164>
 8007492:	68fb      	ldr	r3, [r7, #12]
 8007494:	687a      	ldr	r2, [r7, #4]
 8007496:	f8c3 20c4 	str.w	r2, [r3, #196]	@ 0xc4
 800749a:	e039      	b.n	8007510 <HAL_UART_RegisterCallback+0x164>
 800749c:	68fb      	ldr	r3, [r7, #12]
 800749e:	687a      	ldr	r2, [r7, #4]
 80074a0:	f8c3 20c8 	str.w	r2, [r3, #200]	@ 0xc8
 80074a4:	e034      	b.n	8007510 <HAL_UART_RegisterCallback+0x164>
 80074a6:	68fb      	ldr	r3, [r7, #12]
 80074a8:	f8d3 3090 	ldr.w	r3, [r3, #144]	@ 0x90
 80074ac:	f043 0240 	orr.w	r2, r3, #64	@ 0x40
 80074b0:	68fb      	ldr	r3, [r7, #12]
 80074b2:	f8c3 2090 	str.w	r2, [r3, #144]	@ 0x90
 80074b6:	2301      	movs	r3, #1
 80074b8:	75fb      	strb	r3, [r7, #23]
 80074ba:	e029      	b.n	8007510 <HAL_UART_RegisterCallback+0x164>
 80074bc:	68fb      	ldr	r3, [r7, #12]
 80074be:	f8d3 3088 	ldr.w	r3, [r3, #136]	@ 0x88
 80074c2:	2b00      	cmp	r3, #0
 80074c4:	d11a      	bne.n	80074fc <HAL_UART_RegisterCallback+0x150>
 80074c6:	7afb      	ldrb	r3, [r7, #11]
 80074c8:	2b0b      	cmp	r3, #11
 80074ca:	d002      	beq.n	80074d2 <HAL_UART_RegisterCallback+0x126>
 80074cc:	2b0c      	cmp	r3, #12
 80074ce:	d005      	beq.n	80074dc <HAL_UART_RegisterCallback+0x130>
 80074d0:	e009      	b.n	80074e6 <HAL_UART_RegisterCallback+0x13a>
 80074d2:	68fb      	ldr	r3, [r7, #12]
 80074d4:	687a      	ldr	r2, [r7, #4]
 80074d6:	f8c3 20c4 	str.w	r2, [r3, #196]	@ 0xc4
 80074da:	e019      	b.n	8007510 <HAL_UART_RegisterCallback+0x164>
 80074dc:	68fb      	ldr	r3, [r7, #12]
 80074de:	687a      	ldr	r2, [r7, #4]
 80074e0:	f8c3 20c8 	str.w	r2, [r3, #200]	@ 0xc8
 80074e4:	e014      	b.n	8007510 <HAL_UART_RegisterCallback+0x164>
 80074e6:	68fb      	ldr	r3, [r7, #12]
 80074e8:	f8d3 3090 	ldr.w	r3, [r3, #144]	@ 0x90
 80074ec:	f043 0240 	orr.w	r2, r3, #64	@ 0x40
 80074f0:	68fb      	ldr	r3, [r7, #12]
 80074f2:	f8c3 2090 	str.w	r2, [r3, #144]	@ 0x90
 80074f6:	2301      	movs	r3, #1
 80074f8:	75fb      	strb	r3, [r7, #23]
 80074fa:	e009      	b.n	8007510 <HAL_UART_RegisterCallback+0x164>
 80074fc:	68fb      	ldr	r3, [r7, #12]
 80074fe:	f8d3 3090 	ldr.w	r3, [r3, #144]	@ 0x90
 8007502:	f043 0240 	orr.w	r2, r3, #64	@ 0x40
 8007506:	68fb      	ldr	r3, [r7, #12]
 8007508:	f8c3 2090 	str.w	r2, [r3, #144]	@ 0x90
 800750c:	2301      	movs	r3, #1
 800750e:	75fb      	strb	r3, [r7, #23]
 8007510:	7dfb      	ldrb	r3, [r7, #23]
 8007512:	4618      	mov	r0, r3
 8007514:	371c      	adds	r7, #28
 8007516:	46bd      	mov	sp, r7
 8007518:	f85d 7b04 	ldr.w	r7, [sp], #4
 800751c:	4770      	bx	lr
 800751e:	bf00      	nop

08007520 <HAL_UART_Receive_IT>:
 8007520:	b580      	push	{r7, lr}
 8007522:	b08a      	sub	sp, #40	@ 0x28
 8007524:	af00      	add	r7, sp, #0
 8007526:	60f8      	str	r0, [r7, #12]
 8007528:	60b9      	str	r1, [r7, #8]
 800752a:	4613      	mov	r3, r2
 800752c:	80fb      	strh	r3, [r7, #6]
 800752e:	68fb      	ldr	r3, [r7, #12]
 8007530:	f8d3 308c 	ldr.w	r3, [r3, #140]	@ 0x8c
 8007534:	2b20      	cmp	r3, #32
 8007536:	d137      	bne.n	80075a8 <HAL_UART_Receive_IT+0x88>
 8007538:	68bb      	ldr	r3, [r7, #8]
 800753a:	2b00      	cmp	r3, #0
 800753c:	d002      	beq.n	8007544 <HAL_UART_Receive_IT+0x24>
 800753e:	88fb      	ldrh	r3, [r7, #6]
 8007540:	2b00      	cmp	r3, #0
 8007542:	d101      	bne.n	8007548 <HAL_UART_Receive_IT+0x28>
 8007544:	2301      	movs	r3, #1
 8007546:	e030      	b.n	80075aa <HAL_UART_Receive_IT+0x8a>
 8007548:	68fb      	ldr	r3, [r7, #12]
 800754a:	2200      	movs	r2, #0
 800754c:	66da      	str	r2, [r3, #108]	@ 0x6c
 800754e:	68fb      	ldr	r3, [r7, #12]
 8007550:	681b      	ldr	r3, [r3, #0]
 8007552:	4a18      	ldr	r2, [pc, #96]	@ (80075b4 <HAL_UART_Receive_IT+0x94>)
 8007554:	4293      	cmp	r3, r2
 8007556:	d01f      	beq.n	8007598 <HAL_UART_Receive_IT+0x78>
 8007558:	68fb      	ldr	r3, [r7, #12]
 800755a:	681b      	ldr	r3, [r3, #0]
 800755c:	685b      	ldr	r3, [r3, #4]
 800755e:	f403 0300 	and.w	r3, r3, #8388608	@ 0x800000
 8007562:	2b00      	cmp	r3, #0
 8007564:	d018      	beq.n	8007598 <HAL_UART_Receive_IT+0x78>
 8007566:	68fb      	ldr	r3, [r7, #12]
 8007568:	681b      	ldr	r3, [r3, #0]
 800756a:	617b      	str	r3, [r7, #20]
 800756c:	697b      	ldr	r3, [r7, #20]
 800756e:	e853 3f00 	ldrex	r3, [r3]
 8007572:	613b      	str	r3, [r7, #16]
 8007574:	693b      	ldr	r3, [r7, #16]
 8007576:	f043 6380 	orr.w	r3, r3, #67108864	@ 0x4000000
 800757a:	627b      	str	r3, [r7, #36]	@ 0x24
 800757c:	68fb      	ldr	r3, [r7, #12]
 800757e:	681b      	ldr	r3, [r3, #0]
 8007580:	461a      	mov	r2, r3
 8007582:	6a7b      	ldr	r3, [r7, #36]	@ 0x24
 8007584:	623b      	str	r3, [r7, #32]
 8007586:	61fa      	str	r2, [r7, #28]
 8007588:	69f9      	ldr	r1, [r7, #28]
 800758a:	6a3a      	ldr	r2, [r7, #32]
 800758c:	e841 2300 	strex	r3, r2, [r1]
 8007590:	61bb      	str	r3, [r7, #24]
 8007592:	69bb      	ldr	r3, [r7, #24]
 8007594:	2b00      	cmp	r3, #0
 8007596:	d1e6      	bne.n	8007566 <HAL_UART_Receive_IT+0x46>
 8007598:	88fb      	ldrh	r3, [r7, #6]
 800759a:	461a      	mov	r2, r3
 800759c:	68b9      	ldr	r1, [r7, #8]
 800759e:	68f8      	ldr	r0, [r7, #12]
 80075a0:	f001 f9f8 	bl	8008994 <UART_Start_Receive_IT>
 80075a4:	4603      	mov	r3, r0
 80075a6:	e000      	b.n	80075aa <HAL_UART_Receive_IT+0x8a>
 80075a8:	2302      	movs	r3, #2
 80075aa:	4618      	mov	r0, r3
 80075ac:	3728      	adds	r7, #40	@ 0x28
 80075ae:	46bd      	mov	sp, r7
 80075b0:	bd80      	pop	{r7, pc}
 80075b2:	bf00      	nop
 80075b4:	40008000 	.word	0x40008000

080075b8 <HAL_UART_Transmit_DMA>:
 80075b8:	b580      	push	{r7, lr}
 80075ba:	b08a      	sub	sp, #40	@ 0x28
 80075bc:	af00      	add	r7, sp, #0
 80075be:	60f8      	str	r0, [r7, #12]
 80075c0:	60b9      	str	r1, [r7, #8]
 80075c2:	4613      	mov	r3, r2
 80075c4:	80fb      	strh	r3, [r7, #6]
 80075c6:	68fb      	ldr	r3, [r7, #12]
 80075c8:	f8d3 3088 	ldr.w	r3, [r3, #136]	@ 0x88
 80075cc:	2b20      	cmp	r3, #32
 80075ce:	d167      	bne.n	80076a0 <HAL_UART_Transmit_DMA+0xe8>
 80075d0:	68bb      	ldr	r3, [r7, #8]
 80075d2:	2b00      	cmp	r3, #0
 80075d4:	d002      	beq.n	80075dc <HAL_UART_Transmit_DMA+0x24>
 80075d6:	88fb      	ldrh	r3, [r7, #6]
 80075d8:	2b00      	cmp	r3, #0
 80075da:	d101      	bne.n	80075e0 <HAL_UART_Transmit_DMA+0x28>
 80075dc:	2301      	movs	r3, #1
 80075de:	e060      	b.n	80076a2 <HAL_UART_Transmit_DMA+0xea>
 80075e0:	68fb      	ldr	r3, [r7, #12]
 80075e2:	68ba      	ldr	r2, [r7, #8]
 80075e4:	651a      	str	r2, [r3, #80]	@ 0x50
 80075e6:	68fb      	ldr	r3, [r7, #12]
 80075e8:	88fa      	ldrh	r2, [r7, #6]
 80075ea:	f8a3 2054 	strh.w	r2, [r3, #84]	@ 0x54
 80075ee:	68fb      	ldr	r3, [r7, #12]
 80075f0:	88fa      	ldrh	r2, [r7, #6]
 80075f2:	f8a3 2056 	strh.w	r2, [r3, #86]	@ 0x56
 80075f6:	68fb      	ldr	r3, [r7, #12]
 80075f8:	2200      	movs	r2, #0
 80075fa:	f8c3 2090 	str.w	r2, [r3, #144]	@ 0x90
 80075fe:	68fb      	ldr	r3, [r7, #12]
 8007600:	2221      	movs	r2, #33	@ 0x21
 8007602:	f8c3 2088 	str.w	r2, [r3, #136]	@ 0x88
 8007606:	68fb      	ldr	r3, [r7, #12]
 8007608:	6fdb      	ldr	r3, [r3, #124]	@ 0x7c
 800760a:	2b00      	cmp	r3, #0
 800760c:	d028      	beq.n	8007660 <HAL_UART_Transmit_DMA+0xa8>
 800760e:	68fb      	ldr	r3, [r7, #12]
 8007610:	6fdb      	ldr	r3, [r3, #124]	@ 0x7c
 8007612:	4a26      	ldr	r2, [pc, #152]	@ (80076ac <HAL_UART_Transmit_DMA+0xf4>)
 8007614:	62da      	str	r2, [r3, #44]	@ 0x2c
 8007616:	68fb      	ldr	r3, [r7, #12]
 8007618:	6fdb      	ldr	r3, [r3, #124]	@ 0x7c
 800761a:	4a25      	ldr	r2, [pc, #148]	@ (80076b0 <HAL_UART_Transmit_DMA+0xf8>)
 800761c:	631a      	str	r2, [r3, #48]	@ 0x30
 800761e:	68fb      	ldr	r3, [r7, #12]
 8007620:	6fdb      	ldr	r3, [r3, #124]	@ 0x7c
 8007622:	4a24      	ldr	r2, [pc, #144]	@ (80076b4 <HAL_UART_Transmit_DMA+0xfc>)
 8007624:	635a      	str	r2, [r3, #52]	@ 0x34
 8007626:	68fb      	ldr	r3, [r7, #12]
 8007628:	6fdb      	ldr	r3, [r3, #124]	@ 0x7c
 800762a:	2200      	movs	r2, #0
 800762c:	639a      	str	r2, [r3, #56]	@ 0x38
 800762e:	68fb      	ldr	r3, [r7, #12]
 8007630:	6fd8      	ldr	r0, [r3, #124]	@ 0x7c
 8007632:	68fb      	ldr	r3, [r7, #12]
 8007634:	6d1b      	ldr	r3, [r3, #80]	@ 0x50
 8007636:	4619      	mov	r1, r3
 8007638:	68fb      	ldr	r3, [r7, #12]
 800763a:	681b      	ldr	r3, [r3, #0]
 800763c:	3328      	adds	r3, #40	@ 0x28
 800763e:	461a      	mov	r2, r3
 8007640:	88fb      	ldrh	r3, [r7, #6]
 8007642:	f7fc f979 	bl	8003938 <HAL_DMA_Start_IT>
 8007646:	4603      	mov	r3, r0
 8007648:	2b00      	cmp	r3, #0
 800764a:	d009      	beq.n	8007660 <HAL_UART_Transmit_DMA+0xa8>
 800764c:	68fb      	ldr	r3, [r7, #12]
 800764e:	2210      	movs	r2, #16
 8007650:	f8c3 2090 	str.w	r2, [r3, #144]	@ 0x90
 8007654:	68fb      	ldr	r3, [r7, #12]
 8007656:	2220      	movs	r2, #32
 8007658:	f8c3 2088 	str.w	r2, [r3, #136]	@ 0x88
 800765c:	2301      	movs	r3, #1
 800765e:	e020      	b.n	80076a2 <HAL_UART_Transmit_DMA+0xea>
 8007660:	68fb      	ldr	r3, [r7, #12]
 8007662:	681b      	ldr	r3, [r3, #0]
 8007664:	2240      	movs	r2, #64	@ 0x40
 8007666:	621a      	str	r2, [r3, #32]
 8007668:	68fb      	ldr	r3, [r7, #12]
 800766a:	681b      	ldr	r3, [r3, #0]
 800766c:	3308      	adds	r3, #8
 800766e:	617b      	str	r3, [r7, #20]
 8007670:	697b      	ldr	r3, [r7, #20]
 8007672:	e853 3f00 	ldrex	r3, [r3]
 8007676:	613b      	str	r3, [r7, #16]
 8007678:	693b      	ldr	r3, [r7, #16]
 800767a:	f043 0380 	orr.w	r3, r3, #128	@ 0x80
 800767e:	627b      	str	r3, [r7, #36]	@ 0x24
 8007680:	68fb      	ldr	r3, [r7, #12]
 8007682:	681b      	ldr	r3, [r3, #0]
 8007684:	3308      	adds	r3, #8
 8007686:	6a7a      	ldr	r2, [r7, #36]	@ 0x24
 8007688:	623a      	str	r2, [r7, #32]
 800768a:	61fb      	str	r3, [r7, #28]
 800768c:	69f9      	ldr	r1, [r7, #28]
 800768e:	6a3a      	ldr	r2, [r7, #32]
 8007690:	e841 2300 	strex	r3, r2, [r1]
 8007694:	61bb      	str	r3, [r7, #24]
 8007696:	69bb      	ldr	r3, [r7, #24]
 8007698:	2b00      	cmp	r3, #0
 800769a:	d1e5      	bne.n	8007668 <HAL_UART_Transmit_DMA+0xb0>
 800769c:	2300      	movs	r3, #0
 800769e:	e000      	b.n	80076a2 <HAL_UART_Transmit_DMA+0xea>
 80076a0:	2302      	movs	r3, #2
 80076a2:	4618      	mov	r0, r3
 80076a4:	3728      	adds	r7, #40	@ 0x28
 80076a6:	46bd      	mov	sp, r7
 80076a8:	bd80      	pop	{r7, pc}
 80076aa:	bf00      	nop
 80076ac:	08008d27 	.word	0x08008d27
 80076b0:	08008dc5 	.word	0x08008dc5
 80076b4:	08008de5 	.word	0x08008de5

080076b8 <HAL_UART_AbortReceive>:
 80076b8:	b580      	push	{r7, lr}
 80076ba:	b09a      	sub	sp, #104	@ 0x68
 80076bc:	af00      	add	r7, sp, #0
 80076be:	6078      	str	r0, [r7, #4]
 80076c0:	687b      	ldr	r3, [r7, #4]
 80076c2:	681b      	ldr	r3, [r3, #0]
 80076c4:	64bb      	str	r3, [r7, #72]	@ 0x48
 80076c6:	6cbb      	ldr	r3, [r7, #72]	@ 0x48
 80076c8:	e853 3f00 	ldrex	r3, [r3]
 80076cc:	647b      	str	r3, [r7, #68]	@ 0x44
 80076ce:	6c7b      	ldr	r3, [r7, #68]	@ 0x44
 80076d0:	f423 7390 	bic.w	r3, r3, #288	@ 0x120
 80076d4:	667b      	str	r3, [r7, #100]	@ 0x64
 80076d6:	687b      	ldr	r3, [r7, #4]
 80076d8:	681b      	ldr	r3, [r3, #0]
 80076da:	461a      	mov	r2, r3
 80076dc:	6e7b      	ldr	r3, [r7, #100]	@ 0x64
 80076de:	657b      	str	r3, [r7, #84]	@ 0x54
 80076e0:	653a      	str	r2, [r7, #80]	@ 0x50
 80076e2:	6d39      	ldr	r1, [r7, #80]	@ 0x50
 80076e4:	6d7a      	ldr	r2, [r7, #84]	@ 0x54
 80076e6:	e841 2300 	strex	r3, r2, [r1]
 80076ea:	64fb      	str	r3, [r7, #76]	@ 0x4c
 80076ec:	6cfb      	ldr	r3, [r7, #76]	@ 0x4c
 80076ee:	2b00      	cmp	r3, #0
 80076f0:	d1e6      	bne.n	80076c0 <HAL_UART_AbortReceive+0x8>
 80076f2:	687b      	ldr	r3, [r7, #4]
 80076f4:	681b      	ldr	r3, [r3, #0]
 80076f6:	3308      	adds	r3, #8
 80076f8:	637b      	str	r3, [r7, #52]	@ 0x34
 80076fa:	6b7b      	ldr	r3, [r7, #52]	@ 0x34
 80076fc:	e853 3f00 	ldrex	r3, [r3]
 8007700:	633b      	str	r3, [r7, #48]	@ 0x30
 8007702:	6b3b      	ldr	r3, [r7, #48]	@ 0x30
 8007704:	f023 5380 	bic.w	r3, r3, #268435456	@ 0x10000000
 8007708:	f023 0301 	bic.w	r3, r3, #1
 800770c:	663b      	str	r3, [r7, #96]	@ 0x60
 800770e:	687b      	ldr	r3, [r7, #4]
 8007710:	681b      	ldr	r3, [r3, #0]
 8007712:	3308      	adds	r3, #8
 8007714:	6e3a      	ldr	r2, [r7, #96]	@ 0x60
 8007716:	643a      	str	r2, [r7, #64]	@ 0x40
 8007718:	63fb      	str	r3, [r7, #60]	@ 0x3c
 800771a:	6bf9      	ldr	r1, [r7, #60]	@ 0x3c
 800771c:	6c3a      	ldr	r2, [r7, #64]	@ 0x40
 800771e:	e841 2300 	strex	r3, r2, [r1]
 8007722:	63bb      	str	r3, [r7, #56]	@ 0x38
 8007724:	6bbb      	ldr	r3, [r7, #56]	@ 0x38
 8007726:	2b00      	cmp	r3, #0
 8007728:	d1e3      	bne.n	80076f2 <HAL_UART_AbortReceive+0x3a>
 800772a:	687b      	ldr	r3, [r7, #4]
 800772c:	6edb      	ldr	r3, [r3, #108]	@ 0x6c
 800772e:	2b01      	cmp	r3, #1
 8007730:	d118      	bne.n	8007764 <HAL_UART_AbortReceive+0xac>
 8007732:	687b      	ldr	r3, [r7, #4]
 8007734:	681b      	ldr	r3, [r3, #0]
 8007736:	623b      	str	r3, [r7, #32]
 8007738:	6a3b      	ldr	r3, [r7, #32]
 800773a:	e853 3f00 	ldrex	r3, [r3]
 800773e:	61fb      	str	r3, [r7, #28]
 8007740:	69fb      	ldr	r3, [r7, #28]
 8007742:	f023 0310 	bic.w	r3, r3, #16
 8007746:	65fb      	str	r3, [r7, #92]	@ 0x5c
 8007748:	687b      	ldr	r3, [r7, #4]
 800774a:	681b      	ldr	r3, [r3, #0]
 800774c:	461a      	mov	r2, r3
 800774e:	6dfb      	ldr	r3, [r7, #92]	@ 0x5c
 8007750:	62fb      	str	r3, [r7, #44]	@ 0x2c
 8007752:	62ba      	str	r2, [r7, #40]	@ 0x28
 8007754:	6ab9      	ldr	r1, [r7, #40]	@ 0x28
 8007756:	6afa      	ldr	r2, [r7, #44]	@ 0x2c
 8007758:	e841 2300 	strex	r3, r2, [r1]
 800775c:	627b      	str	r3, [r7, #36]	@ 0x24
 800775e:	6a7b      	ldr	r3, [r7, #36]	@ 0x24
 8007760:	2b00      	cmp	r3, #0
 8007762:	d1e6      	bne.n	8007732 <HAL_UART_AbortReceive+0x7a>
 8007764:	687b      	ldr	r3, [r7, #4]
 8007766:	681b      	ldr	r3, [r3, #0]
 8007768:	689b      	ldr	r3, [r3, #8]
 800776a:	f003 0340 	and.w	r3, r3, #64	@ 0x40
 800776e:	2b40      	cmp	r3, #64	@ 0x40
 8007770:	d13b      	bne.n	80077ea <HAL_UART_AbortReceive+0x132>
 8007772:	687b      	ldr	r3, [r7, #4]
 8007774:	681b      	ldr	r3, [r3, #0]
 8007776:	3308      	adds	r3, #8
 8007778:	60fb      	str	r3, [r7, #12]
 800777a:	68fb      	ldr	r3, [r7, #12]
 800777c:	e853 3f00 	ldrex	r3, [r3]
 8007780:	60bb      	str	r3, [r7, #8]
 8007782:	68bb      	ldr	r3, [r7, #8]
 8007784:	f023 0340 	bic.w	r3, r3, #64	@ 0x40
 8007788:	65bb      	str	r3, [r7, #88]	@ 0x58
 800778a:	687b      	ldr	r3, [r7, #4]
 800778c:	681b      	ldr	r3, [r3, #0]
 800778e:	3308      	adds	r3, #8
 8007790:	6dba      	ldr	r2, [r7, #88]	@ 0x58
 8007792:	61ba      	str	r2, [r7, #24]
 8007794:	617b      	str	r3, [r7, #20]
 8007796:	6979      	ldr	r1, [r7, #20]
 8007798:	69ba      	ldr	r2, [r7, #24]
 800779a:	e841 2300 	strex	r3, r2, [r1]
 800779e:	613b      	str	r3, [r7, #16]
 80077a0:	693b      	ldr	r3, [r7, #16]
 80077a2:	2b00      	cmp	r3, #0
 80077a4:	d1e5      	bne.n	8007772 <HAL_UART_AbortReceive+0xba>
 80077a6:	687b      	ldr	r3, [r7, #4]
 80077a8:	f8d3 3080 	ldr.w	r3, [r3, #128]	@ 0x80
 80077ac:	2b00      	cmp	r3, #0
 80077ae:	d01c      	beq.n	80077ea <HAL_UART_AbortReceive+0x132>
 80077b0:	687b      	ldr	r3, [r7, #4]
 80077b2:	f8d3 3080 	ldr.w	r3, [r3, #128]	@ 0x80
 80077b6:	2200      	movs	r2, #0
 80077b8:	639a      	str	r2, [r3, #56]	@ 0x38
 80077ba:	687b      	ldr	r3, [r7, #4]
 80077bc:	f8d3 3080 	ldr.w	r3, [r3, #128]	@ 0x80
 80077c0:	4618      	mov	r0, r3
 80077c2:	f7fc f934 	bl	8003a2e <HAL_DMA_Abort>
 80077c6:	4603      	mov	r3, r0
 80077c8:	2b00      	cmp	r3, #0
 80077ca:	d00e      	beq.n	80077ea <HAL_UART_AbortReceive+0x132>
 80077cc:	687b      	ldr	r3, [r7, #4]
 80077ce:	f8d3 3080 	ldr.w	r3, [r3, #128]	@ 0x80
 80077d2:	4618      	mov	r0, r3
 80077d4:	f7fc fa9a 	bl	8003d0c <HAL_DMA_GetError>
 80077d8:	4603      	mov	r3, r0
 80077da:	2b20      	cmp	r3, #32
 80077dc:	d105      	bne.n	80077ea <HAL_UART_AbortReceive+0x132>
 80077de:	687b      	ldr	r3, [r7, #4]
 80077e0:	2210      	movs	r2, #16
 80077e2:	f8c3 2090 	str.w	r2, [r3, #144]	@ 0x90
 80077e6:	2303      	movs	r3, #3
 80077e8:	e017      	b.n	800781a <HAL_UART_AbortReceive+0x162>
 80077ea:	687b      	ldr	r3, [r7, #4]
 80077ec:	2200      	movs	r2, #0
 80077ee:	f8a3 205e 	strh.w	r2, [r3, #94]	@ 0x5e
 80077f2:	687b      	ldr	r3, [r7, #4]
 80077f4:	681b      	ldr	r3, [r3, #0]
 80077f6:	220f      	movs	r2, #15
 80077f8:	621a      	str	r2, [r3, #32]
 80077fa:	687b      	ldr	r3, [r7, #4]
 80077fc:	681b      	ldr	r3, [r3, #0]
 80077fe:	699a      	ldr	r2, [r3, #24]
 8007800:	687b      	ldr	r3, [r7, #4]
 8007802:	681b      	ldr	r3, [r3, #0]
 8007804:	f042 0208 	orr.w	r2, r2, #8
 8007808:	619a      	str	r2, [r3, #24]
 800780a:	687b      	ldr	r3, [r7, #4]
 800780c:	2220      	movs	r2, #32
 800780e:	f8c3 208c 	str.w	r2, [r3, #140]	@ 0x8c
 8007812:	687b      	ldr	r3, [r7, #4]
 8007814:	2200      	movs	r2, #0
 8007816:	66da      	str	r2, [r3, #108]	@ 0x6c
 8007818:	2300      	movs	r3, #0
 800781a:	4618      	mov	r0, r3
 800781c:	3768      	adds	r7, #104	@ 0x68
 800781e:	46bd      	mov	sp, r7
 8007820:	bd80      	pop	{r7, pc}
	...

08007824 <HAL_UART_IRQHandler>:
 8007824:	b580      	push	{r7, lr}
 8007826:	b0ba      	sub	sp, #232	@ 0xe8
 8007828:	af00      	add	r7, sp, #0
 800782a:	6078      	str	r0, [r7, #4]
 800782c:	687b      	ldr	r3, [r7, #4]
 800782e:	681b      	ldr	r3, [r3, #0]
 8007830:	69db      	ldr	r3, [r3, #28]
 8007832:	f8c7 30e4 	str.w	r3, [r7, #228]	@ 0xe4
 8007836:	687b      	ldr	r3, [r7, #4]
 8007838:	681b      	ldr	r3, [r3, #0]
 800783a:	681b      	ldr	r3, [r3, #0]
 800783c:	f8c7 30e0 	str.w	r3, [r7, #224]	@ 0xe0
 8007840:	687b      	ldr	r3, [r7, #4]
 8007842:	681b      	ldr	r3, [r3, #0]
 8007844:	689b      	ldr	r3, [r3, #8]
 8007846:	f8c7 30dc 	str.w	r3, [r7, #220]	@ 0xdc
 800784a:	f8d7 20e4 	ldr.w	r2, [r7, #228]	@ 0xe4
 800784e:	f640 030f 	movw	r3, #2063	@ 0x80f
 8007852:	4013      	ands	r3, r2
 8007854:	f8c7 30d8 	str.w	r3, [r7, #216]	@ 0xd8
 8007858:	f8d7 30d8 	ldr.w	r3, [r7, #216]	@ 0xd8
 800785c:	2b00      	cmp	r3, #0
 800785e:	d11b      	bne.n	8007898 <HAL_UART_IRQHandler+0x74>
 8007860:	f8d7 30e4 	ldr.w	r3, [r7, #228]	@ 0xe4
 8007864:	f003 0320 	and.w	r3, r3, #32
 8007868:	2b00      	cmp	r3, #0
 800786a:	d015      	beq.n	8007898 <HAL_UART_IRQHandler+0x74>
 800786c:	f8d7 30e0 	ldr.w	r3, [r7, #224]	@ 0xe0
 8007870:	f003 0320 	and.w	r3, r3, #32
 8007874:	2b00      	cmp	r3, #0
 8007876:	d105      	bne.n	8007884 <HAL_UART_IRQHandler+0x60>
 8007878:	f8d7 30dc 	ldr.w	r3, [r7, #220]	@ 0xdc
 800787c:	f003 5380 	and.w	r3, r3, #268435456	@ 0x10000000
 8007880:	2b00      	cmp	r3, #0
 8007882:	d009      	beq.n	8007898 <HAL_UART_IRQHandler+0x74>
 8007884:	687b      	ldr	r3, [r7, #4]
 8007886:	6f5b      	ldr	r3, [r3, #116]	@ 0x74
 8007888:	2b00      	cmp	r3, #0
 800788a:	f000 8312 	beq.w	8007eb2 <HAL_UART_IRQHandler+0x68e>
 800788e:	687b      	ldr	r3, [r7, #4]
 8007890:	6f5b      	ldr	r3, [r3, #116]	@ 0x74
 8007892:	6878      	ldr	r0, [r7, #4]
 8007894:	4798      	blx	r3
 8007896:	e30c      	b.n	8007eb2 <HAL_UART_IRQHandler+0x68e>
 8007898:	f8d7 30d8 	ldr.w	r3, [r7, #216]	@ 0xd8
 800789c:	2b00      	cmp	r3, #0
 800789e:	f000 8129 	beq.w	8007af4 <HAL_UART_IRQHandler+0x2d0>
 80078a2:	f8d7 20dc 	ldr.w	r2, [r7, #220]	@ 0xdc
 80078a6:	4b90      	ldr	r3, [pc, #576]	@ (8007ae8 <HAL_UART_IRQHandler+0x2c4>)
 80078a8:	4013      	ands	r3, r2
 80078aa:	2b00      	cmp	r3, #0
 80078ac:	d106      	bne.n	80078bc <HAL_UART_IRQHandler+0x98>
 80078ae:	f8d7 20e0 	ldr.w	r2, [r7, #224]	@ 0xe0
 80078b2:	4b8e      	ldr	r3, [pc, #568]	@ (8007aec <HAL_UART_IRQHandler+0x2c8>)
 80078b4:	4013      	ands	r3, r2
 80078b6:	2b00      	cmp	r3, #0
 80078b8:	f000 811c 	beq.w	8007af4 <HAL_UART_IRQHandler+0x2d0>
 80078bc:	f8d7 30e4 	ldr.w	r3, [r7, #228]	@ 0xe4
 80078c0:	f003 0301 	and.w	r3, r3, #1
 80078c4:	2b00      	cmp	r3, #0
 80078c6:	d011      	beq.n	80078ec <HAL_UART_IRQHandler+0xc8>
 80078c8:	f8d7 30e0 	ldr.w	r3, [r7, #224]	@ 0xe0
 80078cc:	f403 7380 	and.w	r3, r3, #256	@ 0x100
 80078d0:	2b00      	cmp	r3, #0
 80078d2:	d00b      	beq.n	80078ec <HAL_UART_IRQHandler+0xc8>
 80078d4:	687b      	ldr	r3, [r7, #4]
 80078d6:	681b      	ldr	r3, [r3, #0]
 80078d8:	2201      	movs	r2, #1
 80078da:	621a      	str	r2, [r3, #32]
 80078dc:	687b      	ldr	r3, [r7, #4]
 80078de:	f8d3 3090 	ldr.w	r3, [r3, #144]	@ 0x90
 80078e2:	f043 0201 	orr.w	r2, r3, #1
 80078e6:	687b      	ldr	r3, [r7, #4]
 80078e8:	f8c3 2090 	str.w	r2, [r3, #144]	@ 0x90
 80078ec:	f8d7 30e4 	ldr.w	r3, [r7, #228]	@ 0xe4
 80078f0:	f003 0302 	and.w	r3, r3, #2
 80078f4:	2b00      	cmp	r3, #0
 80078f6:	d011      	beq.n	800791c <HAL_UART_IRQHandler+0xf8>
 80078f8:	f8d7 30dc 	ldr.w	r3, [r7, #220]	@ 0xdc
 80078fc:	f003 0301 	and.w	r3, r3, #1
 8007900:	2b00      	cmp	r3, #0
 8007902:	d00b      	beq.n	800791c <HAL_UART_IRQHandler+0xf8>
 8007904:	687b      	ldr	r3, [r7, #4]
 8007906:	681b      	ldr	r3, [r3, #0]
 8007908:	2202      	movs	r2, #2
 800790a:	621a      	str	r2, [r3, #32]
 800790c:	687b      	ldr	r3, [r7, #4]
 800790e:	f8d3 3090 	ldr.w	r3, [r3, #144]	@ 0x90
 8007912:	f043 0204 	orr.w	r2, r3, #4
 8007916:	687b      	ldr	r3, [r7, #4]
 8007918:	f8c3 2090 	str.w	r2, [r3, #144]	@ 0x90
 800791c:	f8d7 30e4 	ldr.w	r3, [r7, #228]	@ 0xe4
 8007920:	f003 0304 	and.w	r3, r3, #4
 8007924:	2b00      	cmp	r3, #0
 8007926:	d011      	beq.n	800794c <HAL_UART_IRQHandler+0x128>
 8007928:	f8d7 30dc 	ldr.w	r3, [r7, #220]	@ 0xdc
 800792c:	f003 0301 	and.w	r3, r3, #1
 8007930:	2b00      	cmp	r3, #0
 8007932:	d00b      	beq.n	800794c <HAL_UART_IRQHandler+0x128>
 8007934:	687b      	ldr	r3, [r7, #4]
 8007936:	681b      	ldr	r3, [r3, #0]
 8007938:	2204      	movs	r2, #4
 800793a:	621a      	str	r2, [r3, #32]
 800793c:	687b      	ldr	r3, [r7, #4]
 800793e:	f8d3 3090 	ldr.w	r3, [r3, #144]	@ 0x90
 8007942:	f043 0202 	orr.w	r2, r3, #2
 8007946:	687b      	ldr	r3, [r7, #4]
 8007948:	f8c3 2090 	str.w	r2, [r3, #144]	@ 0x90
 800794c:	f8d7 30e4 	ldr.w	r3, [r7, #228]	@ 0xe4
 8007950:	f003 0308 	and.w	r3, r3, #8
 8007954:	2b00      	cmp	r3, #0
 8007956:	d017      	beq.n	8007988 <HAL_UART_IRQHandler+0x164>
 8007958:	f8d7 30e0 	ldr.w	r3, [r7, #224]	@ 0xe0
 800795c:	f003 0320 	and.w	r3, r3, #32
 8007960:	2b00      	cmp	r3, #0
 8007962:	d105      	bne.n	8007970 <HAL_UART_IRQHandler+0x14c>
 8007964:	f8d7 20dc 	ldr.w	r2, [r7, #220]	@ 0xdc
 8007968:	4b5f      	ldr	r3, [pc, #380]	@ (8007ae8 <HAL_UART_IRQHandler+0x2c4>)
 800796a:	4013      	ands	r3, r2
 800796c:	2b00      	cmp	r3, #0
 800796e:	d00b      	beq.n	8007988 <HAL_UART_IRQHandler+0x164>
 8007970:	687b      	ldr	r3, [r7, #4]
 8007972:	681b      	ldr	r3, [r3, #0]
 8007974:	2208      	movs	r2, #8
 8007976:	621a      	str	r2, [r3, #32]
 8007978:	687b      	ldr	r3, [r7, #4]
 800797a:	f8d3 3090 	ldr.w	r3, [r3, #144]	@ 0x90
 800797e:	f043 0208 	orr.w	r2, r3, #8
 8007982:	687b      	ldr	r3, [r7, #4]
 8007984:	f8c3 2090 	str.w	r2, [r3, #144]	@ 0x90
 8007988:	f8d7 30e4 	ldr.w	r3, [r7, #228]	@ 0xe4
 800798c:	f403 6300 	and.w	r3, r3, #2048	@ 0x800
 8007990:	2b00      	cmp	r3, #0
 8007992:	d012      	beq.n	80079ba <HAL_UART_IRQHandler+0x196>
 8007994:	f8d7 30e0 	ldr.w	r3, [r7, #224]	@ 0xe0
 8007998:	f003 6380 	and.w	r3, r3, #67108864	@ 0x4000000
 800799c:	2b00      	cmp	r3, #0
 800799e:	d00c      	beq.n	80079ba <HAL_UART_IRQHandler+0x196>
 80079a0:	687b      	ldr	r3, [r7, #4]
 80079a2:	681b      	ldr	r3, [r3, #0]
 80079a4:	f44f 6200 	mov.w	r2, #2048	@ 0x800
 80079a8:	621a      	str	r2, [r3, #32]
 80079aa:	687b      	ldr	r3, [r7, #4]
 80079ac:	f8d3 3090 	ldr.w	r3, [r3, #144]	@ 0x90
 80079b0:	f043 0220 	orr.w	r2, r3, #32
 80079b4:	687b      	ldr	r3, [r7, #4]
 80079b6:	f8c3 2090 	str.w	r2, [r3, #144]	@ 0x90
 80079ba:	687b      	ldr	r3, [r7, #4]
 80079bc:	f8d3 3090 	ldr.w	r3, [r3, #144]	@ 0x90
 80079c0:	2b00      	cmp	r3, #0
 80079c2:	f000 8278 	beq.w	8007eb6 <HAL_UART_IRQHandler+0x692>
 80079c6:	f8d7 30e4 	ldr.w	r3, [r7, #228]	@ 0xe4
 80079ca:	f003 0320 	and.w	r3, r3, #32
 80079ce:	2b00      	cmp	r3, #0
 80079d0:	d013      	beq.n	80079fa <HAL_UART_IRQHandler+0x1d6>
 80079d2:	f8d7 30e0 	ldr.w	r3, [r7, #224]	@ 0xe0
 80079d6:	f003 0320 	and.w	r3, r3, #32
 80079da:	2b00      	cmp	r3, #0
 80079dc:	d105      	bne.n	80079ea <HAL_UART_IRQHandler+0x1c6>
 80079de:	f8d7 30dc 	ldr.w	r3, [r7, #220]	@ 0xdc
 80079e2:	f003 5380 	and.w	r3, r3, #268435456	@ 0x10000000
 80079e6:	2b00      	cmp	r3, #0
 80079e8:	d007      	beq.n	80079fa <HAL_UART_IRQHandler+0x1d6>
 80079ea:	687b      	ldr	r3, [r7, #4]
 80079ec:	6f5b      	ldr	r3, [r3, #116]	@ 0x74
 80079ee:	2b00      	cmp	r3, #0
 80079f0:	d003      	beq.n	80079fa <HAL_UART_IRQHandler+0x1d6>
 80079f2:	687b      	ldr	r3, [r7, #4]
 80079f4:	6f5b      	ldr	r3, [r3, #116]	@ 0x74
 80079f6:	6878      	ldr	r0, [r7, #4]
 80079f8:	4798      	blx	r3
 80079fa:	687b      	ldr	r3, [r7, #4]
 80079fc:	f8d3 3090 	ldr.w	r3, [r3, #144]	@ 0x90
 8007a00:	f8c7 30d4 	str.w	r3, [r7, #212]	@ 0xd4
 8007a04:	687b      	ldr	r3, [r7, #4]
 8007a06:	681b      	ldr	r3, [r3, #0]
 8007a08:	689b      	ldr	r3, [r3, #8]
 8007a0a:	f003 0340 	and.w	r3, r3, #64	@ 0x40
 8007a0e:	2b40      	cmp	r3, #64	@ 0x40
 8007a10:	d005      	beq.n	8007a1e <HAL_UART_IRQHandler+0x1fa>
 8007a12:	f8d7 30d4 	ldr.w	r3, [r7, #212]	@ 0xd4
 8007a16:	f003 0328 	and.w	r3, r3, #40	@ 0x28
 8007a1a:	2b00      	cmp	r3, #0
 8007a1c:	d058      	beq.n	8007ad0 <HAL_UART_IRQHandler+0x2ac>
 8007a1e:	6878      	ldr	r0, [r7, #4]
 8007a20:	f001 f91b 	bl	8008c5a <UART_EndRxTransfer>
 8007a24:	687b      	ldr	r3, [r7, #4]
 8007a26:	681b      	ldr	r3, [r3, #0]
 8007a28:	689b      	ldr	r3, [r3, #8]
 8007a2a:	f003 0340 	and.w	r3, r3, #64	@ 0x40
 8007a2e:	2b40      	cmp	r3, #64	@ 0x40
 8007a30:	d148      	bne.n	8007ac4 <HAL_UART_IRQHandler+0x2a0>
 8007a32:	687b      	ldr	r3, [r7, #4]
 8007a34:	681b      	ldr	r3, [r3, #0]
 8007a36:	3308      	adds	r3, #8
 8007a38:	f8c7 309c 	str.w	r3, [r7, #156]	@ 0x9c
 8007a3c:	f8d7 309c 	ldr.w	r3, [r7, #156]	@ 0x9c
 8007a40:	e853 3f00 	ldrex	r3, [r3]
 8007a44:	f8c7 3098 	str.w	r3, [r7, #152]	@ 0x98
 8007a48:	f8d7 3098 	ldr.w	r3, [r7, #152]	@ 0x98
 8007a4c:	f023 0340 	bic.w	r3, r3, #64	@ 0x40
 8007a50:	f8c7 30d0 	str.w	r3, [r7, #208]	@ 0xd0
 8007a54:	687b      	ldr	r3, [r7, #4]
 8007a56:	681b      	ldr	r3, [r3, #0]
 8007a58:	3308      	adds	r3, #8
 8007a5a:	f8d7 20d0 	ldr.w	r2, [r7, #208]	@ 0xd0
 8007a5e:	f8c7 20a8 	str.w	r2, [r7, #168]	@ 0xa8
 8007a62:	f8c7 30a4 	str.w	r3, [r7, #164]	@ 0xa4
 8007a66:	f8d7 10a4 	ldr.w	r1, [r7, #164]	@ 0xa4
 8007a6a:	f8d7 20a8 	ldr.w	r2, [r7, #168]	@ 0xa8
 8007a6e:	e841 2300 	strex	r3, r2, [r1]
 8007a72:	f8c7 30a0 	str.w	r3, [r7, #160]	@ 0xa0
 8007a76:	f8d7 30a0 	ldr.w	r3, [r7, #160]	@ 0xa0
 8007a7a:	2b00      	cmp	r3, #0
 8007a7c:	d1d9      	bne.n	8007a32 <HAL_UART_IRQHandler+0x20e>
 8007a7e:	687b      	ldr	r3, [r7, #4]
 8007a80:	f8d3 3080 	ldr.w	r3, [r3, #128]	@ 0x80
 8007a84:	2b00      	cmp	r3, #0
 8007a86:	d017      	beq.n	8007ab8 <HAL_UART_IRQHandler+0x294>
 8007a88:	687b      	ldr	r3, [r7, #4]
 8007a8a:	f8d3 3080 	ldr.w	r3, [r3, #128]	@ 0x80
 8007a8e:	4a18      	ldr	r2, [pc, #96]	@ (8007af0 <HAL_UART_IRQHandler+0x2cc>)
 8007a90:	639a      	str	r2, [r3, #56]	@ 0x38
 8007a92:	687b      	ldr	r3, [r7, #4]
 8007a94:	f8d3 3080 	ldr.w	r3, [r3, #128]	@ 0x80
 8007a98:	4618      	mov	r0, r3
 8007a9a:	f7fc f821 	bl	8003ae0 <HAL_DMA_Abort_IT>
 8007a9e:	4603      	mov	r3, r0
 8007aa0:	2b00      	cmp	r3, #0
 8007aa2:	d01f      	beq.n	8007ae4 <HAL_UART_IRQHandler+0x2c0>
 8007aa4:	687b      	ldr	r3, [r7, #4]
 8007aa6:	f8d3 3080 	ldr.w	r3, [r3, #128]	@ 0x80
 8007aaa:	6b9b      	ldr	r3, [r3, #56]	@ 0x38
 8007aac:	687a      	ldr	r2, [r7, #4]
 8007aae:	f8d2 2080 	ldr.w	r2, [r2, #128]	@ 0x80
 8007ab2:	4610      	mov	r0, r2
 8007ab4:	4798      	blx	r3
 8007ab6:	e015      	b.n	8007ae4 <HAL_UART_IRQHandler+0x2c0>
 8007ab8:	687b      	ldr	r3, [r7, #4]
 8007aba:	f8d3 30a4 	ldr.w	r3, [r3, #164]	@ 0xa4
 8007abe:	6878      	ldr	r0, [r7, #4]
 8007ac0:	4798      	blx	r3
 8007ac2:	e00f      	b.n	8007ae4 <HAL_UART_IRQHandler+0x2c0>
 8007ac4:	687b      	ldr	r3, [r7, #4]
 8007ac6:	f8d3 30a4 	ldr.w	r3, [r3, #164]	@ 0xa4
 8007aca:	6878      	ldr	r0, [r7, #4]
 8007acc:	4798      	blx	r3
 8007ace:	e009      	b.n	8007ae4 <HAL_UART_IRQHandler+0x2c0>
 8007ad0:	687b      	ldr	r3, [r7, #4]
 8007ad2:	f8d3 30a4 	ldr.w	r3, [r3, #164]	@ 0xa4
 8007ad6:	6878      	ldr	r0, [r7, #4]
 8007ad8:	4798      	blx	r3
 8007ada:	687b      	ldr	r3, [r7, #4]
 8007adc:	2200      	movs	r2, #0
 8007ade:	f8c3 2090 	str.w	r2, [r3, #144]	@ 0x90
 8007ae2:	e1e8      	b.n	8007eb6 <HAL_UART_IRQHandler+0x692>
 8007ae4:	bf00      	nop
 8007ae6:	e1e6      	b.n	8007eb6 <HAL_UART_IRQHandler+0x692>
 8007ae8:	10000001 	.word	0x10000001
 8007aec:	04000120 	.word	0x04000120
 8007af0:	08008e69 	.word	0x08008e69
 8007af4:	687b      	ldr	r3, [r7, #4]
 8007af6:	6edb      	ldr	r3, [r3, #108]	@ 0x6c
 8007af8:	2b01      	cmp	r3, #1
 8007afa:	f040 8176 	bne.w	8007dea <HAL_UART_IRQHandler+0x5c6>
 8007afe:	f8d7 30e4 	ldr.w	r3, [r7, #228]	@ 0xe4
 8007b02:	f003 0310 	and.w	r3, r3, #16
 8007b06:	2b00      	cmp	r3, #0
 8007b08:	f000 816f 	beq.w	8007dea <HAL_UART_IRQHandler+0x5c6>
 8007b0c:	f8d7 30e0 	ldr.w	r3, [r7, #224]	@ 0xe0
 8007b10:	f003 0310 	and.w	r3, r3, #16
 8007b14:	2b00      	cmp	r3, #0
 8007b16:	f000 8168 	beq.w	8007dea <HAL_UART_IRQHandler+0x5c6>
 8007b1a:	687b      	ldr	r3, [r7, #4]
 8007b1c:	681b      	ldr	r3, [r3, #0]
 8007b1e:	2210      	movs	r2, #16
 8007b20:	621a      	str	r2, [r3, #32]
 8007b22:	687b      	ldr	r3, [r7, #4]
 8007b24:	681b      	ldr	r3, [r3, #0]
 8007b26:	689b      	ldr	r3, [r3, #8]
 8007b28:	f003 0340 	and.w	r3, r3, #64	@ 0x40
 8007b2c:	2b40      	cmp	r3, #64	@ 0x40
 8007b2e:	f040 80dc 	bne.w	8007cea <HAL_UART_IRQHandler+0x4c6>
 8007b32:	687b      	ldr	r3, [r7, #4]
 8007b34:	f8d3 3080 	ldr.w	r3, [r3, #128]	@ 0x80
 8007b38:	681b      	ldr	r3, [r3, #0]
 8007b3a:	685b      	ldr	r3, [r3, #4]
 8007b3c:	f8a7 30be 	strh.w	r3, [r7, #190]	@ 0xbe
 8007b40:	f8b7 30be 	ldrh.w	r3, [r7, #190]	@ 0xbe
 8007b44:	2b00      	cmp	r3, #0
 8007b46:	f000 80b1 	beq.w	8007cac <HAL_UART_IRQHandler+0x488>
 8007b4a:	687b      	ldr	r3, [r7, #4]
 8007b4c:	f8b3 305c 	ldrh.w	r3, [r3, #92]	@ 0x5c
 8007b50:	f8b7 20be 	ldrh.w	r2, [r7, #190]	@ 0xbe
 8007b54:	429a      	cmp	r2, r3
 8007b56:	f080 80a9 	bcs.w	8007cac <HAL_UART_IRQHandler+0x488>
 8007b5a:	687b      	ldr	r3, [r7, #4]
 8007b5c:	f8b7 20be 	ldrh.w	r2, [r7, #190]	@ 0xbe
 8007b60:	f8a3 205e 	strh.w	r2, [r3, #94]	@ 0x5e
 8007b64:	687b      	ldr	r3, [r7, #4]
 8007b66:	f8d3 3080 	ldr.w	r3, [r3, #128]	@ 0x80
 8007b6a:	681b      	ldr	r3, [r3, #0]
 8007b6c:	681b      	ldr	r3, [r3, #0]
 8007b6e:	f003 0320 	and.w	r3, r3, #32
 8007b72:	2b00      	cmp	r3, #0
 8007b74:	f040 8087 	bne.w	8007c86 <HAL_UART_IRQHandler+0x462>
 8007b78:	687b      	ldr	r3, [r7, #4]
 8007b7a:	681b      	ldr	r3, [r3, #0]
 8007b7c:	f8c7 3088 	str.w	r3, [r7, #136]	@ 0x88
 8007b80:	f8d7 3088 	ldr.w	r3, [r7, #136]	@ 0x88
 8007b84:	e853 3f00 	ldrex	r3, [r3]
 8007b88:	f8c7 3084 	str.w	r3, [r7, #132]	@ 0x84
 8007b8c:	f8d7 3084 	ldr.w	r3, [r7, #132]	@ 0x84
 8007b90:	f423 7380 	bic.w	r3, r3, #256	@ 0x100
 8007b94:	f8c7 30b8 	str.w	r3, [r7, #184]	@ 0xb8
 8007b98:	687b      	ldr	r3, [r7, #4]
 8007b9a:	681b      	ldr	r3, [r3, #0]
 8007b9c:	461a      	mov	r2, r3
 8007b9e:	f8d7 30b8 	ldr.w	r3, [r7, #184]	@ 0xb8
 8007ba2:	f8c7 3094 	str.w	r3, [r7, #148]	@ 0x94
 8007ba6:	f8c7 2090 	str.w	r2, [r7, #144]	@ 0x90
 8007baa:	f8d7 1090 	ldr.w	r1, [r7, #144]	@ 0x90
 8007bae:	f8d7 2094 	ldr.w	r2, [r7, #148]	@ 0x94
 8007bb2:	e841 2300 	strex	r3, r2, [r1]
 8007bb6:	f8c7 308c 	str.w	r3, [r7, #140]	@ 0x8c
 8007bba:	f8d7 308c 	ldr.w	r3, [r7, #140]	@ 0x8c
 8007bbe:	2b00      	cmp	r3, #0
 8007bc0:	d1da      	bne.n	8007b78 <HAL_UART_IRQHandler+0x354>
 8007bc2:	687b      	ldr	r3, [r7, #4]
 8007bc4:	681b      	ldr	r3, [r3, #0]
 8007bc6:	3308      	adds	r3, #8
 8007bc8:	677b      	str	r3, [r7, #116]	@ 0x74
 8007bca:	6f7b      	ldr	r3, [r7, #116]	@ 0x74
 8007bcc:	e853 3f00 	ldrex	r3, [r3]
 8007bd0:	673b      	str	r3, [r7, #112]	@ 0x70
 8007bd2:	6f3b      	ldr	r3, [r7, #112]	@ 0x70
 8007bd4:	f023 0301 	bic.w	r3, r3, #1
 8007bd8:	f8c7 30b4 	str.w	r3, [r7, #180]	@ 0xb4
 8007bdc:	687b      	ldr	r3, [r7, #4]
 8007bde:	681b      	ldr	r3, [r3, #0]
 8007be0:	3308      	adds	r3, #8
 8007be2:	f8d7 20b4 	ldr.w	r2, [r7, #180]	@ 0xb4
 8007be6:	f8c7 2080 	str.w	r2, [r7, #128]	@ 0x80
 8007bea:	67fb      	str	r3, [r7, #124]	@ 0x7c
 8007bec:	6ff9      	ldr	r1, [r7, #124]	@ 0x7c
 8007bee:	f8d7 2080 	ldr.w	r2, [r7, #128]	@ 0x80
 8007bf2:	e841 2300 	strex	r3, r2, [r1]
 8007bf6:	67bb      	str	r3, [r7, #120]	@ 0x78
 8007bf8:	6fbb      	ldr	r3, [r7, #120]	@ 0x78
 8007bfa:	2b00      	cmp	r3, #0
 8007bfc:	d1e1      	bne.n	8007bc2 <HAL_UART_IRQHandler+0x39e>
 8007bfe:	687b      	ldr	r3, [r7, #4]
 8007c00:	681b      	ldr	r3, [r3, #0]
 8007c02:	3308      	adds	r3, #8
 8007c04:	663b      	str	r3, [r7, #96]	@ 0x60
 8007c06:	6e3b      	ldr	r3, [r7, #96]	@ 0x60
 8007c08:	e853 3f00 	ldrex	r3, [r3]
 8007c0c:	65fb      	str	r3, [r7, #92]	@ 0x5c
 8007c0e:	6dfb      	ldr	r3, [r7, #92]	@ 0x5c
 8007c10:	f023 0340 	bic.w	r3, r3, #64	@ 0x40
 8007c14:	f8c7 30b0 	str.w	r3, [r7, #176]	@ 0xb0
 8007c18:	687b      	ldr	r3, [r7, #4]
 8007c1a:	681b      	ldr	r3, [r3, #0]
 8007c1c:	3308      	adds	r3, #8
 8007c1e:	f8d7 20b0 	ldr.w	r2, [r7, #176]	@ 0xb0
 8007c22:	66fa      	str	r2, [r7, #108]	@ 0x6c
 8007c24:	66bb      	str	r3, [r7, #104]	@ 0x68
 8007c26:	6eb9      	ldr	r1, [r7, #104]	@ 0x68
 8007c28:	6efa      	ldr	r2, [r7, #108]	@ 0x6c
 8007c2a:	e841 2300 	strex	r3, r2, [r1]
 8007c2e:	667b      	str	r3, [r7, #100]	@ 0x64
 8007c30:	6e7b      	ldr	r3, [r7, #100]	@ 0x64
 8007c32:	2b00      	cmp	r3, #0
 8007c34:	d1e3      	bne.n	8007bfe <HAL_UART_IRQHandler+0x3da>
 8007c36:	687b      	ldr	r3, [r7, #4]
 8007c38:	2220      	movs	r2, #32
 8007c3a:	f8c3 208c 	str.w	r2, [r3, #140]	@ 0x8c
 8007c3e:	687b      	ldr	r3, [r7, #4]
 8007c40:	2200      	movs	r2, #0
 8007c42:	66da      	str	r2, [r3, #108]	@ 0x6c
 8007c44:	687b      	ldr	r3, [r7, #4]
 8007c46:	681b      	ldr	r3, [r3, #0]
 8007c48:	64fb      	str	r3, [r7, #76]	@ 0x4c
 8007c4a:	6cfb      	ldr	r3, [r7, #76]	@ 0x4c
 8007c4c:	e853 3f00 	ldrex	r3, [r3]
 8007c50:	64bb      	str	r3, [r7, #72]	@ 0x48
 8007c52:	6cbb      	ldr	r3, [r7, #72]	@ 0x48
 8007c54:	f023 0310 	bic.w	r3, r3, #16
 8007c58:	f8c7 30ac 	str.w	r3, [r7, #172]	@ 0xac
 8007c5c:	687b      	ldr	r3, [r7, #4]
 8007c5e:	681b      	ldr	r3, [r3, #0]
 8007c60:	461a      	mov	r2, r3
 8007c62:	f8d7 30ac 	ldr.w	r3, [r7, #172]	@ 0xac
 8007c66:	65bb      	str	r3, [r7, #88]	@ 0x58
 8007c68:	657a      	str	r2, [r7, #84]	@ 0x54
 8007c6a:	6d79      	ldr	r1, [r7, #84]	@ 0x54
 8007c6c:	6dba      	ldr	r2, [r7, #88]	@ 0x58
 8007c6e:	e841 2300 	strex	r3, r2, [r1]
 8007c72:	653b      	str	r3, [r7, #80]	@ 0x50
 8007c74:	6d3b      	ldr	r3, [r7, #80]	@ 0x50
 8007c76:	2b00      	cmp	r3, #0
 8007c78:	d1e4      	bne.n	8007c44 <HAL_UART_IRQHandler+0x420>
 8007c7a:	687b      	ldr	r3, [r7, #4]
 8007c7c:	f8d3 3080 	ldr.w	r3, [r3, #128]	@ 0x80
 8007c80:	4618      	mov	r0, r3
 8007c82:	f7fb fed4 	bl	8003a2e <HAL_DMA_Abort>
 8007c86:	687b      	ldr	r3, [r7, #4]
 8007c88:	2202      	movs	r2, #2
 8007c8a:	671a      	str	r2, [r3, #112]	@ 0x70
 8007c8c:	687b      	ldr	r3, [r7, #4]
 8007c8e:	f8d3 30c0 	ldr.w	r3, [r3, #192]	@ 0xc0
 8007c92:	687a      	ldr	r2, [r7, #4]
 8007c94:	f8b2 105c 	ldrh.w	r1, [r2, #92]	@ 0x5c
 8007c98:	687a      	ldr	r2, [r7, #4]
 8007c9a:	f8b2 205e 	ldrh.w	r2, [r2, #94]	@ 0x5e
 8007c9e:	b292      	uxth	r2, r2
 8007ca0:	1a8a      	subs	r2, r1, r2
 8007ca2:	b292      	uxth	r2, r2
 8007ca4:	4611      	mov	r1, r2
 8007ca6:	6878      	ldr	r0, [r7, #4]
 8007ca8:	4798      	blx	r3
 8007caa:	e106      	b.n	8007eba <HAL_UART_IRQHandler+0x696>
 8007cac:	687b      	ldr	r3, [r7, #4]
 8007cae:	f8b3 305c 	ldrh.w	r3, [r3, #92]	@ 0x5c
 8007cb2:	f8b7 20be 	ldrh.w	r2, [r7, #190]	@ 0xbe
 8007cb6:	429a      	cmp	r2, r3
 8007cb8:	f040 80ff 	bne.w	8007eba <HAL_UART_IRQHandler+0x696>
 8007cbc:	687b      	ldr	r3, [r7, #4]
 8007cbe:	f8d3 3080 	ldr.w	r3, [r3, #128]	@ 0x80
 8007cc2:	681b      	ldr	r3, [r3, #0]
 8007cc4:	681b      	ldr	r3, [r3, #0]
 8007cc6:	f003 0320 	and.w	r3, r3, #32
 8007cca:	2b20      	cmp	r3, #32
 8007ccc:	f040 80f5 	bne.w	8007eba <HAL_UART_IRQHandler+0x696>
 8007cd0:	687b      	ldr	r3, [r7, #4]
 8007cd2:	2202      	movs	r2, #2
 8007cd4:	671a      	str	r2, [r3, #112]	@ 0x70
 8007cd6:	687b      	ldr	r3, [r7, #4]
 8007cd8:	f8d3 30c0 	ldr.w	r3, [r3, #192]	@ 0xc0
 8007cdc:	687a      	ldr	r2, [r7, #4]
 8007cde:	f8b2 205c 	ldrh.w	r2, [r2, #92]	@ 0x5c
 8007ce2:	4611      	mov	r1, r2
 8007ce4:	6878      	ldr	r0, [r7, #4]
 8007ce6:	4798      	blx	r3
 8007ce8:	e0e7      	b.n	8007eba <HAL_UART_IRQHandler+0x696>
 8007cea:	687b      	ldr	r3, [r7, #4]
 8007cec:	f8b3 205c 	ldrh.w	r2, [r3, #92]	@ 0x5c
 8007cf0:	687b      	ldr	r3, [r7, #4]
 8007cf2:	f8b3 305e 	ldrh.w	r3, [r3, #94]	@ 0x5e
 8007cf6:	b29b      	uxth	r3, r3
 8007cf8:	1ad3      	subs	r3, r2, r3
 8007cfa:	f8a7 30ce 	strh.w	r3, [r7, #206]	@ 0xce
 8007cfe:	687b      	ldr	r3, [r7, #4]
 8007d00:	f8b3 305e 	ldrh.w	r3, [r3, #94]	@ 0x5e
 8007d04:	b29b      	uxth	r3, r3
 8007d06:	2b00      	cmp	r3, #0
 8007d08:	f000 80d9 	beq.w	8007ebe <HAL_UART_IRQHandler+0x69a>
 8007d0c:	f8b7 30ce 	ldrh.w	r3, [r7, #206]	@ 0xce
 8007d10:	2b00      	cmp	r3, #0
 8007d12:	f000 80d4 	beq.w	8007ebe <HAL_UART_IRQHandler+0x69a>
 8007d16:	687b      	ldr	r3, [r7, #4]
 8007d18:	681b      	ldr	r3, [r3, #0]
 8007d1a:	63bb      	str	r3, [r7, #56]	@ 0x38
 8007d1c:	6bbb      	ldr	r3, [r7, #56]	@ 0x38
 8007d1e:	e853 3f00 	ldrex	r3, [r3]
 8007d22:	637b      	str	r3, [r7, #52]	@ 0x34
 8007d24:	6b7b      	ldr	r3, [r7, #52]	@ 0x34
 8007d26:	f423 7390 	bic.w	r3, r3, #288	@ 0x120
 8007d2a:	f8c7 30c8 	str.w	r3, [r7, #200]	@ 0xc8
 8007d2e:	687b      	ldr	r3, [r7, #4]
 8007d30:	681b      	ldr	r3, [r3, #0]
 8007d32:	461a      	mov	r2, r3
 8007d34:	f8d7 30c8 	ldr.w	r3, [r7, #200]	@ 0xc8
 8007d38:	647b      	str	r3, [r7, #68]	@ 0x44
 8007d3a:	643a      	str	r2, [r7, #64]	@ 0x40
 8007d3c:	6c39      	ldr	r1, [r7, #64]	@ 0x40
 8007d3e:	6c7a      	ldr	r2, [r7, #68]	@ 0x44
 8007d40:	e841 2300 	strex	r3, r2, [r1]
 8007d44:	63fb      	str	r3, [r7, #60]	@ 0x3c
 8007d46:	6bfb      	ldr	r3, [r7, #60]	@ 0x3c
 8007d48:	2b00      	cmp	r3, #0
 8007d4a:	d1e4      	bne.n	8007d16 <HAL_UART_IRQHandler+0x4f2>
 8007d4c:	687b      	ldr	r3, [r7, #4]
 8007d4e:	681b      	ldr	r3, [r3, #0]
 8007d50:	3308      	adds	r3, #8
 8007d52:	627b      	str	r3, [r7, #36]	@ 0x24
 8007d54:	6a7b      	ldr	r3, [r7, #36]	@ 0x24
 8007d56:	e853 3f00 	ldrex	r3, [r3]
 8007d5a:	623b      	str	r3, [r7, #32]
 8007d5c:	6a3b      	ldr	r3, [r7, #32]
 8007d5e:	f023 5380 	bic.w	r3, r3, #268435456	@ 0x10000000
 8007d62:	f023 0301 	bic.w	r3, r3, #1
 8007d66:	f8c7 30c4 	str.w	r3, [r7, #196]	@ 0xc4
 8007d6a:	687b      	ldr	r3, [r7, #4]
 8007d6c:	681b      	ldr	r3, [r3, #0]
 8007d6e:	3308      	adds	r3, #8
 8007d70:	f8d7 20c4 	ldr.w	r2, [r7, #196]	@ 0xc4
 8007d74:	633a      	str	r2, [r7, #48]	@ 0x30
 8007d76:	62fb      	str	r3, [r7, #44]	@ 0x2c
 8007d78:	6af9      	ldr	r1, [r7, #44]	@ 0x2c
 8007d7a:	6b3a      	ldr	r2, [r7, #48]	@ 0x30
 8007d7c:	e841 2300 	strex	r3, r2, [r1]
 8007d80:	62bb      	str	r3, [r7, #40]	@ 0x28
 8007d82:	6abb      	ldr	r3, [r7, #40]	@ 0x28
 8007d84:	2b00      	cmp	r3, #0
 8007d86:	d1e1      	bne.n	8007d4c <HAL_UART_IRQHandler+0x528>
 8007d88:	687b      	ldr	r3, [r7, #4]
 8007d8a:	2220      	movs	r2, #32
 8007d8c:	f8c3 208c 	str.w	r2, [r3, #140]	@ 0x8c
 8007d90:	687b      	ldr	r3, [r7, #4]
 8007d92:	2200      	movs	r2, #0
 8007d94:	66da      	str	r2, [r3, #108]	@ 0x6c
 8007d96:	687b      	ldr	r3, [r7, #4]
 8007d98:	2200      	movs	r2, #0
 8007d9a:	675a      	str	r2, [r3, #116]	@ 0x74
 8007d9c:	687b      	ldr	r3, [r7, #4]
 8007d9e:	681b      	ldr	r3, [r3, #0]
 8007da0:	613b      	str	r3, [r7, #16]
 8007da2:	693b      	ldr	r3, [r7, #16]
 8007da4:	e853 3f00 	ldrex	r3, [r3]
 8007da8:	60fb      	str	r3, [r7, #12]
 8007daa:	68fb      	ldr	r3, [r7, #12]
 8007dac:	f023 0310 	bic.w	r3, r3, #16
 8007db0:	f8c7 30c0 	str.w	r3, [r7, #192]	@ 0xc0
 8007db4:	687b      	ldr	r3, [r7, #4]
 8007db6:	681b      	ldr	r3, [r3, #0]
 8007db8:	461a      	mov	r2, r3
 8007dba:	f8d7 30c0 	ldr.w	r3, [r7, #192]	@ 0xc0
 8007dbe:	61fb      	str	r3, [r7, #28]
 8007dc0:	61ba      	str	r2, [r7, #24]
 8007dc2:	69b9      	ldr	r1, [r7, #24]
 8007dc4:	69fa      	ldr	r2, [r7, #28]
 8007dc6:	e841 2300 	strex	r3, r2, [r1]
 8007dca:	617b      	str	r3, [r7, #20]
 8007dcc:	697b      	ldr	r3, [r7, #20]
 8007dce:	2b00      	cmp	r3, #0
 8007dd0:	d1e4      	bne.n	8007d9c <HAL_UART_IRQHandler+0x578>
 8007dd2:	687b      	ldr	r3, [r7, #4]
 8007dd4:	2202      	movs	r2, #2
 8007dd6:	671a      	str	r2, [r3, #112]	@ 0x70
 8007dd8:	687b      	ldr	r3, [r7, #4]
 8007dda:	f8d3 30c0 	ldr.w	r3, [r3, #192]	@ 0xc0
 8007dde:	f8b7 20ce 	ldrh.w	r2, [r7, #206]	@ 0xce
 8007de2:	4611      	mov	r1, r2
 8007de4:	6878      	ldr	r0, [r7, #4]
 8007de6:	4798      	blx	r3
 8007de8:	e069      	b.n	8007ebe <HAL_UART_IRQHandler+0x69a>
 8007dea:	f8d7 30e4 	ldr.w	r3, [r7, #228]	@ 0xe4
 8007dee:	f403 1380 	and.w	r3, r3, #1048576	@ 0x100000
 8007df2:	2b00      	cmp	r3, #0
 8007df4:	d010      	beq.n	8007e18 <HAL_UART_IRQHandler+0x5f4>
 8007df6:	f8d7 30dc 	ldr.w	r3, [r7, #220]	@ 0xdc
 8007dfa:	f403 0380 	and.w	r3, r3, #4194304	@ 0x400000
 8007dfe:	2b00      	cmp	r3, #0
 8007e00:	d00a      	beq.n	8007e18 <HAL_UART_IRQHandler+0x5f4>
 8007e02:	687b      	ldr	r3, [r7, #4]
 8007e04:	681b      	ldr	r3, [r3, #0]
 8007e06:	f44f 1280 	mov.w	r2, #1048576	@ 0x100000
 8007e0a:	621a      	str	r2, [r3, #32]
 8007e0c:	687b      	ldr	r3, [r7, #4]
 8007e0e:	f8d3 30b4 	ldr.w	r3, [r3, #180]	@ 0xb4
 8007e12:	6878      	ldr	r0, [r7, #4]
 8007e14:	4798      	blx	r3
 8007e16:	e055      	b.n	8007ec4 <HAL_UART_IRQHandler+0x6a0>
 8007e18:	f8d7 30e4 	ldr.w	r3, [r7, #228]	@ 0xe4
 8007e1c:	f003 0380 	and.w	r3, r3, #128	@ 0x80
 8007e20:	2b00      	cmp	r3, #0
 8007e22:	d014      	beq.n	8007e4e <HAL_UART_IRQHandler+0x62a>
 8007e24:	f8d7 30e0 	ldr.w	r3, [r7, #224]	@ 0xe0
 8007e28:	f003 0380 	and.w	r3, r3, #128	@ 0x80
 8007e2c:	2b00      	cmp	r3, #0
 8007e2e:	d105      	bne.n	8007e3c <HAL_UART_IRQHandler+0x618>
 8007e30:	f8d7 30dc 	ldr.w	r3, [r7, #220]	@ 0xdc
 8007e34:	f403 0300 	and.w	r3, r3, #8388608	@ 0x800000
 8007e38:	2b00      	cmp	r3, #0
 8007e3a:	d008      	beq.n	8007e4e <HAL_UART_IRQHandler+0x62a>
 8007e3c:	687b      	ldr	r3, [r7, #4]
 8007e3e:	6f9b      	ldr	r3, [r3, #120]	@ 0x78
 8007e40:	2b00      	cmp	r3, #0
 8007e42:	d03e      	beq.n	8007ec2 <HAL_UART_IRQHandler+0x69e>
 8007e44:	687b      	ldr	r3, [r7, #4]
 8007e46:	6f9b      	ldr	r3, [r3, #120]	@ 0x78
 8007e48:	6878      	ldr	r0, [r7, #4]
 8007e4a:	4798      	blx	r3
 8007e4c:	e039      	b.n	8007ec2 <HAL_UART_IRQHandler+0x69e>
 8007e4e:	f8d7 30e4 	ldr.w	r3, [r7, #228]	@ 0xe4
 8007e52:	f003 0340 	and.w	r3, r3, #64	@ 0x40
 8007e56:	2b00      	cmp	r3, #0
 8007e58:	d009      	beq.n	8007e6e <HAL_UART_IRQHandler+0x64a>
 8007e5a:	f8d7 30e0 	ldr.w	r3, [r7, #224]	@ 0xe0
 8007e5e:	f003 0340 	and.w	r3, r3, #64	@ 0x40
 8007e62:	2b00      	cmp	r3, #0
 8007e64:	d003      	beq.n	8007e6e <HAL_UART_IRQHandler+0x64a>
 8007e66:	6878      	ldr	r0, [r7, #4]
 8007e68:	f001 f812 	bl	8008e90 <UART_EndTransmit_IT>
 8007e6c:	e02a      	b.n	8007ec4 <HAL_UART_IRQHandler+0x6a0>
 8007e6e:	f8d7 30e4 	ldr.w	r3, [r7, #228]	@ 0xe4
 8007e72:	f403 0300 	and.w	r3, r3, #8388608	@ 0x800000
 8007e76:	2b00      	cmp	r3, #0
 8007e78:	d00b      	beq.n	8007e92 <HAL_UART_IRQHandler+0x66e>
 8007e7a:	f8d7 30e0 	ldr.w	r3, [r7, #224]	@ 0xe0
 8007e7e:	f003 4380 	and.w	r3, r3, #1073741824	@ 0x40000000
 8007e82:	2b00      	cmp	r3, #0
 8007e84:	d005      	beq.n	8007e92 <HAL_UART_IRQHandler+0x66e>
 8007e86:	687b      	ldr	r3, [r7, #4]
 8007e88:	f8d3 30bc 	ldr.w	r3, [r3, #188]	@ 0xbc
 8007e8c:	6878      	ldr	r0, [r7, #4]
 8007e8e:	4798      	blx	r3
 8007e90:	e018      	b.n	8007ec4 <HAL_UART_IRQHandler+0x6a0>
 8007e92:	f8d7 30e4 	ldr.w	r3, [r7, #228]	@ 0xe4
 8007e96:	f003 7380 	and.w	r3, r3, #16777216	@ 0x1000000
 8007e9a:	2b00      	cmp	r3, #0
 8007e9c:	d012      	beq.n	8007ec4 <HAL_UART_IRQHandler+0x6a0>
 8007e9e:	f8d7 30e0 	ldr.w	r3, [r7, #224]	@ 0xe0
 8007ea2:	2b00      	cmp	r3, #0
 8007ea4:	da0e      	bge.n	8007ec4 <HAL_UART_IRQHandler+0x6a0>
 8007ea6:	687b      	ldr	r3, [r7, #4]
 8007ea8:	f8d3 30b8 	ldr.w	r3, [r3, #184]	@ 0xb8
 8007eac:	6878      	ldr	r0, [r7, #4]
 8007eae:	4798      	blx	r3
 8007eb0:	e008      	b.n	8007ec4 <HAL_UART_IRQHandler+0x6a0>
 8007eb2:	bf00      	nop
 8007eb4:	e006      	b.n	8007ec4 <HAL_UART_IRQHandler+0x6a0>
 8007eb6:	bf00      	nop
 8007eb8:	e004      	b.n	8007ec4 <HAL_UART_IRQHandler+0x6a0>
 8007eba:	bf00      	nop
 8007ebc:	e002      	b.n	8007ec4 <HAL_UART_IRQHandler+0x6a0>
 8007ebe:	bf00      	nop
 8007ec0:	e000      	b.n	8007ec4 <HAL_UART_IRQHandler+0x6a0>
 8007ec2:	bf00      	nop
 8007ec4:	37e8      	adds	r7, #232	@ 0xe8
 8007ec6:	46bd      	mov	sp, r7
 8007ec8:	bd80      	pop	{r7, pc}
 8007eca:	bf00      	nop

08007ecc <HAL_UART_TxCpltCallback>:
 8007ecc:	b480      	push	{r7}
 8007ece:	b083      	sub	sp, #12
 8007ed0:	af00      	add	r7, sp, #0
 8007ed2:	6078      	str	r0, [r7, #4]
 8007ed4:	bf00      	nop
 8007ed6:	370c      	adds	r7, #12
 8007ed8:	46bd      	mov	sp, r7
 8007eda:	f85d 7b04 	ldr.w	r7, [sp], #4
 8007ede:	4770      	bx	lr

08007ee0 <HAL_UART_TxHalfCpltCallback>:
 8007ee0:	b480      	push	{r7}
 8007ee2:	b083      	sub	sp, #12
 8007ee4:	af00      	add	r7, sp, #0
 8007ee6:	6078      	str	r0, [r7, #4]
 8007ee8:	bf00      	nop
 8007eea:	370c      	adds	r7, #12
 8007eec:	46bd      	mov	sp, r7
 8007eee:	f85d 7b04 	ldr.w	r7, [sp], #4
 8007ef2:	4770      	bx	lr

08007ef4 <HAL_UART_RxCpltCallback>:
 8007ef4:	b480      	push	{r7}
 8007ef6:	b083      	sub	sp, #12
 8007ef8:	af00      	add	r7, sp, #0
 8007efa:	6078      	str	r0, [r7, #4]
 8007efc:	bf00      	nop
 8007efe:	370c      	adds	r7, #12
 8007f00:	46bd      	mov	sp, r7
 8007f02:	f85d 7b04 	ldr.w	r7, [sp], #4
 8007f06:	4770      	bx	lr

08007f08 <HAL_UART_RxHalfCpltCallback>:
 8007f08:	b480      	push	{r7}
 8007f0a:	b083      	sub	sp, #12
 8007f0c:	af00      	add	r7, sp, #0
 8007f0e:	6078      	str	r0, [r7, #4]
 8007f10:	bf00      	nop
 8007f12:	370c      	adds	r7, #12
 8007f14:	46bd      	mov	sp, r7
 8007f16:	f85d 7b04 	ldr.w	r7, [sp], #4
 8007f1a:	4770      	bx	lr

08007f1c <HAL_UART_ErrorCallback>:
 8007f1c:	b480      	push	{r7}
 8007f1e:	b083      	sub	sp, #12
 8007f20:	af00      	add	r7, sp, #0
 8007f22:	6078      	str	r0, [r7, #4]
 8007f24:	bf00      	nop
 8007f26:	370c      	adds	r7, #12
 8007f28:	46bd      	mov	sp, r7
 8007f2a:	f85d 7b04 	ldr.w	r7, [sp], #4
 8007f2e:	4770      	bx	lr

08007f30 <HAL_UART_AbortCpltCallback>:
 8007f30:	b480      	push	{r7}
 8007f32:	b083      	sub	sp, #12
 8007f34:	af00      	add	r7, sp, #0
 8007f36:	6078      	str	r0, [r7, #4]
 8007f38:	bf00      	nop
 8007f3a:	370c      	adds	r7, #12
 8007f3c:	46bd      	mov	sp, r7
 8007f3e:	f85d 7b04 	ldr.w	r7, [sp], #4
 8007f42:	4770      	bx	lr

08007f44 <HAL_UART_AbortTransmitCpltCallback>:
 8007f44:	b480      	push	{r7}
 8007f46:	b083      	sub	sp, #12
 8007f48:	af00      	add	r7, sp, #0
 8007f4a:	6078      	str	r0, [r7, #4]
 8007f4c:	bf00      	nop
 8007f4e:	370c      	adds	r7, #12
 8007f50:	46bd      	mov	sp, r7
 8007f52:	f85d 7b04 	ldr.w	r7, [sp], #4
 8007f56:	4770      	bx	lr

08007f58 <HAL_UART_AbortReceiveCpltCallback>:
 8007f58:	b480      	push	{r7}
 8007f5a:	b083      	sub	sp, #12
 8007f5c:	af00      	add	r7, sp, #0
 8007f5e:	6078      	str	r0, [r7, #4]
 8007f60:	bf00      	nop
 8007f62:	370c      	adds	r7, #12
 8007f64:	46bd      	mov	sp, r7
 8007f66:	f85d 7b04 	ldr.w	r7, [sp], #4
 8007f6a:	4770      	bx	lr

08007f6c <HAL_UARTEx_RxEventCallback>:
 8007f6c:	b480      	push	{r7}
 8007f6e:	b083      	sub	sp, #12
 8007f70:	af00      	add	r7, sp, #0
 8007f72:	6078      	str	r0, [r7, #4]
 8007f74:	460b      	mov	r3, r1
 8007f76:	807b      	strh	r3, [r7, #2]
 8007f78:	bf00      	nop
 8007f7a:	370c      	adds	r7, #12
 8007f7c:	46bd      	mov	sp, r7
 8007f7e:	f85d 7b04 	ldr.w	r7, [sp], #4
 8007f82:	4770      	bx	lr

08007f84 <UART_InitCallbacksToDefault>:
 8007f84:	b480      	push	{r7}
 8007f86:	b083      	sub	sp, #12
 8007f88:	af00      	add	r7, sp, #0
 8007f8a:	6078      	str	r0, [r7, #4]
 8007f8c:	687b      	ldr	r3, [r7, #4]
 8007f8e:	4a1a      	ldr	r2, [pc, #104]	@ (8007ff8 <UART_InitCallbacksToDefault+0x74>)
 8007f90:	f8c3 2094 	str.w	r2, [r3, #148]	@ 0x94
 8007f94:	687b      	ldr	r3, [r7, #4]
 8007f96:	4a19      	ldr	r2, [pc, #100]	@ (8007ffc <UART_InitCallbacksToDefault+0x78>)
 8007f98:	f8c3 2098 	str.w	r2, [r3, #152]	@ 0x98
 8007f9c:	687b      	ldr	r3, [r7, #4]
 8007f9e:	4a18      	ldr	r2, [pc, #96]	@ (8008000 <UART_InitCallbacksToDefault+0x7c>)
 8007fa0:	f8c3 209c 	str.w	r2, [r3, #156]	@ 0x9c
 8007fa4:	687b      	ldr	r3, [r7, #4]
 8007fa6:	4a17      	ldr	r2, [pc, #92]	@ (8008004 <UART_InitCallbacksToDefault+0x80>)
 8007fa8:	f8c3 20a0 	str.w	r2, [r3, #160]	@ 0xa0
 8007fac:	687b      	ldr	r3, [r7, #4]
 8007fae:	4a16      	ldr	r2, [pc, #88]	@ (8008008 <UART_InitCallbacksToDefault+0x84>)
 8007fb0:	f8c3 20a4 	str.w	r2, [r3, #164]	@ 0xa4
 8007fb4:	687b      	ldr	r3, [r7, #4]
 8007fb6:	4a15      	ldr	r2, [pc, #84]	@ (800800c <UART_InitCallbacksToDefault+0x88>)
 8007fb8:	f8c3 20a8 	str.w	r2, [r3, #168]	@ 0xa8
 8007fbc:	687b      	ldr	r3, [r7, #4]
 8007fbe:	4a14      	ldr	r2, [pc, #80]	@ (8008010 <UART_InitCallbacksToDefault+0x8c>)
 8007fc0:	f8c3 20ac 	str.w	r2, [r3, #172]	@ 0xac
 8007fc4:	687b      	ldr	r3, [r7, #4]
 8007fc6:	4a13      	ldr	r2, [pc, #76]	@ (8008014 <UART_InitCallbacksToDefault+0x90>)
 8007fc8:	f8c3 20b0 	str.w	r2, [r3, #176]	@ 0xb0
 8007fcc:	687b      	ldr	r3, [r7, #4]
 8007fce:	4a12      	ldr	r2, [pc, #72]	@ (8008018 <UART_InitCallbacksToDefault+0x94>)
 8007fd0:	f8c3 20b4 	str.w	r2, [r3, #180]	@ 0xb4
 8007fd4:	687b      	ldr	r3, [r7, #4]
 8007fd6:	4a11      	ldr	r2, [pc, #68]	@ (800801c <UART_InitCallbacksToDefault+0x98>)
 8007fd8:	f8c3 20b8 	str.w	r2, [r3, #184]	@ 0xb8
 8007fdc:	687b      	ldr	r3, [r7, #4]
 8007fde:	4a10      	ldr	r2, [pc, #64]	@ (8008020 <UART_InitCallbacksToDefault+0x9c>)
 8007fe0:	f8c3 20bc 	str.w	r2, [r3, #188]	@ 0xbc
 8007fe4:	687b      	ldr	r3, [r7, #4]
 8007fe6:	4a0f      	ldr	r2, [pc, #60]	@ (8008024 <UART_InitCallbacksToDefault+0xa0>)
 8007fe8:	f8c3 20c0 	str.w	r2, [r3, #192]	@ 0xc0
 8007fec:	bf00      	nop
 8007fee:	370c      	adds	r7, #12
 8007ff0:	46bd      	mov	sp, r7
 8007ff2:	f85d 7b04 	ldr.w	r7, [sp], #4
 8007ff6:	4770      	bx	lr
 8007ff8:	08007ee1 	.word	0x08007ee1
 8007ffc:	08007ecd 	.word	0x08007ecd
 8008000:	08007f09 	.word	0x08007f09
 8008004:	08007ef5 	.word	0x08007ef5
 8008008:	08007f1d 	.word	0x08007f1d
 800800c:	08007f31 	.word	0x08007f31
 8008010:	08007f45 	.word	0x08007f45
 8008014:	08007f59 	.word	0x08007f59
 8008018:	08009955 	.word	0x08009955
 800801c:	08009969 	.word	0x08009969
 8008020:	0800997d 	.word	0x0800997d
 8008024:	08007f6d 	.word	0x08007f6d

08008028 <UART_SetConfig>:
 8008028:	e92d 4fb0 	stmdb	sp!, {r4, r5, r7, r8, r9, sl, fp, lr}
 800802c:	b08c      	sub	sp, #48	@ 0x30
 800802e:	af00      	add	r7, sp, #0
 8008030:	6178      	str	r0, [r7, #20]
 8008032:	2300      	movs	r3, #0
 8008034:	f887 302a 	strb.w	r3, [r7, #42]	@ 0x2a
 8008038:	697b      	ldr	r3, [r7, #20]
 800803a:	689a      	ldr	r2, [r3, #8]
 800803c:	697b      	ldr	r3, [r7, #20]
 800803e:	691b      	ldr	r3, [r3, #16]
 8008040:	431a      	orrs	r2, r3
 8008042:	697b      	ldr	r3, [r7, #20]
 8008044:	695b      	ldr	r3, [r3, #20]
 8008046:	431a      	orrs	r2, r3
 8008048:	697b      	ldr	r3, [r7, #20]
 800804a:	69db      	ldr	r3, [r3, #28]
 800804c:	4313      	orrs	r3, r2
 800804e:	62fb      	str	r3, [r7, #44]	@ 0x2c
 8008050:	697b      	ldr	r3, [r7, #20]
 8008052:	681b      	ldr	r3, [r3, #0]
 8008054:	681a      	ldr	r2, [r3, #0]
 8008056:	4baa      	ldr	r3, [pc, #680]	@ (8008300 <UART_SetConfig+0x2d8>)
 8008058:	4013      	ands	r3, r2
 800805a:	697a      	ldr	r2, [r7, #20]
 800805c:	6812      	ldr	r2, [r2, #0]
 800805e:	6af9      	ldr	r1, [r7, #44]	@ 0x2c
 8008060:	430b      	orrs	r3, r1
 8008062:	6013      	str	r3, [r2, #0]
 8008064:	697b      	ldr	r3, [r7, #20]
 8008066:	681b      	ldr	r3, [r3, #0]
 8008068:	685b      	ldr	r3, [r3, #4]
 800806a:	f423 5140 	bic.w	r1, r3, #12288	@ 0x3000
 800806e:	697b      	ldr	r3, [r7, #20]
 8008070:	68da      	ldr	r2, [r3, #12]
 8008072:	697b      	ldr	r3, [r7, #20]
 8008074:	681b      	ldr	r3, [r3, #0]
 8008076:	430a      	orrs	r2, r1
 8008078:	605a      	str	r2, [r3, #4]
 800807a:	697b      	ldr	r3, [r7, #20]
 800807c:	699b      	ldr	r3, [r3, #24]
 800807e:	62fb      	str	r3, [r7, #44]	@ 0x2c
 8008080:	697b      	ldr	r3, [r7, #20]
 8008082:	681b      	ldr	r3, [r3, #0]
 8008084:	4a9f      	ldr	r2, [pc, #636]	@ (8008304 <UART_SetConfig+0x2dc>)
 8008086:	4293      	cmp	r3, r2
 8008088:	d004      	beq.n	8008094 <UART_SetConfig+0x6c>
 800808a:	697b      	ldr	r3, [r7, #20]
 800808c:	6a1b      	ldr	r3, [r3, #32]
 800808e:	6afa      	ldr	r2, [r7, #44]	@ 0x2c
 8008090:	4313      	orrs	r3, r2
 8008092:	62fb      	str	r3, [r7, #44]	@ 0x2c
 8008094:	697b      	ldr	r3, [r7, #20]
 8008096:	681b      	ldr	r3, [r3, #0]
 8008098:	689b      	ldr	r3, [r3, #8]
 800809a:	f023 436e 	bic.w	r3, r3, #3992977408	@ 0xee000000
 800809e:	f423 6330 	bic.w	r3, r3, #2816	@ 0xb00
 80080a2:	697a      	ldr	r2, [r7, #20]
 80080a4:	6812      	ldr	r2, [r2, #0]
 80080a6:	6af9      	ldr	r1, [r7, #44]	@ 0x2c
 80080a8:	430b      	orrs	r3, r1
 80080aa:	6093      	str	r3, [r2, #8]
 80080ac:	697b      	ldr	r3, [r7, #20]
 80080ae:	681b      	ldr	r3, [r3, #0]
 80080b0:	6adb      	ldr	r3, [r3, #44]	@ 0x2c
 80080b2:	f023 010f 	bic.w	r1, r3, #15
 80080b6:	697b      	ldr	r3, [r7, #20]
 80080b8:	6a5a      	ldr	r2, [r3, #36]	@ 0x24
 80080ba:	697b      	ldr	r3, [r7, #20]
 80080bc:	681b      	ldr	r3, [r3, #0]
 80080be:	430a      	orrs	r2, r1
 80080c0:	62da      	str	r2, [r3, #44]	@ 0x2c
 80080c2:	697b      	ldr	r3, [r7, #20]
 80080c4:	681b      	ldr	r3, [r3, #0]
 80080c6:	4a90      	ldr	r2, [pc, #576]	@ (8008308 <UART_SetConfig+0x2e0>)
 80080c8:	4293      	cmp	r3, r2
 80080ca:	d125      	bne.n	8008118 <UART_SetConfig+0xf0>
 80080cc:	4b8f      	ldr	r3, [pc, #572]	@ (800830c <UART_SetConfig+0x2e4>)
 80080ce:	f8d3 3088 	ldr.w	r3, [r3, #136]	@ 0x88
 80080d2:	f003 0303 	and.w	r3, r3, #3
 80080d6:	2b03      	cmp	r3, #3
 80080d8:	d81a      	bhi.n	8008110 <UART_SetConfig+0xe8>
 80080da:	a201      	add	r2, pc, #4	@ (adr r2, 80080e0 <UART_SetConfig+0xb8>)
 80080dc:	f852 f023 	ldr.w	pc, [r2, r3, lsl #2]
 80080e0:	080080f1 	.word	0x080080f1
 80080e4:	08008101 	.word	0x08008101
 80080e8:	080080f9 	.word	0x080080f9
 80080ec:	08008109 	.word	0x08008109
 80080f0:	2301      	movs	r3, #1
 80080f2:	f887 302b 	strb.w	r3, [r7, #43]	@ 0x2b
 80080f6:	e116      	b.n	8008326 <UART_SetConfig+0x2fe>
 80080f8:	2302      	movs	r3, #2
 80080fa:	f887 302b 	strb.w	r3, [r7, #43]	@ 0x2b
 80080fe:	e112      	b.n	8008326 <UART_SetConfig+0x2fe>
 8008100:	2304      	movs	r3, #4
 8008102:	f887 302b 	strb.w	r3, [r7, #43]	@ 0x2b
 8008106:	e10e      	b.n	8008326 <UART_SetConfig+0x2fe>
 8008108:	2308      	movs	r3, #8
 800810a:	f887 302b 	strb.w	r3, [r7, #43]	@ 0x2b
 800810e:	e10a      	b.n	8008326 <UART_SetConfig+0x2fe>
 8008110:	2310      	movs	r3, #16
 8008112:	f887 302b 	strb.w	r3, [r7, #43]	@ 0x2b
 8008116:	e106      	b.n	8008326 <UART_SetConfig+0x2fe>
 8008118:	697b      	ldr	r3, [r7, #20]
 800811a:	681b      	ldr	r3, [r3, #0]
 800811c:	4a7c      	ldr	r2, [pc, #496]	@ (8008310 <UART_SetConfig+0x2e8>)
 800811e:	4293      	cmp	r3, r2
 8008120:	d138      	bne.n	8008194 <UART_SetConfig+0x16c>
 8008122:	4b7a      	ldr	r3, [pc, #488]	@ (800830c <UART_SetConfig+0x2e4>)
 8008124:	f8d3 3088 	ldr.w	r3, [r3, #136]	@ 0x88
 8008128:	f003 030c 	and.w	r3, r3, #12
 800812c:	2b0c      	cmp	r3, #12
 800812e:	d82d      	bhi.n	800818c <UART_SetConfig+0x164>
 8008130:	a201      	add	r2, pc, #4	@ (adr r2, 8008138 <UART_SetConfig+0x110>)
 8008132:	f852 f023 	ldr.w	pc, [r2, r3, lsl #2]
 8008136:	bf00      	nop
 8008138:	0800816d 	.word	0x0800816d
 800813c:	0800818d 	.word	0x0800818d
 8008140:	0800818d 	.word	0x0800818d
 8008144:	0800818d 	.word	0x0800818d
 8008148:	0800817d 	.word	0x0800817d
 800814c:	0800818d 	.word	0x0800818d
 8008150:	0800818d 	.word	0x0800818d
 8008154:	0800818d 	.word	0x0800818d
 8008158:	08008175 	.word	0x08008175
 800815c:	0800818d 	.word	0x0800818d
 8008160:	0800818d 	.word	0x0800818d
 8008164:	0800818d 	.word	0x0800818d
 8008168:	08008185 	.word	0x08008185
 800816c:	2300      	movs	r3, #0
 800816e:	f887 302b 	strb.w	r3, [r7, #43]	@ 0x2b
 8008172:	e0d8      	b.n	8008326 <UART_SetConfig+0x2fe>
 8008174:	2302      	movs	r3, #2
 8008176:	f887 302b 	strb.w	r3, [r7, #43]	@ 0x2b
 800817a:	e0d4      	b.n	8008326 <UART_SetConfig+0x2fe>
 800817c:	2304      	movs	r3, #4
 800817e:	f887 302b 	strb.w	r3, [r7, #43]	@ 0x2b
 8008182:	e0d0      	b.n	8008326 <UART_SetConfig+0x2fe>
 8008184:	2308      	movs	r3, #8
 8008186:	f887 302b 	strb.w	r3, [r7, #43]	@ 0x2b
 800818a:	e0cc      	b.n	8008326 <UART_SetConfig+0x2fe>
 800818c:	2310      	movs	r3, #16
 800818e:	f887 302b 	strb.w	r3, [r7, #43]	@ 0x2b
 8008192:	e0c8      	b.n	8008326 <UART_SetConfig+0x2fe>
 8008194:	697b      	ldr	r3, [r7, #20]
 8008196:	681b      	ldr	r3, [r3, #0]
 8008198:	4a5e      	ldr	r2, [pc, #376]	@ (8008314 <UART_SetConfig+0x2ec>)
 800819a:	4293      	cmp	r3, r2
 800819c:	d125      	bne.n	80081ea <UART_SetConfig+0x1c2>
 800819e:	4b5b      	ldr	r3, [pc, #364]	@ (800830c <UART_SetConfig+0x2e4>)
 80081a0:	f8d3 3088 	ldr.w	r3, [r3, #136]	@ 0x88
 80081a4:	f003 0330 	and.w	r3, r3, #48	@ 0x30
 80081a8:	2b30      	cmp	r3, #48	@ 0x30
 80081aa:	d016      	beq.n	80081da <UART_SetConfig+0x1b2>
 80081ac:	2b30      	cmp	r3, #48	@ 0x30
 80081ae:	d818      	bhi.n	80081e2 <UART_SetConfig+0x1ba>
 80081b0:	2b20      	cmp	r3, #32
 80081b2:	d00a      	beq.n	80081ca <UART_SetConfig+0x1a2>
 80081b4:	2b20      	cmp	r3, #32
 80081b6:	d814      	bhi.n	80081e2 <UART_SetConfig+0x1ba>
 80081b8:	2b00      	cmp	r3, #0
 80081ba:	d002      	beq.n	80081c2 <UART_SetConfig+0x19a>
 80081bc:	2b10      	cmp	r3, #16
 80081be:	d008      	beq.n	80081d2 <UART_SetConfig+0x1aa>
 80081c0:	e00f      	b.n	80081e2 <UART_SetConfig+0x1ba>
 80081c2:	2300      	movs	r3, #0
 80081c4:	f887 302b 	strb.w	r3, [r7, #43]	@ 0x2b
 80081c8:	e0ad      	b.n	8008326 <UART_SetConfig+0x2fe>
 80081ca:	2302      	movs	r3, #2
 80081cc:	f887 302b 	strb.w	r3, [r7, #43]	@ 0x2b
 80081d0:	e0a9      	b.n	8008326 <UART_SetConfig+0x2fe>
 80081d2:	2304      	movs	r3, #4
 80081d4:	f887 302b 	strb.w	r3, [r7, #43]	@ 0x2b
 80081d8:	e0a5      	b.n	8008326 <UART_SetConfig+0x2fe>
 80081da:	2308      	movs	r3, #8
 80081dc:	f887 302b 	strb.w	r3, [r7, #43]	@ 0x2b
 80081e0:	e0a1      	b.n	8008326 <UART_SetConfig+0x2fe>
 80081e2:	2310      	movs	r3, #16
 80081e4:	f887 302b 	strb.w	r3, [r7, #43]	@ 0x2b
 80081e8:	e09d      	b.n	8008326 <UART_SetConfig+0x2fe>
 80081ea:	697b      	ldr	r3, [r7, #20]
 80081ec:	681b      	ldr	r3, [r3, #0]
 80081ee:	4a4a      	ldr	r2, [pc, #296]	@ (8008318 <UART_SetConfig+0x2f0>)
 80081f0:	4293      	cmp	r3, r2
 80081f2:	d125      	bne.n	8008240 <UART_SetConfig+0x218>
 80081f4:	4b45      	ldr	r3, [pc, #276]	@ (800830c <UART_SetConfig+0x2e4>)
 80081f6:	f8d3 3088 	ldr.w	r3, [r3, #136]	@ 0x88
 80081fa:	f003 03c0 	and.w	r3, r3, #192	@ 0xc0
 80081fe:	2bc0      	cmp	r3, #192	@ 0xc0
 8008200:	d016      	beq.n	8008230 <UART_SetConfig+0x208>
 8008202:	2bc0      	cmp	r3, #192	@ 0xc0
 8008204:	d818      	bhi.n	8008238 <UART_SetConfig+0x210>
 8008206:	2b80      	cmp	r3, #128	@ 0x80
 8008208:	d00a      	beq.n	8008220 <UART_SetConfig+0x1f8>
 800820a:	2b80      	cmp	r3, #128	@ 0x80
 800820c:	d814      	bhi.n	8008238 <UART_SetConfig+0x210>
 800820e:	2b00      	cmp	r3, #0
 8008210:	d002      	beq.n	8008218 <UART_SetConfig+0x1f0>
 8008212:	2b40      	cmp	r3, #64	@ 0x40
 8008214:	d008      	beq.n	8008228 <UART_SetConfig+0x200>
 8008216:	e00f      	b.n	8008238 <UART_SetConfig+0x210>
 8008218:	2300      	movs	r3, #0
 800821a:	f887 302b 	strb.w	r3, [r7, #43]	@ 0x2b
 800821e:	e082      	b.n	8008326 <UART_SetConfig+0x2fe>
 8008220:	2302      	movs	r3, #2
 8008222:	f887 302b 	strb.w	r3, [r7, #43]	@ 0x2b
 8008226:	e07e      	b.n	8008326 <UART_SetConfig+0x2fe>
 8008228:	2304      	movs	r3, #4
 800822a:	f887 302b 	strb.w	r3, [r7, #43]	@ 0x2b
 800822e:	e07a      	b.n	8008326 <UART_SetConfig+0x2fe>
 8008230:	2308      	movs	r3, #8
 8008232:	f887 302b 	strb.w	r3, [r7, #43]	@ 0x2b
 8008236:	e076      	b.n	8008326 <UART_SetConfig+0x2fe>
 8008238:	2310      	movs	r3, #16
 800823a:	f887 302b 	strb.w	r3, [r7, #43]	@ 0x2b
 800823e:	e072      	b.n	8008326 <UART_SetConfig+0x2fe>
 8008240:	697b      	ldr	r3, [r7, #20]
 8008242:	681b      	ldr	r3, [r3, #0]
 8008244:	4a35      	ldr	r2, [pc, #212]	@ (800831c <UART_SetConfig+0x2f4>)
 8008246:	4293      	cmp	r3, r2
 8008248:	d12a      	bne.n	80082a0 <UART_SetConfig+0x278>
 800824a:	4b30      	ldr	r3, [pc, #192]	@ (800830c <UART_SetConfig+0x2e4>)
 800824c:	f8d3 3088 	ldr.w	r3, [r3, #136]	@ 0x88
 8008250:	f403 7340 	and.w	r3, r3, #768	@ 0x300
 8008254:	f5b3 7f40 	cmp.w	r3, #768	@ 0x300
 8008258:	d01a      	beq.n	8008290 <UART_SetConfig+0x268>
 800825a:	f5b3 7f40 	cmp.w	r3, #768	@ 0x300
 800825e:	d81b      	bhi.n	8008298 <UART_SetConfig+0x270>
 8008260:	f5b3 7f00 	cmp.w	r3, #512	@ 0x200
 8008264:	d00c      	beq.n	8008280 <UART_SetConfig+0x258>
 8008266:	f5b3 7f00 	cmp.w	r3, #512	@ 0x200
 800826a:	d815      	bhi.n	8008298 <UART_SetConfig+0x270>
 800826c:	2b00      	cmp	r3, #0
 800826e:	d003      	beq.n	8008278 <UART_SetConfig+0x250>
 8008270:	f5b3 7f80 	cmp.w	r3, #256	@ 0x100
 8008274:	d008      	beq.n	8008288 <UART_SetConfig+0x260>
 8008276:	e00f      	b.n	8008298 <UART_SetConfig+0x270>
 8008278:	2300      	movs	r3, #0
 800827a:	f887 302b 	strb.w	r3, [r7, #43]	@ 0x2b
 800827e:	e052      	b.n	8008326 <UART_SetConfig+0x2fe>
 8008280:	2302      	movs	r3, #2
 8008282:	f887 302b 	strb.w	r3, [r7, #43]	@ 0x2b
 8008286:	e04e      	b.n	8008326 <UART_SetConfig+0x2fe>
 8008288:	2304      	movs	r3, #4
 800828a:	f887 302b 	strb.w	r3, [r7, #43]	@ 0x2b
 800828e:	e04a      	b.n	8008326 <UART_SetConfig+0x2fe>
 8008290:	2308      	movs	r3, #8
 8008292:	f887 302b 	strb.w	r3, [r7, #43]	@ 0x2b
 8008296:	e046      	b.n	8008326 <UART_SetConfig+0x2fe>
 8008298:	2310      	movs	r3, #16
 800829a:	f887 302b 	strb.w	r3, [r7, #43]	@ 0x2b
 800829e:	e042      	b.n	8008326 <UART_SetConfig+0x2fe>
 80082a0:	697b      	ldr	r3, [r7, #20]
 80082a2:	681b      	ldr	r3, [r3, #0]
 80082a4:	4a17      	ldr	r2, [pc, #92]	@ (8008304 <UART_SetConfig+0x2dc>)
 80082a6:	4293      	cmp	r3, r2
 80082a8:	d13a      	bne.n	8008320 <UART_SetConfig+0x2f8>
 80082aa:	4b18      	ldr	r3, [pc, #96]	@ (800830c <UART_SetConfig+0x2e4>)
 80082ac:	f8d3 3088 	ldr.w	r3, [r3, #136]	@ 0x88
 80082b0:	f403 6340 	and.w	r3, r3, #3072	@ 0xc00
 80082b4:	f5b3 6f40 	cmp.w	r3, #3072	@ 0xc00
 80082b8:	d01a      	beq.n	80082f0 <UART_SetConfig+0x2c8>
 80082ba:	f5b3 6f40 	cmp.w	r3, #3072	@ 0xc00
 80082be:	d81b      	bhi.n	80082f8 <UART_SetConfig+0x2d0>
 80082c0:	f5b3 6f00 	cmp.w	r3, #2048	@ 0x800
 80082c4:	d00c      	beq.n	80082e0 <UART_SetConfig+0x2b8>
 80082c6:	f5b3 6f00 	cmp.w	r3, #2048	@ 0x800
 80082ca:	d815      	bhi.n	80082f8 <UART_SetConfig+0x2d0>
 80082cc:	2b00      	cmp	r3, #0
 80082ce:	d003      	beq.n	80082d8 <UART_SetConfig+0x2b0>
 80082d0:	f5b3 6f80 	cmp.w	r3, #1024	@ 0x400
 80082d4:	d008      	beq.n	80082e8 <UART_SetConfig+0x2c0>
 80082d6:	e00f      	b.n	80082f8 <UART_SetConfig+0x2d0>
 80082d8:	2300      	movs	r3, #0
 80082da:	f887 302b 	strb.w	r3, [r7, #43]	@ 0x2b
 80082de:	e022      	b.n	8008326 <UART_SetConfig+0x2fe>
 80082e0:	2302      	movs	r3, #2
 80082e2:	f887 302b 	strb.w	r3, [r7, #43]	@ 0x2b
 80082e6:	e01e      	b.n	8008326 <UART_SetConfig+0x2fe>
 80082e8:	2304      	movs	r3, #4
 80082ea:	f887 302b 	strb.w	r3, [r7, #43]	@ 0x2b
 80082ee:	e01a      	b.n	8008326 <UART_SetConfig+0x2fe>
 80082f0:	2308      	movs	r3, #8
 80082f2:	f887 302b 	strb.w	r3, [r7, #43]	@ 0x2b
 80082f6:	e016      	b.n	8008326 <UART_SetConfig+0x2fe>
 80082f8:	2310      	movs	r3, #16
 80082fa:	f887 302b 	strb.w	r3, [r7, #43]	@ 0x2b
 80082fe:	e012      	b.n	8008326 <UART_SetConfig+0x2fe>
 8008300:	cfff69f3 	.word	0xcfff69f3
 8008304:	40008000 	.word	0x40008000
 8008308:	40013800 	.word	0x40013800
 800830c:	40021000 	.word	0x40021000
 8008310:	40004400 	.word	0x40004400
 8008314:	40004800 	.word	0x40004800
 8008318:	40004c00 	.word	0x40004c00
 800831c:	40005000 	.word	0x40005000
 8008320:	2310      	movs	r3, #16
 8008322:	f887 302b 	strb.w	r3, [r7, #43]	@ 0x2b
 8008326:	697b      	ldr	r3, [r7, #20]
 8008328:	681b      	ldr	r3, [r3, #0]
 800832a:	4aae      	ldr	r2, [pc, #696]	@ (80085e4 <UART_SetConfig+0x5bc>)
 800832c:	4293      	cmp	r3, r2
 800832e:	f040 8097 	bne.w	8008460 <UART_SetConfig+0x438>
 8008332:	f897 302b 	ldrb.w	r3, [r7, #43]	@ 0x2b
 8008336:	2b08      	cmp	r3, #8
 8008338:	d823      	bhi.n	8008382 <UART_SetConfig+0x35a>
 800833a:	a201      	add	r2, pc, #4	@ (adr r2, 8008340 <UART_SetConfig+0x318>)
 800833c:	f852 f023 	ldr.w	pc, [r2, r3, lsl #2]
 8008340:	08008365 	.word	0x08008365
 8008344:	08008383 	.word	0x08008383
 8008348:	0800836d 	.word	0x0800836d
 800834c:	08008383 	.word	0x08008383
 8008350:	08008373 	.word	0x08008373
 8008354:	08008383 	.word	0x08008383
 8008358:	08008383 	.word	0x08008383
 800835c:	08008383 	.word	0x08008383
 8008360:	0800837b 	.word	0x0800837b
 8008364:	f7fc fca0 	bl	8004ca8 <HAL_RCC_GetPCLK1Freq>
 8008368:	6278      	str	r0, [r7, #36]	@ 0x24
 800836a:	e010      	b.n	800838e <UART_SetConfig+0x366>
 800836c:	4b9e      	ldr	r3, [pc, #632]	@ (80085e8 <UART_SetConfig+0x5c0>)
 800836e:	627b      	str	r3, [r7, #36]	@ 0x24
 8008370:	e00d      	b.n	800838e <UART_SetConfig+0x366>
 8008372:	f7fc fc2b 	bl	8004bcc <HAL_RCC_GetSysClockFreq>
 8008376:	6278      	str	r0, [r7, #36]	@ 0x24
 8008378:	e009      	b.n	800838e <UART_SetConfig+0x366>
 800837a:	f44f 4300 	mov.w	r3, #32768	@ 0x8000
 800837e:	627b      	str	r3, [r7, #36]	@ 0x24
 8008380:	e005      	b.n	800838e <UART_SetConfig+0x366>
 8008382:	2300      	movs	r3, #0
 8008384:	627b      	str	r3, [r7, #36]	@ 0x24
 8008386:	2301      	movs	r3, #1
 8008388:	f887 302a 	strb.w	r3, [r7, #42]	@ 0x2a
 800838c:	bf00      	nop
 800838e:	6a7b      	ldr	r3, [r7, #36]	@ 0x24
 8008390:	2b00      	cmp	r3, #0
 8008392:	f000 8130 	beq.w	80085f6 <UART_SetConfig+0x5ce>
 8008396:	697b      	ldr	r3, [r7, #20]
 8008398:	6a5b      	ldr	r3, [r3, #36]	@ 0x24
 800839a:	4a94      	ldr	r2, [pc, #592]	@ (80085ec <UART_SetConfig+0x5c4>)
 800839c:	f832 3013 	ldrh.w	r3, [r2, r3, lsl #1]
 80083a0:	461a      	mov	r2, r3
 80083a2:	6a7b      	ldr	r3, [r7, #36]	@ 0x24
 80083a4:	fbb3 f3f2 	udiv	r3, r3, r2
 80083a8:	61bb      	str	r3, [r7, #24]
 80083aa:	697b      	ldr	r3, [r7, #20]
 80083ac:	685a      	ldr	r2, [r3, #4]
 80083ae:	4613      	mov	r3, r2
 80083b0:	005b      	lsls	r3, r3, #1
 80083b2:	4413      	add	r3, r2
 80083b4:	69ba      	ldr	r2, [r7, #24]
 80083b6:	429a      	cmp	r2, r3
 80083b8:	d305      	bcc.n	80083c6 <UART_SetConfig+0x39e>
 80083ba:	697b      	ldr	r3, [r7, #20]
 80083bc:	685b      	ldr	r3, [r3, #4]
 80083be:	031b      	lsls	r3, r3, #12
 80083c0:	69ba      	ldr	r2, [r7, #24]
 80083c2:	429a      	cmp	r2, r3
 80083c4:	d903      	bls.n	80083ce <UART_SetConfig+0x3a6>
 80083c6:	2301      	movs	r3, #1
 80083c8:	f887 302a 	strb.w	r3, [r7, #42]	@ 0x2a
 80083cc:	e113      	b.n	80085f6 <UART_SetConfig+0x5ce>
 80083ce:	6a7b      	ldr	r3, [r7, #36]	@ 0x24
 80083d0:	2200      	movs	r2, #0
 80083d2:	60bb      	str	r3, [r7, #8]
 80083d4:	60fa      	str	r2, [r7, #12]
 80083d6:	697b      	ldr	r3, [r7, #20]
 80083d8:	6a5b      	ldr	r3, [r3, #36]	@ 0x24
 80083da:	4a84      	ldr	r2, [pc, #528]	@ (80085ec <UART_SetConfig+0x5c4>)
 80083dc:	f832 3013 	ldrh.w	r3, [r2, r3, lsl #1]
 80083e0:	b29b      	uxth	r3, r3
 80083e2:	2200      	movs	r2, #0
 80083e4:	603b      	str	r3, [r7, #0]
 80083e6:	607a      	str	r2, [r7, #4]
 80083e8:	e9d7 2300 	ldrd	r2, r3, [r7]
 80083ec:	e9d7 0102 	ldrd	r0, r1, [r7, #8]
 80083f0:	f7f7 ff12 	bl	8000218 <__aeabi_uldivmod>
 80083f4:	4602      	mov	r2, r0
 80083f6:	460b      	mov	r3, r1
 80083f8:	4610      	mov	r0, r2
 80083fa:	4619      	mov	r1, r3
 80083fc:	f04f 0200 	mov.w	r2, #0
 8008400:	f04f 0300 	mov.w	r3, #0
 8008404:	020b      	lsls	r3, r1, #8
 8008406:	ea43 6310 	orr.w	r3, r3, r0, lsr #24
 800840a:	0202      	lsls	r2, r0, #8
 800840c:	6979      	ldr	r1, [r7, #20]
 800840e:	6849      	ldr	r1, [r1, #4]
 8008410:	0849      	lsrs	r1, r1, #1
 8008412:	2000      	movs	r0, #0
 8008414:	460c      	mov	r4, r1
 8008416:	4605      	mov	r5, r0
 8008418:	eb12 0804 	adds.w	r8, r2, r4
 800841c:	eb43 0905 	adc.w	r9, r3, r5
 8008420:	697b      	ldr	r3, [r7, #20]
 8008422:	685b      	ldr	r3, [r3, #4]
 8008424:	2200      	movs	r2, #0
 8008426:	469a      	mov	sl, r3
 8008428:	4693      	mov	fp, r2
 800842a:	4652      	mov	r2, sl
 800842c:	465b      	mov	r3, fp
 800842e:	4640      	mov	r0, r8
 8008430:	4649      	mov	r1, r9
 8008432:	f7f7 fef1 	bl	8000218 <__aeabi_uldivmod>
 8008436:	4602      	mov	r2, r0
 8008438:	460b      	mov	r3, r1
 800843a:	4613      	mov	r3, r2
 800843c:	623b      	str	r3, [r7, #32]
 800843e:	6a3b      	ldr	r3, [r7, #32]
 8008440:	f5b3 7f40 	cmp.w	r3, #768	@ 0x300
 8008444:	d308      	bcc.n	8008458 <UART_SetConfig+0x430>
 8008446:	6a3b      	ldr	r3, [r7, #32]
 8008448:	f5b3 1f80 	cmp.w	r3, #1048576	@ 0x100000
 800844c:	d204      	bcs.n	8008458 <UART_SetConfig+0x430>
 800844e:	697b      	ldr	r3, [r7, #20]
 8008450:	681b      	ldr	r3, [r3, #0]
 8008452:	6a3a      	ldr	r2, [r7, #32]
 8008454:	60da      	str	r2, [r3, #12]
 8008456:	e0ce      	b.n	80085f6 <UART_SetConfig+0x5ce>
 8008458:	2301      	movs	r3, #1
 800845a:	f887 302a 	strb.w	r3, [r7, #42]	@ 0x2a
 800845e:	e0ca      	b.n	80085f6 <UART_SetConfig+0x5ce>
 8008460:	697b      	ldr	r3, [r7, #20]
 8008462:	69db      	ldr	r3, [r3, #28]
 8008464:	f5b3 4f00 	cmp.w	r3, #32768	@ 0x8000
 8008468:	d166      	bne.n	8008538 <UART_SetConfig+0x510>
 800846a:	f897 302b 	ldrb.w	r3, [r7, #43]	@ 0x2b
 800846e:	2b08      	cmp	r3, #8
 8008470:	d827      	bhi.n	80084c2 <UART_SetConfig+0x49a>
 8008472:	a201      	add	r2, pc, #4	@ (adr r2, 8008478 <UART_SetConfig+0x450>)
 8008474:	f852 f023 	ldr.w	pc, [r2, r3, lsl #2]
 8008478:	0800849d 	.word	0x0800849d
 800847c:	080084a5 	.word	0x080084a5
 8008480:	080084ad 	.word	0x080084ad
 8008484:	080084c3 	.word	0x080084c3
 8008488:	080084b3 	.word	0x080084b3
 800848c:	080084c3 	.word	0x080084c3
 8008490:	080084c3 	.word	0x080084c3
 8008494:	080084c3 	.word	0x080084c3
 8008498:	080084bb 	.word	0x080084bb
 800849c:	f7fc fc04 	bl	8004ca8 <HAL_RCC_GetPCLK1Freq>
 80084a0:	6278      	str	r0, [r7, #36]	@ 0x24
 80084a2:	e014      	b.n	80084ce <UART_SetConfig+0x4a6>
 80084a4:	f7fc fc16 	bl	8004cd4 <HAL_RCC_GetPCLK2Freq>
 80084a8:	6278      	str	r0, [r7, #36]	@ 0x24
 80084aa:	e010      	b.n	80084ce <UART_SetConfig+0x4a6>
 80084ac:	4b4e      	ldr	r3, [pc, #312]	@ (80085e8 <UART_SetConfig+0x5c0>)
 80084ae:	627b      	str	r3, [r7, #36]	@ 0x24
 80084b0:	e00d      	b.n	80084ce <UART_SetConfig+0x4a6>
 80084b2:	f7fc fb8b 	bl	8004bcc <HAL_RCC_GetSysClockFreq>
 80084b6:	6278      	str	r0, [r7, #36]	@ 0x24
 80084b8:	e009      	b.n	80084ce <UART_SetConfig+0x4a6>
 80084ba:	f44f 4300 	mov.w	r3, #32768	@ 0x8000
 80084be:	627b      	str	r3, [r7, #36]	@ 0x24
 80084c0:	e005      	b.n	80084ce <UART_SetConfig+0x4a6>
 80084c2:	2300      	movs	r3, #0
 80084c4:	627b      	str	r3, [r7, #36]	@ 0x24
 80084c6:	2301      	movs	r3, #1
 80084c8:	f887 302a 	strb.w	r3, [r7, #42]	@ 0x2a
 80084cc:	bf00      	nop
 80084ce:	6a7b      	ldr	r3, [r7, #36]	@ 0x24
 80084d0:	2b00      	cmp	r3, #0
 80084d2:	f000 8090 	beq.w	80085f6 <UART_SetConfig+0x5ce>
 80084d6:	697b      	ldr	r3, [r7, #20]
 80084d8:	6a5b      	ldr	r3, [r3, #36]	@ 0x24
 80084da:	4a44      	ldr	r2, [pc, #272]	@ (80085ec <UART_SetConfig+0x5c4>)
 80084dc:	f832 3013 	ldrh.w	r3, [r2, r3, lsl #1]
 80084e0:	461a      	mov	r2, r3
 80084e2:	6a7b      	ldr	r3, [r7, #36]	@ 0x24
 80084e4:	fbb3 f3f2 	udiv	r3, r3, r2
 80084e8:	005a      	lsls	r2, r3, #1
 80084ea:	697b      	ldr	r3, [r7, #20]
 80084ec:	685b      	ldr	r3, [r3, #4]
 80084ee:	085b      	lsrs	r3, r3, #1
 80084f0:	441a      	add	r2, r3
 80084f2:	697b      	ldr	r3, [r7, #20]
 80084f4:	685b      	ldr	r3, [r3, #4]
 80084f6:	fbb2 f3f3 	udiv	r3, r2, r3
 80084fa:	623b      	str	r3, [r7, #32]
 80084fc:	6a3b      	ldr	r3, [r7, #32]
 80084fe:	2b0f      	cmp	r3, #15
 8008500:	d916      	bls.n	8008530 <UART_SetConfig+0x508>
 8008502:	6a3b      	ldr	r3, [r7, #32]
 8008504:	f5b3 3f80 	cmp.w	r3, #65536	@ 0x10000
 8008508:	d212      	bcs.n	8008530 <UART_SetConfig+0x508>
 800850a:	6a3b      	ldr	r3, [r7, #32]
 800850c:	b29b      	uxth	r3, r3
 800850e:	f023 030f 	bic.w	r3, r3, #15
 8008512:	83fb      	strh	r3, [r7, #30]
 8008514:	6a3b      	ldr	r3, [r7, #32]
 8008516:	085b      	lsrs	r3, r3, #1
 8008518:	b29b      	uxth	r3, r3
 800851a:	f003 0307 	and.w	r3, r3, #7
 800851e:	b29a      	uxth	r2, r3
 8008520:	8bfb      	ldrh	r3, [r7, #30]
 8008522:	4313      	orrs	r3, r2
 8008524:	83fb      	strh	r3, [r7, #30]
 8008526:	697b      	ldr	r3, [r7, #20]
 8008528:	681b      	ldr	r3, [r3, #0]
 800852a:	8bfa      	ldrh	r2, [r7, #30]
 800852c:	60da      	str	r2, [r3, #12]
 800852e:	e062      	b.n	80085f6 <UART_SetConfig+0x5ce>
 8008530:	2301      	movs	r3, #1
 8008532:	f887 302a 	strb.w	r3, [r7, #42]	@ 0x2a
 8008536:	e05e      	b.n	80085f6 <UART_SetConfig+0x5ce>
 8008538:	f897 302b 	ldrb.w	r3, [r7, #43]	@ 0x2b
 800853c:	2b08      	cmp	r3, #8
 800853e:	d828      	bhi.n	8008592 <UART_SetConfig+0x56a>
 8008540:	a201      	add	r2, pc, #4	@ (adr r2, 8008548 <UART_SetConfig+0x520>)
 8008542:	f852 f023 	ldr.w	pc, [r2, r3, lsl #2]
 8008546:	bf00      	nop
 8008548:	0800856d 	.word	0x0800856d
 800854c:	08008575 	.word	0x08008575
 8008550:	0800857d 	.word	0x0800857d
 8008554:	08008593 	.word	0x08008593
 8008558:	08008583 	.word	0x08008583
 800855c:	08008593 	.word	0x08008593
 8008560:	08008593 	.word	0x08008593
 8008564:	08008593 	.word	0x08008593
 8008568:	0800858b 	.word	0x0800858b
 800856c:	f7fc fb9c 	bl	8004ca8 <HAL_RCC_GetPCLK1Freq>
 8008570:	6278      	str	r0, [r7, #36]	@ 0x24
 8008572:	e014      	b.n	800859e <UART_SetConfig+0x576>
 8008574:	f7fc fbae 	bl	8004cd4 <HAL_RCC_GetPCLK2Freq>
 8008578:	6278      	str	r0, [r7, #36]	@ 0x24
 800857a:	e010      	b.n	800859e <UART_SetConfig+0x576>
 800857c:	4b1a      	ldr	r3, [pc, #104]	@ (80085e8 <UART_SetConfig+0x5c0>)
 800857e:	627b      	str	r3, [r7, #36]	@ 0x24
 8008580:	e00d      	b.n	800859e <UART_SetConfig+0x576>
 8008582:	f7fc fb23 	bl	8004bcc <HAL_RCC_GetSysClockFreq>
 8008586:	6278      	str	r0, [r7, #36]	@ 0x24
 8008588:	e009      	b.n	800859e <UART_SetConfig+0x576>
 800858a:	f44f 4300 	mov.w	r3, #32768	@ 0x8000
 800858e:	627b      	str	r3, [r7, #36]	@ 0x24
 8008590:	e005      	b.n	800859e <UART_SetConfig+0x576>
 8008592:	2300      	movs	r3, #0
 8008594:	627b      	str	r3, [r7, #36]	@ 0x24
 8008596:	2301      	movs	r3, #1
 8008598:	f887 302a 	strb.w	r3, [r7, #42]	@ 0x2a
 800859c:	bf00      	nop
 800859e:	6a7b      	ldr	r3, [r7, #36]	@ 0x24
 80085a0:	2b00      	cmp	r3, #0
 80085a2:	d028      	beq.n	80085f6 <UART_SetConfig+0x5ce>
 80085a4:	697b      	ldr	r3, [r7, #20]
 80085a6:	6a5b      	ldr	r3, [r3, #36]	@ 0x24
 80085a8:	4a10      	ldr	r2, [pc, #64]	@ (80085ec <UART_SetConfig+0x5c4>)
 80085aa:	f832 3013 	ldrh.w	r3, [r2, r3, lsl #1]
 80085ae:	461a      	mov	r2, r3
 80085b0:	6a7b      	ldr	r3, [r7, #36]	@ 0x24
 80085b2:	fbb3 f2f2 	udiv	r2, r3, r2
 80085b6:	697b      	ldr	r3, [r7, #20]
 80085b8:	685b      	ldr	r3, [r3, #4]
 80085ba:	085b      	lsrs	r3, r3, #1
 80085bc:	441a      	add	r2, r3
 80085be:	697b      	ldr	r3, [r7, #20]
 80085c0:	685b      	ldr	r3, [r3, #4]
 80085c2:	fbb2 f3f3 	udiv	r3, r2, r3
 80085c6:	623b      	str	r3, [r7, #32]
 80085c8:	6a3b      	ldr	r3, [r7, #32]
 80085ca:	2b0f      	cmp	r3, #15
 80085cc:	d910      	bls.n	80085f0 <UART_SetConfig+0x5c8>
 80085ce:	6a3b      	ldr	r3, [r7, #32]
 80085d0:	f5b3 3f80 	cmp.w	r3, #65536	@ 0x10000
 80085d4:	d20c      	bcs.n	80085f0 <UART_SetConfig+0x5c8>
 80085d6:	6a3b      	ldr	r3, [r7, #32]
 80085d8:	b29a      	uxth	r2, r3
 80085da:	697b      	ldr	r3, [r7, #20]
 80085dc:	681b      	ldr	r3, [r3, #0]
 80085de:	60da      	str	r2, [r3, #12]
 80085e0:	e009      	b.n	80085f6 <UART_SetConfig+0x5ce>
 80085e2:	bf00      	nop
 80085e4:	40008000 	.word	0x40008000
 80085e8:	00f42400 	.word	0x00f42400
 80085ec:	08009c3c 	.word	0x08009c3c
 80085f0:	2301      	movs	r3, #1
 80085f2:	f887 302a 	strb.w	r3, [r7, #42]	@ 0x2a
 80085f6:	697b      	ldr	r3, [r7, #20]
 80085f8:	2201      	movs	r2, #1
 80085fa:	f8a3 206a 	strh.w	r2, [r3, #106]	@ 0x6a
 80085fe:	697b      	ldr	r3, [r7, #20]
 8008600:	2201      	movs	r2, #1
 8008602:	f8a3 2068 	strh.w	r2, [r3, #104]	@ 0x68
 8008606:	697b      	ldr	r3, [r7, #20]
 8008608:	2200      	movs	r2, #0
 800860a:	675a      	str	r2, [r3, #116]	@ 0x74
 800860c:	697b      	ldr	r3, [r7, #20]
 800860e:	2200      	movs	r2, #0
 8008610:	679a      	str	r2, [r3, #120]	@ 0x78
 8008612:	f897 302a 	ldrb.w	r3, [r7, #42]	@ 0x2a
 8008616:	4618      	mov	r0, r3
 8008618:	3730      	adds	r7, #48	@ 0x30
 800861a:	46bd      	mov	sp, r7
 800861c:	e8bd 8fb0 	ldmia.w	sp!, {r4, r5, r7, r8, r9, sl, fp, pc}

08008620 <UART_AdvFeatureConfig>:
 8008620:	b480      	push	{r7}
 8008622:	b083      	sub	sp, #12
 8008624:	af00      	add	r7, sp, #0
 8008626:	6078      	str	r0, [r7, #4]
 8008628:	687b      	ldr	r3, [r7, #4]
 800862a:	6a9b      	ldr	r3, [r3, #40]	@ 0x28
 800862c:	f003 0308 	and.w	r3, r3, #8
 8008630:	2b00      	cmp	r3, #0
 8008632:	d00a      	beq.n	800864a <UART_AdvFeatureConfig+0x2a>
 8008634:	687b      	ldr	r3, [r7, #4]
 8008636:	681b      	ldr	r3, [r3, #0]
 8008638:	685b      	ldr	r3, [r3, #4]
 800863a:	f423 4100 	bic.w	r1, r3, #32768	@ 0x8000
 800863e:	687b      	ldr	r3, [r7, #4]
 8008640:	6b9a      	ldr	r2, [r3, #56]	@ 0x38
 8008642:	687b      	ldr	r3, [r7, #4]
 8008644:	681b      	ldr	r3, [r3, #0]
 8008646:	430a      	orrs	r2, r1
 8008648:	605a      	str	r2, [r3, #4]
 800864a:	687b      	ldr	r3, [r7, #4]
 800864c:	6a9b      	ldr	r3, [r3, #40]	@ 0x28
 800864e:	f003 0301 	and.w	r3, r3, #1
 8008652:	2b00      	cmp	r3, #0
 8008654:	d00a      	beq.n	800866c <UART_AdvFeatureConfig+0x4c>
 8008656:	687b      	ldr	r3, [r7, #4]
 8008658:	681b      	ldr	r3, [r3, #0]
 800865a:	685b      	ldr	r3, [r3, #4]
 800865c:	f423 3100 	bic.w	r1, r3, #131072	@ 0x20000
 8008660:	687b      	ldr	r3, [r7, #4]
 8008662:	6ada      	ldr	r2, [r3, #44]	@ 0x2c
 8008664:	687b      	ldr	r3, [r7, #4]
 8008666:	681b      	ldr	r3, [r3, #0]
 8008668:	430a      	orrs	r2, r1
 800866a:	605a      	str	r2, [r3, #4]
 800866c:	687b      	ldr	r3, [r7, #4]
 800866e:	6a9b      	ldr	r3, [r3, #40]	@ 0x28
 8008670:	f003 0302 	and.w	r3, r3, #2
 8008674:	2b00      	cmp	r3, #0
 8008676:	d00a      	beq.n	800868e <UART_AdvFeatureConfig+0x6e>
 8008678:	687b      	ldr	r3, [r7, #4]
 800867a:	681b      	ldr	r3, [r3, #0]
 800867c:	685b      	ldr	r3, [r3, #4]
 800867e:	f423 3180 	bic.w	r1, r3, #65536	@ 0x10000
 8008682:	687b      	ldr	r3, [r7, #4]
 8008684:	6b1a      	ldr	r2, [r3, #48]	@ 0x30
 8008686:	687b      	ldr	r3, [r7, #4]
 8008688:	681b      	ldr	r3, [r3, #0]
 800868a:	430a      	orrs	r2, r1
 800868c:	605a      	str	r2, [r3, #4]
 800868e:	687b      	ldr	r3, [r7, #4]
 8008690:	6a9b      	ldr	r3, [r3, #40]	@ 0x28
 8008692:	f003 0304 	and.w	r3, r3, #4
 8008696:	2b00      	cmp	r3, #0
 8008698:	d00a      	beq.n	80086b0 <UART_AdvFeatureConfig+0x90>
 800869a:	687b      	ldr	r3, [r7, #4]
 800869c:	681b      	ldr	r3, [r3, #0]
 800869e:	685b      	ldr	r3, [r3, #4]
 80086a0:	f423 2180 	bic.w	r1, r3, #262144	@ 0x40000
 80086a4:	687b      	ldr	r3, [r7, #4]
 80086a6:	6b5a      	ldr	r2, [r3, #52]	@ 0x34
 80086a8:	687b      	ldr	r3, [r7, #4]
 80086aa:	681b      	ldr	r3, [r3, #0]
 80086ac:	430a      	orrs	r2, r1
 80086ae:	605a      	str	r2, [r3, #4]
 80086b0:	687b      	ldr	r3, [r7, #4]
 80086b2:	6a9b      	ldr	r3, [r3, #40]	@ 0x28
 80086b4:	f003 0310 	and.w	r3, r3, #16
 80086b8:	2b00      	cmp	r3, #0
 80086ba:	d00a      	beq.n	80086d2 <UART_AdvFeatureConfig+0xb2>
 80086bc:	687b      	ldr	r3, [r7, #4]
 80086be:	681b      	ldr	r3, [r3, #0]
 80086c0:	689b      	ldr	r3, [r3, #8]
 80086c2:	f423 5180 	bic.w	r1, r3, #4096	@ 0x1000
 80086c6:	687b      	ldr	r3, [r7, #4]
 80086c8:	6bda      	ldr	r2, [r3, #60]	@ 0x3c
 80086ca:	687b      	ldr	r3, [r7, #4]
 80086cc:	681b      	ldr	r3, [r3, #0]
 80086ce:	430a      	orrs	r2, r1
 80086d0:	609a      	str	r2, [r3, #8]
 80086d2:	687b      	ldr	r3, [r7, #4]
 80086d4:	6a9b      	ldr	r3, [r3, #40]	@ 0x28
 80086d6:	f003 0320 	and.w	r3, r3, #32
 80086da:	2b00      	cmp	r3, #0
 80086dc:	d00a      	beq.n	80086f4 <UART_AdvFeatureConfig+0xd4>
 80086de:	687b      	ldr	r3, [r7, #4]
 80086e0:	681b      	ldr	r3, [r3, #0]
 80086e2:	689b      	ldr	r3, [r3, #8]
 80086e4:	f423 5100 	bic.w	r1, r3, #8192	@ 0x2000
 80086e8:	687b      	ldr	r3, [r7, #4]
 80086ea:	6c1a      	ldr	r2, [r3, #64]	@ 0x40
 80086ec:	687b      	ldr	r3, [r7, #4]
 80086ee:	681b      	ldr	r3, [r3, #0]
 80086f0:	430a      	orrs	r2, r1
 80086f2:	609a      	str	r2, [r3, #8]
 80086f4:	687b      	ldr	r3, [r7, #4]
 80086f6:	6a9b      	ldr	r3, [r3, #40]	@ 0x28
 80086f8:	f003 0340 	and.w	r3, r3, #64	@ 0x40
 80086fc:	2b00      	cmp	r3, #0
 80086fe:	d01a      	beq.n	8008736 <UART_AdvFeatureConfig+0x116>
 8008700:	687b      	ldr	r3, [r7, #4]
 8008702:	681b      	ldr	r3, [r3, #0]
 8008704:	685b      	ldr	r3, [r3, #4]
 8008706:	f423 1180 	bic.w	r1, r3, #1048576	@ 0x100000
 800870a:	687b      	ldr	r3, [r7, #4]
 800870c:	6c5a      	ldr	r2, [r3, #68]	@ 0x44
 800870e:	687b      	ldr	r3, [r7, #4]
 8008710:	681b      	ldr	r3, [r3, #0]
 8008712:	430a      	orrs	r2, r1
 8008714:	605a      	str	r2, [r3, #4]
 8008716:	687b      	ldr	r3, [r7, #4]
 8008718:	6c5b      	ldr	r3, [r3, #68]	@ 0x44
 800871a:	f5b3 1f80 	cmp.w	r3, #1048576	@ 0x100000
 800871e:	d10a      	bne.n	8008736 <UART_AdvFeatureConfig+0x116>
 8008720:	687b      	ldr	r3, [r7, #4]
 8008722:	681b      	ldr	r3, [r3, #0]
 8008724:	685b      	ldr	r3, [r3, #4]
 8008726:	f423 01c0 	bic.w	r1, r3, #6291456	@ 0x600000
 800872a:	687b      	ldr	r3, [r7, #4]
 800872c:	6c9a      	ldr	r2, [r3, #72]	@ 0x48
 800872e:	687b      	ldr	r3, [r7, #4]
 8008730:	681b      	ldr	r3, [r3, #0]
 8008732:	430a      	orrs	r2, r1
 8008734:	605a      	str	r2, [r3, #4]
 8008736:	687b      	ldr	r3, [r7, #4]
 8008738:	6a9b      	ldr	r3, [r3, #40]	@ 0x28
 800873a:	f003 0380 	and.w	r3, r3, #128	@ 0x80
 800873e:	2b00      	cmp	r3, #0
 8008740:	d00a      	beq.n	8008758 <UART_AdvFeatureConfig+0x138>
 8008742:	687b      	ldr	r3, [r7, #4]
 8008744:	681b      	ldr	r3, [r3, #0]
 8008746:	685b      	ldr	r3, [r3, #4]
 8008748:	f423 2100 	bic.w	r1, r3, #524288	@ 0x80000
 800874c:	687b      	ldr	r3, [r7, #4]
 800874e:	6cda      	ldr	r2, [r3, #76]	@ 0x4c
 8008750:	687b      	ldr	r3, [r7, #4]
 8008752:	681b      	ldr	r3, [r3, #0]
 8008754:	430a      	orrs	r2, r1
 8008756:	605a      	str	r2, [r3, #4]
 8008758:	bf00      	nop
 800875a:	370c      	adds	r7, #12
 800875c:	46bd      	mov	sp, r7
 800875e:	f85d 7b04 	ldr.w	r7, [sp], #4
 8008762:	4770      	bx	lr

08008764 <UART_CheckIdleState>:
 8008764:	b580      	push	{r7, lr}
 8008766:	b098      	sub	sp, #96	@ 0x60
 8008768:	af02      	add	r7, sp, #8
 800876a:	6078      	str	r0, [r7, #4]
 800876c:	687b      	ldr	r3, [r7, #4]
 800876e:	2200      	movs	r2, #0
 8008770:	f8c3 2090 	str.w	r2, [r3, #144]	@ 0x90
 8008774:	f7f9 fe1c 	bl	80023b0 <HAL_GetTick>
 8008778:	6578      	str	r0, [r7, #84]	@ 0x54
 800877a:	687b      	ldr	r3, [r7, #4]
 800877c:	681b      	ldr	r3, [r3, #0]
 800877e:	681b      	ldr	r3, [r3, #0]
 8008780:	f003 0308 	and.w	r3, r3, #8
 8008784:	2b08      	cmp	r3, #8
 8008786:	d12f      	bne.n	80087e8 <UART_CheckIdleState+0x84>
 8008788:	f06f 437e 	mvn.w	r3, #4261412864	@ 0xfe000000
 800878c:	9300      	str	r3, [sp, #0]
 800878e:	6d7b      	ldr	r3, [r7, #84]	@ 0x54
 8008790:	2200      	movs	r2, #0
 8008792:	f44f 1100 	mov.w	r1, #2097152	@ 0x200000
 8008796:	6878      	ldr	r0, [r7, #4]
 8008798:	f000 f88e 	bl	80088b8 <UART_WaitOnFlagUntilTimeout>
 800879c:	4603      	mov	r3, r0
 800879e:	2b00      	cmp	r3, #0
 80087a0:	d022      	beq.n	80087e8 <UART_CheckIdleState+0x84>
 80087a2:	687b      	ldr	r3, [r7, #4]
 80087a4:	681b      	ldr	r3, [r3, #0]
 80087a6:	63bb      	str	r3, [r7, #56]	@ 0x38
 80087a8:	6bbb      	ldr	r3, [r7, #56]	@ 0x38
 80087aa:	e853 3f00 	ldrex	r3, [r3]
 80087ae:	637b      	str	r3, [r7, #52]	@ 0x34
 80087b0:	6b7b      	ldr	r3, [r7, #52]	@ 0x34
 80087b2:	f023 0380 	bic.w	r3, r3, #128	@ 0x80
 80087b6:	653b      	str	r3, [r7, #80]	@ 0x50
 80087b8:	687b      	ldr	r3, [r7, #4]
 80087ba:	681b      	ldr	r3, [r3, #0]
 80087bc:	461a      	mov	r2, r3
 80087be:	6d3b      	ldr	r3, [r7, #80]	@ 0x50
 80087c0:	647b      	str	r3, [r7, #68]	@ 0x44
 80087c2:	643a      	str	r2, [r7, #64]	@ 0x40
 80087c4:	6c39      	ldr	r1, [r7, #64]	@ 0x40
 80087c6:	6c7a      	ldr	r2, [r7, #68]	@ 0x44
 80087c8:	e841 2300 	strex	r3, r2, [r1]
 80087cc:	63fb      	str	r3, [r7, #60]	@ 0x3c
 80087ce:	6bfb      	ldr	r3, [r7, #60]	@ 0x3c
 80087d0:	2b00      	cmp	r3, #0
 80087d2:	d1e6      	bne.n	80087a2 <UART_CheckIdleState+0x3e>
 80087d4:	687b      	ldr	r3, [r7, #4]
 80087d6:	2220      	movs	r2, #32
 80087d8:	f8c3 2088 	str.w	r2, [r3, #136]	@ 0x88
 80087dc:	687b      	ldr	r3, [r7, #4]
 80087de:	2200      	movs	r2, #0
 80087e0:	f883 2084 	strb.w	r2, [r3, #132]	@ 0x84
 80087e4:	2303      	movs	r3, #3
 80087e6:	e063      	b.n	80088b0 <UART_CheckIdleState+0x14c>
 80087e8:	687b      	ldr	r3, [r7, #4]
 80087ea:	681b      	ldr	r3, [r3, #0]
 80087ec:	681b      	ldr	r3, [r3, #0]
 80087ee:	f003 0304 	and.w	r3, r3, #4
 80087f2:	2b04      	cmp	r3, #4
 80087f4:	d149      	bne.n	800888a <UART_CheckIdleState+0x126>
 80087f6:	f06f 437e 	mvn.w	r3, #4261412864	@ 0xfe000000
 80087fa:	9300      	str	r3, [sp, #0]
 80087fc:	6d7b      	ldr	r3, [r7, #84]	@ 0x54
 80087fe:	2200      	movs	r2, #0
 8008800:	f44f 0180 	mov.w	r1, #4194304	@ 0x400000
 8008804:	6878      	ldr	r0, [r7, #4]
 8008806:	f000 f857 	bl	80088b8 <UART_WaitOnFlagUntilTimeout>
 800880a:	4603      	mov	r3, r0
 800880c:	2b00      	cmp	r3, #0
 800880e:	d03c      	beq.n	800888a <UART_CheckIdleState+0x126>
 8008810:	687b      	ldr	r3, [r7, #4]
 8008812:	681b      	ldr	r3, [r3, #0]
 8008814:	627b      	str	r3, [r7, #36]	@ 0x24
 8008816:	6a7b      	ldr	r3, [r7, #36]	@ 0x24
 8008818:	e853 3f00 	ldrex	r3, [r3]
 800881c:	623b      	str	r3, [r7, #32]
 800881e:	6a3b      	ldr	r3, [r7, #32]
 8008820:	f423 7390 	bic.w	r3, r3, #288	@ 0x120
 8008824:	64fb      	str	r3, [r7, #76]	@ 0x4c
 8008826:	687b      	ldr	r3, [r7, #4]
 8008828:	681b      	ldr	r3, [r3, #0]
 800882a:	461a      	mov	r2, r3
 800882c:	6cfb      	ldr	r3, [r7, #76]	@ 0x4c
 800882e:	633b      	str	r3, [r7, #48]	@ 0x30
 8008830:	62fa      	str	r2, [r7, #44]	@ 0x2c
 8008832:	6af9      	ldr	r1, [r7, #44]	@ 0x2c
 8008834:	6b3a      	ldr	r2, [r7, #48]	@ 0x30
 8008836:	e841 2300 	strex	r3, r2, [r1]
 800883a:	62bb      	str	r3, [r7, #40]	@ 0x28
 800883c:	6abb      	ldr	r3, [r7, #40]	@ 0x28
 800883e:	2b00      	cmp	r3, #0
 8008840:	d1e6      	bne.n	8008810 <UART_CheckIdleState+0xac>
 8008842:	687b      	ldr	r3, [r7, #4]
 8008844:	681b      	ldr	r3, [r3, #0]
 8008846:	3308      	adds	r3, #8
 8008848:	613b      	str	r3, [r7, #16]
 800884a:	693b      	ldr	r3, [r7, #16]
 800884c:	e853 3f00 	ldrex	r3, [r3]
 8008850:	60fb      	str	r3, [r7, #12]
 8008852:	68fb      	ldr	r3, [r7, #12]
 8008854:	f023 0301 	bic.w	r3, r3, #1
 8008858:	64bb      	str	r3, [r7, #72]	@ 0x48
 800885a:	687b      	ldr	r3, [r7, #4]
 800885c:	681b      	ldr	r3, [r3, #0]
 800885e:	3308      	adds	r3, #8
 8008860:	6cba      	ldr	r2, [r7, #72]	@ 0x48
 8008862:	61fa      	str	r2, [r7, #28]
 8008864:	61bb      	str	r3, [r7, #24]
 8008866:	69b9      	ldr	r1, [r7, #24]
 8008868:	69fa      	ldr	r2, [r7, #28]
 800886a:	e841 2300 	strex	r3, r2, [r1]
 800886e:	617b      	str	r3, [r7, #20]
 8008870:	697b      	ldr	r3, [r7, #20]
 8008872:	2b00      	cmp	r3, #0
 8008874:	d1e5      	bne.n	8008842 <UART_CheckIdleState+0xde>
 8008876:	687b      	ldr	r3, [r7, #4]
 8008878:	2220      	movs	r2, #32
 800887a:	f8c3 208c 	str.w	r2, [r3, #140]	@ 0x8c
 800887e:	687b      	ldr	r3, [r7, #4]
 8008880:	2200      	movs	r2, #0
 8008882:	f883 2084 	strb.w	r2, [r3, #132]	@ 0x84
 8008886:	2303      	movs	r3, #3
 8008888:	e012      	b.n	80088b0 <UART_CheckIdleState+0x14c>
 800888a:	687b      	ldr	r3, [r7, #4]
 800888c:	2220      	movs	r2, #32
 800888e:	f8c3 2088 	str.w	r2, [r3, #136]	@ 0x88
 8008892:	687b      	ldr	r3, [r7, #4]
 8008894:	2220      	movs	r2, #32
 8008896:	f8c3 208c 	str.w	r2, [r3, #140]	@ 0x8c
 800889a:	687b      	ldr	r3, [r7, #4]
 800889c:	2200      	movs	r2, #0
 800889e:	66da      	str	r2, [r3, #108]	@ 0x6c
 80088a0:	687b      	ldr	r3, [r7, #4]
 80088a2:	2200      	movs	r2, #0
 80088a4:	671a      	str	r2, [r3, #112]	@ 0x70
 80088a6:	687b      	ldr	r3, [r7, #4]
 80088a8:	2200      	movs	r2, #0
 80088aa:	f883 2084 	strb.w	r2, [r3, #132]	@ 0x84
 80088ae:	2300      	movs	r3, #0
 80088b0:	4618      	mov	r0, r3
 80088b2:	3758      	adds	r7, #88	@ 0x58
 80088b4:	46bd      	mov	sp, r7
 80088b6:	bd80      	pop	{r7, pc}

080088b8 <UART_WaitOnFlagUntilTimeout>:
 80088b8:	b580      	push	{r7, lr}
 80088ba:	b084      	sub	sp, #16
 80088bc:	af00      	add	r7, sp, #0
 80088be:	60f8      	str	r0, [r7, #12]
 80088c0:	60b9      	str	r1, [r7, #8]
 80088c2:	603b      	str	r3, [r7, #0]
 80088c4:	4613      	mov	r3, r2
 80088c6:	71fb      	strb	r3, [r7, #7]
 80088c8:	e04f      	b.n	800896a <UART_WaitOnFlagUntilTimeout+0xb2>
 80088ca:	69bb      	ldr	r3, [r7, #24]
 80088cc:	f1b3 3fff 	cmp.w	r3, #4294967295
 80088d0:	d04b      	beq.n	800896a <UART_WaitOnFlagUntilTimeout+0xb2>
 80088d2:	f7f9 fd6d 	bl	80023b0 <HAL_GetTick>
 80088d6:	4602      	mov	r2, r0
 80088d8:	683b      	ldr	r3, [r7, #0]
 80088da:	1ad3      	subs	r3, r2, r3
 80088dc:	69ba      	ldr	r2, [r7, #24]
 80088de:	429a      	cmp	r2, r3
 80088e0:	d302      	bcc.n	80088e8 <UART_WaitOnFlagUntilTimeout+0x30>
 80088e2:	69bb      	ldr	r3, [r7, #24]
 80088e4:	2b00      	cmp	r3, #0
 80088e6:	d101      	bne.n	80088ec <UART_WaitOnFlagUntilTimeout+0x34>
 80088e8:	2303      	movs	r3, #3
 80088ea:	e04e      	b.n	800898a <UART_WaitOnFlagUntilTimeout+0xd2>
 80088ec:	68fb      	ldr	r3, [r7, #12]
 80088ee:	681b      	ldr	r3, [r3, #0]
 80088f0:	681b      	ldr	r3, [r3, #0]
 80088f2:	f003 0304 	and.w	r3, r3, #4
 80088f6:	2b00      	cmp	r3, #0
 80088f8:	d037      	beq.n	800896a <UART_WaitOnFlagUntilTimeout+0xb2>
 80088fa:	68bb      	ldr	r3, [r7, #8]
 80088fc:	2b80      	cmp	r3, #128	@ 0x80
 80088fe:	d034      	beq.n	800896a <UART_WaitOnFlagUntilTimeout+0xb2>
 8008900:	68bb      	ldr	r3, [r7, #8]
 8008902:	2b40      	cmp	r3, #64	@ 0x40
 8008904:	d031      	beq.n	800896a <UART_WaitOnFlagUntilTimeout+0xb2>
 8008906:	68fb      	ldr	r3, [r7, #12]
 8008908:	681b      	ldr	r3, [r3, #0]
 800890a:	69db      	ldr	r3, [r3, #28]
 800890c:	f003 0308 	and.w	r3, r3, #8
 8008910:	2b08      	cmp	r3, #8
 8008912:	d110      	bne.n	8008936 <UART_WaitOnFlagUntilTimeout+0x7e>
 8008914:	68fb      	ldr	r3, [r7, #12]
 8008916:	681b      	ldr	r3, [r3, #0]
 8008918:	2208      	movs	r2, #8
 800891a:	621a      	str	r2, [r3, #32]
 800891c:	68f8      	ldr	r0, [r7, #12]
 800891e:	f000 f99c 	bl	8008c5a <UART_EndRxTransfer>
 8008922:	68fb      	ldr	r3, [r7, #12]
 8008924:	2208      	movs	r2, #8
 8008926:	f8c3 2090 	str.w	r2, [r3, #144]	@ 0x90
 800892a:	68fb      	ldr	r3, [r7, #12]
 800892c:	2200      	movs	r2, #0
 800892e:	f883 2084 	strb.w	r2, [r3, #132]	@ 0x84
 8008932:	2301      	movs	r3, #1
 8008934:	e029      	b.n	800898a <UART_WaitOnFlagUntilTimeout+0xd2>
 8008936:	68fb      	ldr	r3, [r7, #12]
 8008938:	681b      	ldr	r3, [r3, #0]
 800893a:	69db      	ldr	r3, [r3, #28]
 800893c:	f403 6300 	and.w	r3, r3, #2048	@ 0x800
 8008940:	f5b3 6f00 	cmp.w	r3, #2048	@ 0x800
 8008944:	d111      	bne.n	800896a <UART_WaitOnFlagUntilTimeout+0xb2>
 8008946:	68fb      	ldr	r3, [r7, #12]
 8008948:	681b      	ldr	r3, [r3, #0]
 800894a:	f44f 6200 	mov.w	r2, #2048	@ 0x800
 800894e:	621a      	str	r2, [r3, #32]
 8008950:	68f8      	ldr	r0, [r7, #12]
 8008952:	f000 f982 	bl	8008c5a <UART_EndRxTransfer>
 8008956:	68fb      	ldr	r3, [r7, #12]
 8008958:	2220      	movs	r2, #32
 800895a:	f8c3 2090 	str.w	r2, [r3, #144]	@ 0x90
 800895e:	68fb      	ldr	r3, [r7, #12]
 8008960:	2200      	movs	r2, #0
 8008962:	f883 2084 	strb.w	r2, [r3, #132]	@ 0x84
 8008966:	2303      	movs	r3, #3
 8008968:	e00f      	b.n	800898a <UART_WaitOnFlagUntilTimeout+0xd2>
 800896a:	68fb      	ldr	r3, [r7, #12]
 800896c:	681b      	ldr	r3, [r3, #0]
 800896e:	69da      	ldr	r2, [r3, #28]
 8008970:	68bb      	ldr	r3, [r7, #8]
 8008972:	4013      	ands	r3, r2
 8008974:	68ba      	ldr	r2, [r7, #8]
 8008976:	429a      	cmp	r2, r3
 8008978:	bf0c      	ite	eq
 800897a:	2301      	moveq	r3, #1
 800897c:	2300      	movne	r3, #0
 800897e:	b2db      	uxtb	r3, r3
 8008980:	461a      	mov	r2, r3
 8008982:	79fb      	ldrb	r3, [r7, #7]
 8008984:	429a      	cmp	r2, r3
 8008986:	d0a0      	beq.n	80088ca <UART_WaitOnFlagUntilTimeout+0x12>
 8008988:	2300      	movs	r3, #0
 800898a:	4618      	mov	r0, r3
 800898c:	3710      	adds	r7, #16
 800898e:	46bd      	mov	sp, r7
 8008990:	bd80      	pop	{r7, pc}
	...

08008994 <UART_Start_Receive_IT>:
 8008994:	b480      	push	{r7}
 8008996:	b0a3      	sub	sp, #140	@ 0x8c
 8008998:	af00      	add	r7, sp, #0
 800899a:	60f8      	str	r0, [r7, #12]
 800899c:	60b9      	str	r1, [r7, #8]
 800899e:	4613      	mov	r3, r2
 80089a0:	80fb      	strh	r3, [r7, #6]
 80089a2:	68fb      	ldr	r3, [r7, #12]
 80089a4:	68ba      	ldr	r2, [r7, #8]
 80089a6:	659a      	str	r2, [r3, #88]	@ 0x58
 80089a8:	68fb      	ldr	r3, [r7, #12]
 80089aa:	88fa      	ldrh	r2, [r7, #6]
 80089ac:	f8a3 205c 	strh.w	r2, [r3, #92]	@ 0x5c
 80089b0:	68fb      	ldr	r3, [r7, #12]
 80089b2:	88fa      	ldrh	r2, [r7, #6]
 80089b4:	f8a3 205e 	strh.w	r2, [r3, #94]	@ 0x5e
 80089b8:	68fb      	ldr	r3, [r7, #12]
 80089ba:	2200      	movs	r2, #0
 80089bc:	675a      	str	r2, [r3, #116]	@ 0x74
 80089be:	68fb      	ldr	r3, [r7, #12]
 80089c0:	689b      	ldr	r3, [r3, #8]
 80089c2:	f5b3 5f80 	cmp.w	r3, #4096	@ 0x1000
 80089c6:	d10e      	bne.n	80089e6 <UART_Start_Receive_IT+0x52>
 80089c8:	68fb      	ldr	r3, [r7, #12]
 80089ca:	691b      	ldr	r3, [r3, #16]
 80089cc:	2b00      	cmp	r3, #0
 80089ce:	d105      	bne.n	80089dc <UART_Start_Receive_IT+0x48>
 80089d0:	68fb      	ldr	r3, [r7, #12]
 80089d2:	f240 12ff 	movw	r2, #511	@ 0x1ff
 80089d6:	f8a3 2060 	strh.w	r2, [r3, #96]	@ 0x60
 80089da:	e02d      	b.n	8008a38 <UART_Start_Receive_IT+0xa4>
 80089dc:	68fb      	ldr	r3, [r7, #12]
 80089de:	22ff      	movs	r2, #255	@ 0xff
 80089e0:	f8a3 2060 	strh.w	r2, [r3, #96]	@ 0x60
 80089e4:	e028      	b.n	8008a38 <UART_Start_Receive_IT+0xa4>
 80089e6:	68fb      	ldr	r3, [r7, #12]
 80089e8:	689b      	ldr	r3, [r3, #8]
 80089ea:	2b00      	cmp	r3, #0
 80089ec:	d10d      	bne.n	8008a0a <UART_Start_Receive_IT+0x76>
 80089ee:	68fb      	ldr	r3, [r7, #12]
 80089f0:	691b      	ldr	r3, [r3, #16]
 80089f2:	2b00      	cmp	r3, #0
 80089f4:	d104      	bne.n	8008a00 <UART_Start_Receive_IT+0x6c>
 80089f6:	68fb      	ldr	r3, [r7, #12]
 80089f8:	22ff      	movs	r2, #255	@ 0xff
 80089fa:	f8a3 2060 	strh.w	r2, [r3, #96]	@ 0x60
 80089fe:	e01b      	b.n	8008a38 <UART_Start_Receive_IT+0xa4>
 8008a00:	68fb      	ldr	r3, [r7, #12]
 8008a02:	227f      	movs	r2, #127	@ 0x7f
 8008a04:	f8a3 2060 	strh.w	r2, [r3, #96]	@ 0x60
 8008a08:	e016      	b.n	8008a38 <UART_Start_Receive_IT+0xa4>
 8008a0a:	68fb      	ldr	r3, [r7, #12]
 8008a0c:	689b      	ldr	r3, [r3, #8]
 8008a0e:	f1b3 5f80 	cmp.w	r3, #268435456	@ 0x10000000
 8008a12:	d10d      	bne.n	8008a30 <UART_Start_Receive_IT+0x9c>
 8008a14:	68fb      	ldr	r3, [r7, #12]
 8008a16:	691b      	ldr	r3, [r3, #16]
 8008a18:	2b00      	cmp	r3, #0
 8008a1a:	d104      	bne.n	8008a26 <UART_Start_Receive_IT+0x92>
 8008a1c:	68fb      	ldr	r3, [r7, #12]
 8008a1e:	227f      	movs	r2, #127	@ 0x7f
 8008a20:	f8a3 2060 	strh.w	r2, [r3, #96]	@ 0x60
 8008a24:	e008      	b.n	8008a38 <UART_Start_Receive_IT+0xa4>
 8008a26:	68fb      	ldr	r3, [r7, #12]
 8008a28:	223f      	movs	r2, #63	@ 0x3f
 8008a2a:	f8a3 2060 	strh.w	r2, [r3, #96]	@ 0x60
 8008a2e:	e003      	b.n	8008a38 <UART_Start_Receive_IT+0xa4>
 8008a30:	68fb      	ldr	r3, [r7, #12]
 8008a32:	2200      	movs	r2, #0
 8008a34:	f8a3 2060 	strh.w	r2, [r3, #96]	@ 0x60
 8008a38:	68fb      	ldr	r3, [r7, #12]
 8008a3a:	2200      	movs	r2, #0
 8008a3c:	f8c3 2090 	str.w	r2, [r3, #144]	@ 0x90
 8008a40:	68fb      	ldr	r3, [r7, #12]
 8008a42:	2222      	movs	r2, #34	@ 0x22
 8008a44:	f8c3 208c 	str.w	r2, [r3, #140]	@ 0x8c
 8008a48:	68fb      	ldr	r3, [r7, #12]
 8008a4a:	681b      	ldr	r3, [r3, #0]
 8008a4c:	3308      	adds	r3, #8
 8008a4e:	667b      	str	r3, [r7, #100]	@ 0x64
 8008a50:	6e7b      	ldr	r3, [r7, #100]	@ 0x64
 8008a52:	e853 3f00 	ldrex	r3, [r3]
 8008a56:	663b      	str	r3, [r7, #96]	@ 0x60
 8008a58:	6e3b      	ldr	r3, [r7, #96]	@ 0x60
 8008a5a:	f043 0301 	orr.w	r3, r3, #1
 8008a5e:	f8c7 3084 	str.w	r3, [r7, #132]	@ 0x84
 8008a62:	68fb      	ldr	r3, [r7, #12]
 8008a64:	681b      	ldr	r3, [r3, #0]
 8008a66:	3308      	adds	r3, #8
 8008a68:	f8d7 2084 	ldr.w	r2, [r7, #132]	@ 0x84
 8008a6c:	673a      	str	r2, [r7, #112]	@ 0x70
 8008a6e:	66fb      	str	r3, [r7, #108]	@ 0x6c
 8008a70:	6ef9      	ldr	r1, [r7, #108]	@ 0x6c
 8008a72:	6f3a      	ldr	r2, [r7, #112]	@ 0x70
 8008a74:	e841 2300 	strex	r3, r2, [r1]
 8008a78:	66bb      	str	r3, [r7, #104]	@ 0x68
 8008a7a:	6ebb      	ldr	r3, [r7, #104]	@ 0x68
 8008a7c:	2b00      	cmp	r3, #0
 8008a7e:	d1e3      	bne.n	8008a48 <UART_Start_Receive_IT+0xb4>
 8008a80:	68fb      	ldr	r3, [r7, #12]
 8008a82:	6e5b      	ldr	r3, [r3, #100]	@ 0x64
 8008a84:	f1b3 5f00 	cmp.w	r3, #536870912	@ 0x20000000
 8008a88:	d14f      	bne.n	8008b2a <UART_Start_Receive_IT+0x196>
 8008a8a:	68fb      	ldr	r3, [r7, #12]
 8008a8c:	f8b3 3068 	ldrh.w	r3, [r3, #104]	@ 0x68
 8008a90:	88fa      	ldrh	r2, [r7, #6]
 8008a92:	429a      	cmp	r2, r3
 8008a94:	d349      	bcc.n	8008b2a <UART_Start_Receive_IT+0x196>
 8008a96:	68fb      	ldr	r3, [r7, #12]
 8008a98:	689b      	ldr	r3, [r3, #8]
 8008a9a:	f5b3 5f80 	cmp.w	r3, #4096	@ 0x1000
 8008a9e:	d107      	bne.n	8008ab0 <UART_Start_Receive_IT+0x11c>
 8008aa0:	68fb      	ldr	r3, [r7, #12]
 8008aa2:	691b      	ldr	r3, [r3, #16]
 8008aa4:	2b00      	cmp	r3, #0
 8008aa6:	d103      	bne.n	8008ab0 <UART_Start_Receive_IT+0x11c>
 8008aa8:	68fb      	ldr	r3, [r7, #12]
 8008aaa:	4a47      	ldr	r2, [pc, #284]	@ (8008bc8 <UART_Start_Receive_IT+0x234>)
 8008aac:	675a      	str	r2, [r3, #116]	@ 0x74
 8008aae:	e002      	b.n	8008ab6 <UART_Start_Receive_IT+0x122>
 8008ab0:	68fb      	ldr	r3, [r7, #12]
 8008ab2:	4a46      	ldr	r2, [pc, #280]	@ (8008bcc <UART_Start_Receive_IT+0x238>)
 8008ab4:	675a      	str	r2, [r3, #116]	@ 0x74
 8008ab6:	68fb      	ldr	r3, [r7, #12]
 8008ab8:	691b      	ldr	r3, [r3, #16]
 8008aba:	2b00      	cmp	r3, #0
 8008abc:	d01a      	beq.n	8008af4 <UART_Start_Receive_IT+0x160>
 8008abe:	68fb      	ldr	r3, [r7, #12]
 8008ac0:	681b      	ldr	r3, [r3, #0]
 8008ac2:	653b      	str	r3, [r7, #80]	@ 0x50
 8008ac4:	6d3b      	ldr	r3, [r7, #80]	@ 0x50
 8008ac6:	e853 3f00 	ldrex	r3, [r3]
 8008aca:	64fb      	str	r3, [r7, #76]	@ 0x4c
 8008acc:	6cfb      	ldr	r3, [r7, #76]	@ 0x4c
 8008ace:	f443 7380 	orr.w	r3, r3, #256	@ 0x100
 8008ad2:	f8c7 3080 	str.w	r3, [r7, #128]	@ 0x80
 8008ad6:	68fb      	ldr	r3, [r7, #12]
 8008ad8:	681b      	ldr	r3, [r3, #0]
 8008ada:	461a      	mov	r2, r3
 8008adc:	f8d7 3080 	ldr.w	r3, [r7, #128]	@ 0x80
 8008ae0:	65fb      	str	r3, [r7, #92]	@ 0x5c
 8008ae2:	65ba      	str	r2, [r7, #88]	@ 0x58
 8008ae4:	6db9      	ldr	r1, [r7, #88]	@ 0x58
 8008ae6:	6dfa      	ldr	r2, [r7, #92]	@ 0x5c
 8008ae8:	e841 2300 	strex	r3, r2, [r1]
 8008aec:	657b      	str	r3, [r7, #84]	@ 0x54
 8008aee:	6d7b      	ldr	r3, [r7, #84]	@ 0x54
 8008af0:	2b00      	cmp	r3, #0
 8008af2:	d1e4      	bne.n	8008abe <UART_Start_Receive_IT+0x12a>
 8008af4:	68fb      	ldr	r3, [r7, #12]
 8008af6:	681b      	ldr	r3, [r3, #0]
 8008af8:	3308      	adds	r3, #8
 8008afa:	63fb      	str	r3, [r7, #60]	@ 0x3c
 8008afc:	6bfb      	ldr	r3, [r7, #60]	@ 0x3c
 8008afe:	e853 3f00 	ldrex	r3, [r3]
 8008b02:	63bb      	str	r3, [r7, #56]	@ 0x38
 8008b04:	6bbb      	ldr	r3, [r7, #56]	@ 0x38
 8008b06:	f043 5380 	orr.w	r3, r3, #268435456	@ 0x10000000
 8008b0a:	67fb      	str	r3, [r7, #124]	@ 0x7c
 8008b0c:	68fb      	ldr	r3, [r7, #12]
 8008b0e:	681b      	ldr	r3, [r3, #0]
 8008b10:	3308      	adds	r3, #8
 8008b12:	6ffa      	ldr	r2, [r7, #124]	@ 0x7c
 8008b14:	64ba      	str	r2, [r7, #72]	@ 0x48
 8008b16:	647b      	str	r3, [r7, #68]	@ 0x44
 8008b18:	6c79      	ldr	r1, [r7, #68]	@ 0x44
 8008b1a:	6cba      	ldr	r2, [r7, #72]	@ 0x48
 8008b1c:	e841 2300 	strex	r3, r2, [r1]
 8008b20:	643b      	str	r3, [r7, #64]	@ 0x40
 8008b22:	6c3b      	ldr	r3, [r7, #64]	@ 0x40
 8008b24:	2b00      	cmp	r3, #0
 8008b26:	d1e5      	bne.n	8008af4 <UART_Start_Receive_IT+0x160>
 8008b28:	e046      	b.n	8008bb8 <UART_Start_Receive_IT+0x224>
 8008b2a:	68fb      	ldr	r3, [r7, #12]
 8008b2c:	689b      	ldr	r3, [r3, #8]
 8008b2e:	f5b3 5f80 	cmp.w	r3, #4096	@ 0x1000
 8008b32:	d107      	bne.n	8008b44 <UART_Start_Receive_IT+0x1b0>
 8008b34:	68fb      	ldr	r3, [r7, #12]
 8008b36:	691b      	ldr	r3, [r3, #16]
 8008b38:	2b00      	cmp	r3, #0
 8008b3a:	d103      	bne.n	8008b44 <UART_Start_Receive_IT+0x1b0>
 8008b3c:	68fb      	ldr	r3, [r7, #12]
 8008b3e:	4a24      	ldr	r2, [pc, #144]	@ (8008bd0 <UART_Start_Receive_IT+0x23c>)
 8008b40:	675a      	str	r2, [r3, #116]	@ 0x74
 8008b42:	e002      	b.n	8008b4a <UART_Start_Receive_IT+0x1b6>
 8008b44:	68fb      	ldr	r3, [r7, #12]
 8008b46:	4a23      	ldr	r2, [pc, #140]	@ (8008bd4 <UART_Start_Receive_IT+0x240>)
 8008b48:	675a      	str	r2, [r3, #116]	@ 0x74
 8008b4a:	68fb      	ldr	r3, [r7, #12]
 8008b4c:	691b      	ldr	r3, [r3, #16]
 8008b4e:	2b00      	cmp	r3, #0
 8008b50:	d019      	beq.n	8008b86 <UART_Start_Receive_IT+0x1f2>
 8008b52:	68fb      	ldr	r3, [r7, #12]
 8008b54:	681b      	ldr	r3, [r3, #0]
 8008b56:	62bb      	str	r3, [r7, #40]	@ 0x28
 8008b58:	6abb      	ldr	r3, [r7, #40]	@ 0x28
 8008b5a:	e853 3f00 	ldrex	r3, [r3]
 8008b5e:	627b      	str	r3, [r7, #36]	@ 0x24
 8008b60:	6a7b      	ldr	r3, [r7, #36]	@ 0x24
 8008b62:	f443 7390 	orr.w	r3, r3, #288	@ 0x120
 8008b66:	677b      	str	r3, [r7, #116]	@ 0x74
 8008b68:	68fb      	ldr	r3, [r7, #12]
 8008b6a:	681b      	ldr	r3, [r3, #0]
 8008b6c:	461a      	mov	r2, r3
 8008b6e:	6f7b      	ldr	r3, [r7, #116]	@ 0x74
 8008b70:	637b      	str	r3, [r7, #52]	@ 0x34
 8008b72:	633a      	str	r2, [r7, #48]	@ 0x30
 8008b74:	6b39      	ldr	r1, [r7, #48]	@ 0x30
 8008b76:	6b7a      	ldr	r2, [r7, #52]	@ 0x34
 8008b78:	e841 2300 	strex	r3, r2, [r1]
 8008b7c:	62fb      	str	r3, [r7, #44]	@ 0x2c
 8008b7e:	6afb      	ldr	r3, [r7, #44]	@ 0x2c
 8008b80:	2b00      	cmp	r3, #0
 8008b82:	d1e6      	bne.n	8008b52 <UART_Start_Receive_IT+0x1be>
 8008b84:	e018      	b.n	8008bb8 <UART_Start_Receive_IT+0x224>
 8008b86:	68fb      	ldr	r3, [r7, #12]
 8008b88:	681b      	ldr	r3, [r3, #0]
 8008b8a:	617b      	str	r3, [r7, #20]
 8008b8c:	697b      	ldr	r3, [r7, #20]
 8008b8e:	e853 3f00 	ldrex	r3, [r3]
 8008b92:	613b      	str	r3, [r7, #16]
 8008b94:	693b      	ldr	r3, [r7, #16]
 8008b96:	f043 0320 	orr.w	r3, r3, #32
 8008b9a:	67bb      	str	r3, [r7, #120]	@ 0x78
 8008b9c:	68fb      	ldr	r3, [r7, #12]
 8008b9e:	681b      	ldr	r3, [r3, #0]
 8008ba0:	461a      	mov	r2, r3
 8008ba2:	6fbb      	ldr	r3, [r7, #120]	@ 0x78
 8008ba4:	623b      	str	r3, [r7, #32]
 8008ba6:	61fa      	str	r2, [r7, #28]
 8008ba8:	69f9      	ldr	r1, [r7, #28]
 8008baa:	6a3a      	ldr	r2, [r7, #32]
 8008bac:	e841 2300 	strex	r3, r2, [r1]
 8008bb0:	61bb      	str	r3, [r7, #24]
 8008bb2:	69bb      	ldr	r3, [r7, #24]
 8008bb4:	2b00      	cmp	r3, #0
 8008bb6:	d1e6      	bne.n	8008b86 <UART_Start_Receive_IT+0x1f2>
 8008bb8:	2300      	movs	r3, #0
 8008bba:	4618      	mov	r0, r3
 8008bbc:	378c      	adds	r7, #140	@ 0x8c
 8008bbe:	46bd      	mov	sp, r7
 8008bc0:	f85d 7b04 	ldr.w	r7, [sp], #4
 8008bc4:	4770      	bx	lr
 8008bc6:	bf00      	nop
 8008bc8:	080095dd 	.word	0x080095dd
 8008bcc:	0800926d 	.word	0x0800926d
 8008bd0:	080090ad 	.word	0x080090ad
 8008bd4:	08008eed 	.word	0x08008eed

08008bd8 <UART_EndTxTransfer>:
 8008bd8:	b480      	push	{r7}
 8008bda:	b08f      	sub	sp, #60	@ 0x3c
 8008bdc:	af00      	add	r7, sp, #0
 8008bde:	6078      	str	r0, [r7, #4]
 8008be0:	687b      	ldr	r3, [r7, #4]
 8008be2:	681b      	ldr	r3, [r3, #0]
 8008be4:	623b      	str	r3, [r7, #32]
 8008be6:	6a3b      	ldr	r3, [r7, #32]
 8008be8:	e853 3f00 	ldrex	r3, [r3]
 8008bec:	61fb      	str	r3, [r7, #28]
 8008bee:	69fb      	ldr	r3, [r7, #28]
 8008bf0:	f023 03c0 	bic.w	r3, r3, #192	@ 0xc0
 8008bf4:	637b      	str	r3, [r7, #52]	@ 0x34
 8008bf6:	687b      	ldr	r3, [r7, #4]
 8008bf8:	681b      	ldr	r3, [r3, #0]
 8008bfa:	461a      	mov	r2, r3
 8008bfc:	6b7b      	ldr	r3, [r7, #52]	@ 0x34
 8008bfe:	62fb      	str	r3, [r7, #44]	@ 0x2c
 8008c00:	62ba      	str	r2, [r7, #40]	@ 0x28
 8008c02:	6ab9      	ldr	r1, [r7, #40]	@ 0x28
 8008c04:	6afa      	ldr	r2, [r7, #44]	@ 0x2c
 8008c06:	e841 2300 	strex	r3, r2, [r1]
 8008c0a:	627b      	str	r3, [r7, #36]	@ 0x24
 8008c0c:	6a7b      	ldr	r3, [r7, #36]	@ 0x24
 8008c0e:	2b00      	cmp	r3, #0
 8008c10:	d1e6      	bne.n	8008be0 <UART_EndTxTransfer+0x8>
 8008c12:	687b      	ldr	r3, [r7, #4]
 8008c14:	681b      	ldr	r3, [r3, #0]
 8008c16:	3308      	adds	r3, #8
 8008c18:	60fb      	str	r3, [r7, #12]
 8008c1a:	68fb      	ldr	r3, [r7, #12]
 8008c1c:	e853 3f00 	ldrex	r3, [r3]
 8008c20:	60bb      	str	r3, [r7, #8]
 8008c22:	68bb      	ldr	r3, [r7, #8]
 8008c24:	f423 0300 	bic.w	r3, r3, #8388608	@ 0x800000
 8008c28:	633b      	str	r3, [r7, #48]	@ 0x30
 8008c2a:	687b      	ldr	r3, [r7, #4]
 8008c2c:	681b      	ldr	r3, [r3, #0]
 8008c2e:	3308      	adds	r3, #8
 8008c30:	6b3a      	ldr	r2, [r7, #48]	@ 0x30
 8008c32:	61ba      	str	r2, [r7, #24]
 8008c34:	617b      	str	r3, [r7, #20]
 8008c36:	6979      	ldr	r1, [r7, #20]
 8008c38:	69ba      	ldr	r2, [r7, #24]
 8008c3a:	e841 2300 	strex	r3, r2, [r1]
 8008c3e:	613b      	str	r3, [r7, #16]
 8008c40:	693b      	ldr	r3, [r7, #16]
 8008c42:	2b00      	cmp	r3, #0
 8008c44:	d1e5      	bne.n	8008c12 <UART_EndTxTransfer+0x3a>
 8008c46:	687b      	ldr	r3, [r7, #4]
 8008c48:	2220      	movs	r2, #32
 8008c4a:	f8c3 2088 	str.w	r2, [r3, #136]	@ 0x88
 8008c4e:	bf00      	nop
 8008c50:	373c      	adds	r7, #60	@ 0x3c
 8008c52:	46bd      	mov	sp, r7
 8008c54:	f85d 7b04 	ldr.w	r7, [sp], #4
 8008c58:	4770      	bx	lr

08008c5a <UART_EndRxTransfer>:
 8008c5a:	b480      	push	{r7}
 8008c5c:	b095      	sub	sp, #84	@ 0x54
 8008c5e:	af00      	add	r7, sp, #0
 8008c60:	6078      	str	r0, [r7, #4]
 8008c62:	687b      	ldr	r3, [r7, #4]
 8008c64:	681b      	ldr	r3, [r3, #0]
 8008c66:	637b      	str	r3, [r7, #52]	@ 0x34
 8008c68:	6b7b      	ldr	r3, [r7, #52]	@ 0x34
 8008c6a:	e853 3f00 	ldrex	r3, [r3]
 8008c6e:	633b      	str	r3, [r7, #48]	@ 0x30
 8008c70:	6b3b      	ldr	r3, [r7, #48]	@ 0x30
 8008c72:	f423 7390 	bic.w	r3, r3, #288	@ 0x120
 8008c76:	64fb      	str	r3, [r7, #76]	@ 0x4c
 8008c78:	687b      	ldr	r3, [r7, #4]
 8008c7a:	681b      	ldr	r3, [r3, #0]
 8008c7c:	461a      	mov	r2, r3
 8008c7e:	6cfb      	ldr	r3, [r7, #76]	@ 0x4c
 8008c80:	643b      	str	r3, [r7, #64]	@ 0x40
 8008c82:	63fa      	str	r2, [r7, #60]	@ 0x3c
 8008c84:	6bf9      	ldr	r1, [r7, #60]	@ 0x3c
 8008c86:	6c3a      	ldr	r2, [r7, #64]	@ 0x40
 8008c88:	e841 2300 	strex	r3, r2, [r1]
 8008c8c:	63bb      	str	r3, [r7, #56]	@ 0x38
 8008c8e:	6bbb      	ldr	r3, [r7, #56]	@ 0x38
 8008c90:	2b00      	cmp	r3, #0
 8008c92:	d1e6      	bne.n	8008c62 <UART_EndRxTransfer+0x8>
 8008c94:	687b      	ldr	r3, [r7, #4]
 8008c96:	681b      	ldr	r3, [r3, #0]
 8008c98:	3308      	adds	r3, #8
 8008c9a:	623b      	str	r3, [r7, #32]
 8008c9c:	6a3b      	ldr	r3, [r7, #32]
 8008c9e:	e853 3f00 	ldrex	r3, [r3]
 8008ca2:	61fb      	str	r3, [r7, #28]
 8008ca4:	69fb      	ldr	r3, [r7, #28]
 8008ca6:	f023 5380 	bic.w	r3, r3, #268435456	@ 0x10000000
 8008caa:	f023 0301 	bic.w	r3, r3, #1
 8008cae:	64bb      	str	r3, [r7, #72]	@ 0x48
 8008cb0:	687b      	ldr	r3, [r7, #4]
 8008cb2:	681b      	ldr	r3, [r3, #0]
 8008cb4:	3308      	adds	r3, #8
 8008cb6:	6cba      	ldr	r2, [r7, #72]	@ 0x48
 8008cb8:	62fa      	str	r2, [r7, #44]	@ 0x2c
 8008cba:	62bb      	str	r3, [r7, #40]	@ 0x28
 8008cbc:	6ab9      	ldr	r1, [r7, #40]	@ 0x28
 8008cbe:	6afa      	ldr	r2, [r7, #44]	@ 0x2c
 8008cc0:	e841 2300 	strex	r3, r2, [r1]
 8008cc4:	627b      	str	r3, [r7, #36]	@ 0x24
 8008cc6:	6a7b      	ldr	r3, [r7, #36]	@ 0x24
 8008cc8:	2b00      	cmp	r3, #0
 8008cca:	d1e3      	bne.n	8008c94 <UART_EndRxTransfer+0x3a>
 8008ccc:	687b      	ldr	r3, [r7, #4]
 8008cce:	6edb      	ldr	r3, [r3, #108]	@ 0x6c
 8008cd0:	2b01      	cmp	r3, #1
 8008cd2:	d118      	bne.n	8008d06 <UART_EndRxTransfer+0xac>
 8008cd4:	687b      	ldr	r3, [r7, #4]
 8008cd6:	681b      	ldr	r3, [r3, #0]
 8008cd8:	60fb      	str	r3, [r7, #12]
 8008cda:	68fb      	ldr	r3, [r7, #12]
 8008cdc:	e853 3f00 	ldrex	r3, [r3]
 8008ce0:	60bb      	str	r3, [r7, #8]
 8008ce2:	68bb      	ldr	r3, [r7, #8]
 8008ce4:	f023 0310 	bic.w	r3, r3, #16
 8008ce8:	647b      	str	r3, [r7, #68]	@ 0x44
 8008cea:	687b      	ldr	r3, [r7, #4]
 8008cec:	681b      	ldr	r3, [r3, #0]
 8008cee:	461a      	mov	r2, r3
 8008cf0:	6c7b      	ldr	r3, [r7, #68]	@ 0x44
 8008cf2:	61bb      	str	r3, [r7, #24]
 8008cf4:	617a      	str	r2, [r7, #20]
 8008cf6:	6979      	ldr	r1, [r7, #20]
 8008cf8:	69ba      	ldr	r2, [r7, #24]
 8008cfa:	e841 2300 	strex	r3, r2, [r1]
 8008cfe:	613b      	str	r3, [r7, #16]
 8008d00:	693b      	ldr	r3, [r7, #16]
 8008d02:	2b00      	cmp	r3, #0
 8008d04:	d1e6      	bne.n	8008cd4 <UART_EndRxTransfer+0x7a>
 8008d06:	687b      	ldr	r3, [r7, #4]
 8008d08:	2220      	movs	r2, #32
 8008d0a:	f8c3 208c 	str.w	r2, [r3, #140]	@ 0x8c
 8008d0e:	687b      	ldr	r3, [r7, #4]
 8008d10:	2200      	movs	r2, #0
 8008d12:	66da      	str	r2, [r3, #108]	@ 0x6c
 8008d14:	687b      	ldr	r3, [r7, #4]
 8008d16:	2200      	movs	r2, #0
 8008d18:	675a      	str	r2, [r3, #116]	@ 0x74
 8008d1a:	bf00      	nop
 8008d1c:	3754      	adds	r7, #84	@ 0x54
 8008d1e:	46bd      	mov	sp, r7
 8008d20:	f85d 7b04 	ldr.w	r7, [sp], #4
 8008d24:	4770      	bx	lr

08008d26 <UART_DMATransmitCplt>:
 8008d26:	b580      	push	{r7, lr}
 8008d28:	b090      	sub	sp, #64	@ 0x40
 8008d2a:	af00      	add	r7, sp, #0
 8008d2c:	6078      	str	r0, [r7, #4]
 8008d2e:	687b      	ldr	r3, [r7, #4]
 8008d30:	6a9b      	ldr	r3, [r3, #40]	@ 0x28
 8008d32:	63fb      	str	r3, [r7, #60]	@ 0x3c
 8008d34:	687b      	ldr	r3, [r7, #4]
 8008d36:	681b      	ldr	r3, [r3, #0]
 8008d38:	681b      	ldr	r3, [r3, #0]
 8008d3a:	f003 0320 	and.w	r3, r3, #32
 8008d3e:	2b00      	cmp	r3, #0
 8008d40:	d137      	bne.n	8008db2 <UART_DMATransmitCplt+0x8c>
 8008d42:	6bfb      	ldr	r3, [r7, #60]	@ 0x3c
 8008d44:	2200      	movs	r2, #0
 8008d46:	f8a3 2056 	strh.w	r2, [r3, #86]	@ 0x56
 8008d4a:	6bfb      	ldr	r3, [r7, #60]	@ 0x3c
 8008d4c:	681b      	ldr	r3, [r3, #0]
 8008d4e:	3308      	adds	r3, #8
 8008d50:	627b      	str	r3, [r7, #36]	@ 0x24
 8008d52:	6a7b      	ldr	r3, [r7, #36]	@ 0x24
 8008d54:	e853 3f00 	ldrex	r3, [r3]
 8008d58:	623b      	str	r3, [r7, #32]
 8008d5a:	6a3b      	ldr	r3, [r7, #32]
 8008d5c:	f023 0380 	bic.w	r3, r3, #128	@ 0x80
 8008d60:	63bb      	str	r3, [r7, #56]	@ 0x38
 8008d62:	6bfb      	ldr	r3, [r7, #60]	@ 0x3c
 8008d64:	681b      	ldr	r3, [r3, #0]
 8008d66:	3308      	adds	r3, #8
 8008d68:	6bba      	ldr	r2, [r7, #56]	@ 0x38
 8008d6a:	633a      	str	r2, [r7, #48]	@ 0x30
 8008d6c:	62fb      	str	r3, [r7, #44]	@ 0x2c
 8008d6e:	6af9      	ldr	r1, [r7, #44]	@ 0x2c
 8008d70:	6b3a      	ldr	r2, [r7, #48]	@ 0x30
 8008d72:	e841 2300 	strex	r3, r2, [r1]
 8008d76:	62bb      	str	r3, [r7, #40]	@ 0x28
 8008d78:	6abb      	ldr	r3, [r7, #40]	@ 0x28
 8008d7a:	2b00      	cmp	r3, #0
 8008d7c:	d1e5      	bne.n	8008d4a <UART_DMATransmitCplt+0x24>
 8008d7e:	6bfb      	ldr	r3, [r7, #60]	@ 0x3c
 8008d80:	681b      	ldr	r3, [r3, #0]
 8008d82:	613b      	str	r3, [r7, #16]
 8008d84:	693b      	ldr	r3, [r7, #16]
 8008d86:	e853 3f00 	ldrex	r3, [r3]
 8008d8a:	60fb      	str	r3, [r7, #12]
 8008d8c:	68fb      	ldr	r3, [r7, #12]
 8008d8e:	f043 0340 	orr.w	r3, r3, #64	@ 0x40
 8008d92:	637b      	str	r3, [r7, #52]	@ 0x34
 8008d94:	6bfb      	ldr	r3, [r7, #60]	@ 0x3c
 8008d96:	681b      	ldr	r3, [r3, #0]
 8008d98:	461a      	mov	r2, r3
 8008d9a:	6b7b      	ldr	r3, [r7, #52]	@ 0x34
 8008d9c:	61fb      	str	r3, [r7, #28]
 8008d9e:	61ba      	str	r2, [r7, #24]
 8008da0:	69b9      	ldr	r1, [r7, #24]
 8008da2:	69fa      	ldr	r2, [r7, #28]
 8008da4:	e841 2300 	strex	r3, r2, [r1]
 8008da8:	617b      	str	r3, [r7, #20]
 8008daa:	697b      	ldr	r3, [r7, #20]
 8008dac:	2b00      	cmp	r3, #0
 8008dae:	d1e6      	bne.n	8008d7e <UART_DMATransmitCplt+0x58>
 8008db0:	e004      	b.n	8008dbc <UART_DMATransmitCplt+0x96>
 8008db2:	6bfb      	ldr	r3, [r7, #60]	@ 0x3c
 8008db4:	f8d3 3098 	ldr.w	r3, [r3, #152]	@ 0x98
 8008db8:	6bf8      	ldr	r0, [r7, #60]	@ 0x3c
 8008dba:	4798      	blx	r3
 8008dbc:	bf00      	nop
 8008dbe:	3740      	adds	r7, #64	@ 0x40
 8008dc0:	46bd      	mov	sp, r7
 8008dc2:	bd80      	pop	{r7, pc}

08008dc4 <UART_DMATxHalfCplt>:
 8008dc4:	b580      	push	{r7, lr}
 8008dc6:	b084      	sub	sp, #16
 8008dc8:	af00      	add	r7, sp, #0
 8008dca:	6078      	str	r0, [r7, #4]
 8008dcc:	687b      	ldr	r3, [r7, #4]
 8008dce:	6a9b      	ldr	r3, [r3, #40]	@ 0x28
 8008dd0:	60fb      	str	r3, [r7, #12]
 8008dd2:	68fb      	ldr	r3, [r7, #12]
 8008dd4:	f8d3 3094 	ldr.w	r3, [r3, #148]	@ 0x94
 8008dd8:	68f8      	ldr	r0, [r7, #12]
 8008dda:	4798      	blx	r3
 8008ddc:	bf00      	nop
 8008dde:	3710      	adds	r7, #16
 8008de0:	46bd      	mov	sp, r7
 8008de2:	bd80      	pop	{r7, pc}

08008de4 <UART_DMAError>:
 8008de4:	b580      	push	{r7, lr}
 8008de6:	b086      	sub	sp, #24
 8008de8:	af00      	add	r7, sp, #0
 8008dea:	6078      	str	r0, [r7, #4]
 8008dec:	687b      	ldr	r3, [r7, #4]
 8008dee:	6a9b      	ldr	r3, [r3, #40]	@ 0x28
 8008df0:	617b      	str	r3, [r7, #20]
 8008df2:	697b      	ldr	r3, [r7, #20]
 8008df4:	f8d3 3088 	ldr.w	r3, [r3, #136]	@ 0x88
 8008df8:	613b      	str	r3, [r7, #16]
 8008dfa:	697b      	ldr	r3, [r7, #20]
 8008dfc:	f8d3 308c 	ldr.w	r3, [r3, #140]	@ 0x8c
 8008e00:	60fb      	str	r3, [r7, #12]
 8008e02:	697b      	ldr	r3, [r7, #20]
 8008e04:	681b      	ldr	r3, [r3, #0]
 8008e06:	689b      	ldr	r3, [r3, #8]
 8008e08:	f003 0380 	and.w	r3, r3, #128	@ 0x80
 8008e0c:	2b80      	cmp	r3, #128	@ 0x80
 8008e0e:	d109      	bne.n	8008e24 <UART_DMAError+0x40>
 8008e10:	693b      	ldr	r3, [r7, #16]
 8008e12:	2b21      	cmp	r3, #33	@ 0x21
 8008e14:	d106      	bne.n	8008e24 <UART_DMAError+0x40>
 8008e16:	697b      	ldr	r3, [r7, #20]
 8008e18:	2200      	movs	r2, #0
 8008e1a:	f8a3 2056 	strh.w	r2, [r3, #86]	@ 0x56
 8008e1e:	6978      	ldr	r0, [r7, #20]
 8008e20:	f7ff feda 	bl	8008bd8 <UART_EndTxTransfer>
 8008e24:	697b      	ldr	r3, [r7, #20]
 8008e26:	681b      	ldr	r3, [r3, #0]
 8008e28:	689b      	ldr	r3, [r3, #8]
 8008e2a:	f003 0340 	and.w	r3, r3, #64	@ 0x40
 8008e2e:	2b40      	cmp	r3, #64	@ 0x40
 8008e30:	d109      	bne.n	8008e46 <UART_DMAError+0x62>
 8008e32:	68fb      	ldr	r3, [r7, #12]
 8008e34:	2b22      	cmp	r3, #34	@ 0x22
 8008e36:	d106      	bne.n	8008e46 <UART_DMAError+0x62>
 8008e38:	697b      	ldr	r3, [r7, #20]
 8008e3a:	2200      	movs	r2, #0
 8008e3c:	f8a3 205e 	strh.w	r2, [r3, #94]	@ 0x5e
 8008e40:	6978      	ldr	r0, [r7, #20]
 8008e42:	f7ff ff0a 	bl	8008c5a <UART_EndRxTransfer>
 8008e46:	697b      	ldr	r3, [r7, #20]
 8008e48:	f8d3 3090 	ldr.w	r3, [r3, #144]	@ 0x90
 8008e4c:	f043 0210 	orr.w	r2, r3, #16
 8008e50:	697b      	ldr	r3, [r7, #20]
 8008e52:	f8c3 2090 	str.w	r2, [r3, #144]	@ 0x90
 8008e56:	697b      	ldr	r3, [r7, #20]
 8008e58:	f8d3 30a4 	ldr.w	r3, [r3, #164]	@ 0xa4
 8008e5c:	6978      	ldr	r0, [r7, #20]
 8008e5e:	4798      	blx	r3
 8008e60:	bf00      	nop
 8008e62:	3718      	adds	r7, #24
 8008e64:	46bd      	mov	sp, r7
 8008e66:	bd80      	pop	{r7, pc}

08008e68 <UART_DMAAbortOnError>:
 8008e68:	b580      	push	{r7, lr}
 8008e6a:	b084      	sub	sp, #16
 8008e6c:	af00      	add	r7, sp, #0
 8008e6e:	6078      	str	r0, [r7, #4]
 8008e70:	687b      	ldr	r3, [r7, #4]
 8008e72:	6a9b      	ldr	r3, [r3, #40]	@ 0x28
 8008e74:	60fb      	str	r3, [r7, #12]
 8008e76:	68fb      	ldr	r3, [r7, #12]
 8008e78:	2200      	movs	r2, #0
 8008e7a:	f8a3 205e 	strh.w	r2, [r3, #94]	@ 0x5e
 8008e7e:	68fb      	ldr	r3, [r7, #12]
 8008e80:	f8d3 30a4 	ldr.w	r3, [r3, #164]	@ 0xa4
 8008e84:	68f8      	ldr	r0, [r7, #12]
 8008e86:	4798      	blx	r3
 8008e88:	bf00      	nop
 8008e8a:	3710      	adds	r7, #16
 8008e8c:	46bd      	mov	sp, r7
 8008e8e:	bd80      	pop	{r7, pc}

08008e90 <UART_EndTransmit_IT>:
 8008e90:	b580      	push	{r7, lr}
 8008e92:	b088      	sub	sp, #32
 8008e94:	af00      	add	r7, sp, #0
 8008e96:	6078      	str	r0, [r7, #4]
 8008e98:	687b      	ldr	r3, [r7, #4]
 8008e9a:	681b      	ldr	r3, [r3, #0]
 8008e9c:	60fb      	str	r3, [r7, #12]
 8008e9e:	68fb      	ldr	r3, [r7, #12]
 8008ea0:	e853 3f00 	ldrex	r3, [r3]
 8008ea4:	60bb      	str	r3, [r7, #8]
 8008ea6:	68bb      	ldr	r3, [r7, #8]
 8008ea8:	f023 0340 	bic.w	r3, r3, #64	@ 0x40
 8008eac:	61fb      	str	r3, [r7, #28]
 8008eae:	687b      	ldr	r3, [r7, #4]
 8008eb0:	681b      	ldr	r3, [r3, #0]
 8008eb2:	461a      	mov	r2, r3
 8008eb4:	69fb      	ldr	r3, [r7, #28]
 8008eb6:	61bb      	str	r3, [r7, #24]
 8008eb8:	617a      	str	r2, [r7, #20]
 8008eba:	6979      	ldr	r1, [r7, #20]
 8008ebc:	69ba      	ldr	r2, [r7, #24]
 8008ebe:	e841 2300 	strex	r3, r2, [r1]
 8008ec2:	613b      	str	r3, [r7, #16]
 8008ec4:	693b      	ldr	r3, [r7, #16]
 8008ec6:	2b00      	cmp	r3, #0
 8008ec8:	d1e6      	bne.n	8008e98 <UART_EndTransmit_IT+0x8>
 8008eca:	687b      	ldr	r3, [r7, #4]
 8008ecc:	2220      	movs	r2, #32
 8008ece:	f8c3 2088 	str.w	r2, [r3, #136]	@ 0x88
 8008ed2:	687b      	ldr	r3, [r7, #4]
 8008ed4:	2200      	movs	r2, #0
 8008ed6:	679a      	str	r2, [r3, #120]	@ 0x78
 8008ed8:	687b      	ldr	r3, [r7, #4]
 8008eda:	f8d3 3098 	ldr.w	r3, [r3, #152]	@ 0x98
 8008ede:	6878      	ldr	r0, [r7, #4]
 8008ee0:	4798      	blx	r3
 8008ee2:	bf00      	nop
 8008ee4:	3720      	adds	r7, #32
 8008ee6:	46bd      	mov	sp, r7
 8008ee8:	bd80      	pop	{r7, pc}
	...

08008eec <UART_RxISR_8BIT>:
 8008eec:	b580      	push	{r7, lr}
 8008eee:	b09c      	sub	sp, #112	@ 0x70
 8008ef0:	af00      	add	r7, sp, #0
 8008ef2:	6078      	str	r0, [r7, #4]
 8008ef4:	687b      	ldr	r3, [r7, #4]
 8008ef6:	f8b3 3060 	ldrh.w	r3, [r3, #96]	@ 0x60
 8008efa:	f8a7 306e 	strh.w	r3, [r7, #110]	@ 0x6e
 8008efe:	687b      	ldr	r3, [r7, #4]
 8008f00:	f8d3 308c 	ldr.w	r3, [r3, #140]	@ 0x8c
 8008f04:	2b22      	cmp	r3, #34	@ 0x22
 8008f06:	f040 80c2 	bne.w	800908e <UART_RxISR_8BIT+0x1a2>
 8008f0a:	687b      	ldr	r3, [r7, #4]
 8008f0c:	681b      	ldr	r3, [r3, #0]
 8008f0e:	6a5b      	ldr	r3, [r3, #36]	@ 0x24
 8008f10:	f8a7 306c 	strh.w	r3, [r7, #108]	@ 0x6c
 8008f14:	f8b7 306c 	ldrh.w	r3, [r7, #108]	@ 0x6c
 8008f18:	b2d9      	uxtb	r1, r3
 8008f1a:	f8b7 306e 	ldrh.w	r3, [r7, #110]	@ 0x6e
 8008f1e:	b2da      	uxtb	r2, r3
 8008f20:	687b      	ldr	r3, [r7, #4]
 8008f22:	6d9b      	ldr	r3, [r3, #88]	@ 0x58
 8008f24:	400a      	ands	r2, r1
 8008f26:	b2d2      	uxtb	r2, r2
 8008f28:	701a      	strb	r2, [r3, #0]
 8008f2a:	687b      	ldr	r3, [r7, #4]
 8008f2c:	6d9b      	ldr	r3, [r3, #88]	@ 0x58
 8008f2e:	1c5a      	adds	r2, r3, #1
 8008f30:	687b      	ldr	r3, [r7, #4]
 8008f32:	659a      	str	r2, [r3, #88]	@ 0x58
 8008f34:	687b      	ldr	r3, [r7, #4]
 8008f36:	f8b3 305e 	ldrh.w	r3, [r3, #94]	@ 0x5e
 8008f3a:	b29b      	uxth	r3, r3
 8008f3c:	3b01      	subs	r3, #1
 8008f3e:	b29a      	uxth	r2, r3
 8008f40:	687b      	ldr	r3, [r7, #4]
 8008f42:	f8a3 205e 	strh.w	r2, [r3, #94]	@ 0x5e
 8008f46:	687b      	ldr	r3, [r7, #4]
 8008f48:	f8b3 305e 	ldrh.w	r3, [r3, #94]	@ 0x5e
 8008f4c:	b29b      	uxth	r3, r3
 8008f4e:	2b00      	cmp	r3, #0
 8008f50:	f040 80a5 	bne.w	800909e <UART_RxISR_8BIT+0x1b2>
 8008f54:	687b      	ldr	r3, [r7, #4]
 8008f56:	681b      	ldr	r3, [r3, #0]
 8008f58:	64fb      	str	r3, [r7, #76]	@ 0x4c
 8008f5a:	6cfb      	ldr	r3, [r7, #76]	@ 0x4c
 8008f5c:	e853 3f00 	ldrex	r3, [r3]
 8008f60:	64bb      	str	r3, [r7, #72]	@ 0x48
 8008f62:	6cbb      	ldr	r3, [r7, #72]	@ 0x48
 8008f64:	f423 7390 	bic.w	r3, r3, #288	@ 0x120
 8008f68:	66bb      	str	r3, [r7, #104]	@ 0x68
 8008f6a:	687b      	ldr	r3, [r7, #4]
 8008f6c:	681b      	ldr	r3, [r3, #0]
 8008f6e:	461a      	mov	r2, r3
 8008f70:	6ebb      	ldr	r3, [r7, #104]	@ 0x68
 8008f72:	65bb      	str	r3, [r7, #88]	@ 0x58
 8008f74:	657a      	str	r2, [r7, #84]	@ 0x54
 8008f76:	6d79      	ldr	r1, [r7, #84]	@ 0x54
 8008f78:	6dba      	ldr	r2, [r7, #88]	@ 0x58
 8008f7a:	e841 2300 	strex	r3, r2, [r1]
 8008f7e:	653b      	str	r3, [r7, #80]	@ 0x50
 8008f80:	6d3b      	ldr	r3, [r7, #80]	@ 0x50
 8008f82:	2b00      	cmp	r3, #0
 8008f84:	d1e6      	bne.n	8008f54 <UART_RxISR_8BIT+0x68>
 8008f86:	687b      	ldr	r3, [r7, #4]
 8008f88:	681b      	ldr	r3, [r3, #0]
 8008f8a:	3308      	adds	r3, #8
 8008f8c:	63bb      	str	r3, [r7, #56]	@ 0x38
 8008f8e:	6bbb      	ldr	r3, [r7, #56]	@ 0x38
 8008f90:	e853 3f00 	ldrex	r3, [r3]
 8008f94:	637b      	str	r3, [r7, #52]	@ 0x34
 8008f96:	6b7b      	ldr	r3, [r7, #52]	@ 0x34
 8008f98:	f023 0301 	bic.w	r3, r3, #1
 8008f9c:	667b      	str	r3, [r7, #100]	@ 0x64
 8008f9e:	687b      	ldr	r3, [r7, #4]
 8008fa0:	681b      	ldr	r3, [r3, #0]
 8008fa2:	3308      	adds	r3, #8
 8008fa4:	6e7a      	ldr	r2, [r7, #100]	@ 0x64
 8008fa6:	647a      	str	r2, [r7, #68]	@ 0x44
 8008fa8:	643b      	str	r3, [r7, #64]	@ 0x40
 8008faa:	6c39      	ldr	r1, [r7, #64]	@ 0x40
 8008fac:	6c7a      	ldr	r2, [r7, #68]	@ 0x44
 8008fae:	e841 2300 	strex	r3, r2, [r1]
 8008fb2:	63fb      	str	r3, [r7, #60]	@ 0x3c
 8008fb4:	6bfb      	ldr	r3, [r7, #60]	@ 0x3c
 8008fb6:	2b00      	cmp	r3, #0
 8008fb8:	d1e5      	bne.n	8008f86 <UART_RxISR_8BIT+0x9a>
 8008fba:	687b      	ldr	r3, [r7, #4]
 8008fbc:	2220      	movs	r2, #32
 8008fbe:	f8c3 208c 	str.w	r2, [r3, #140]	@ 0x8c
 8008fc2:	687b      	ldr	r3, [r7, #4]
 8008fc4:	2200      	movs	r2, #0
 8008fc6:	675a      	str	r2, [r3, #116]	@ 0x74
 8008fc8:	687b      	ldr	r3, [r7, #4]
 8008fca:	2200      	movs	r2, #0
 8008fcc:	671a      	str	r2, [r3, #112]	@ 0x70
 8008fce:	687b      	ldr	r3, [r7, #4]
 8008fd0:	681b      	ldr	r3, [r3, #0]
 8008fd2:	4a35      	ldr	r2, [pc, #212]	@ (80090a8 <UART_RxISR_8BIT+0x1bc>)
 8008fd4:	4293      	cmp	r3, r2
 8008fd6:	d01f      	beq.n	8009018 <UART_RxISR_8BIT+0x12c>
 8008fd8:	687b      	ldr	r3, [r7, #4]
 8008fda:	681b      	ldr	r3, [r3, #0]
 8008fdc:	685b      	ldr	r3, [r3, #4]
 8008fde:	f403 0300 	and.w	r3, r3, #8388608	@ 0x800000
 8008fe2:	2b00      	cmp	r3, #0
 8008fe4:	d018      	beq.n	8009018 <UART_RxISR_8BIT+0x12c>
 8008fe6:	687b      	ldr	r3, [r7, #4]
 8008fe8:	681b      	ldr	r3, [r3, #0]
 8008fea:	627b      	str	r3, [r7, #36]	@ 0x24
 8008fec:	6a7b      	ldr	r3, [r7, #36]	@ 0x24
 8008fee:	e853 3f00 	ldrex	r3, [r3]
 8008ff2:	623b      	str	r3, [r7, #32]
 8008ff4:	6a3b      	ldr	r3, [r7, #32]
 8008ff6:	f023 6380 	bic.w	r3, r3, #67108864	@ 0x4000000
 8008ffa:	663b      	str	r3, [r7, #96]	@ 0x60
 8008ffc:	687b      	ldr	r3, [r7, #4]
 8008ffe:	681b      	ldr	r3, [r3, #0]
 8009000:	461a      	mov	r2, r3
 8009002:	6e3b      	ldr	r3, [r7, #96]	@ 0x60
 8009004:	633b      	str	r3, [r7, #48]	@ 0x30
 8009006:	62fa      	str	r2, [r7, #44]	@ 0x2c
 8009008:	6af9      	ldr	r1, [r7, #44]	@ 0x2c
 800900a:	6b3a      	ldr	r2, [r7, #48]	@ 0x30
 800900c:	e841 2300 	strex	r3, r2, [r1]
 8009010:	62bb      	str	r3, [r7, #40]	@ 0x28
 8009012:	6abb      	ldr	r3, [r7, #40]	@ 0x28
 8009014:	2b00      	cmp	r3, #0
 8009016:	d1e6      	bne.n	8008fe6 <UART_RxISR_8BIT+0xfa>
 8009018:	687b      	ldr	r3, [r7, #4]
 800901a:	6edb      	ldr	r3, [r3, #108]	@ 0x6c
 800901c:	2b01      	cmp	r3, #1
 800901e:	d130      	bne.n	8009082 <UART_RxISR_8BIT+0x196>
 8009020:	687b      	ldr	r3, [r7, #4]
 8009022:	2200      	movs	r2, #0
 8009024:	66da      	str	r2, [r3, #108]	@ 0x6c
 8009026:	687b      	ldr	r3, [r7, #4]
 8009028:	681b      	ldr	r3, [r3, #0]
 800902a:	613b      	str	r3, [r7, #16]
 800902c:	693b      	ldr	r3, [r7, #16]
 800902e:	e853 3f00 	ldrex	r3, [r3]
 8009032:	60fb      	str	r3, [r7, #12]
 8009034:	68fb      	ldr	r3, [r7, #12]
 8009036:	f023 0310 	bic.w	r3, r3, #16
 800903a:	65fb      	str	r3, [r7, #92]	@ 0x5c
 800903c:	687b      	ldr	r3, [r7, #4]
 800903e:	681b      	ldr	r3, [r3, #0]
 8009040:	461a      	mov	r2, r3
 8009042:	6dfb      	ldr	r3, [r7, #92]	@ 0x5c
 8009044:	61fb      	str	r3, [r7, #28]
 8009046:	61ba      	str	r2, [r7, #24]
 8009048:	69b9      	ldr	r1, [r7, #24]
 800904a:	69fa      	ldr	r2, [r7, #28]
 800904c:	e841 2300 	strex	r3, r2, [r1]
 8009050:	617b      	str	r3, [r7, #20]
 8009052:	697b      	ldr	r3, [r7, #20]
 8009054:	2b00      	cmp	r3, #0
 8009056:	d1e6      	bne.n	8009026 <UART_RxISR_8BIT+0x13a>
 8009058:	687b      	ldr	r3, [r7, #4]
 800905a:	681b      	ldr	r3, [r3, #0]
 800905c:	69db      	ldr	r3, [r3, #28]
 800905e:	f003 0310 	and.w	r3, r3, #16
 8009062:	2b10      	cmp	r3, #16
 8009064:	d103      	bne.n	800906e <UART_RxISR_8BIT+0x182>
 8009066:	687b      	ldr	r3, [r7, #4]
 8009068:	681b      	ldr	r3, [r3, #0]
 800906a:	2210      	movs	r2, #16
 800906c:	621a      	str	r2, [r3, #32]
 800906e:	687b      	ldr	r3, [r7, #4]
 8009070:	f8d3 30c0 	ldr.w	r3, [r3, #192]	@ 0xc0
 8009074:	687a      	ldr	r2, [r7, #4]
 8009076:	f8b2 205c 	ldrh.w	r2, [r2, #92]	@ 0x5c
 800907a:	4611      	mov	r1, r2
 800907c:	6878      	ldr	r0, [r7, #4]
 800907e:	4798      	blx	r3
 8009080:	e00d      	b.n	800909e <UART_RxISR_8BIT+0x1b2>
 8009082:	687b      	ldr	r3, [r7, #4]
 8009084:	f8d3 30a0 	ldr.w	r3, [r3, #160]	@ 0xa0
 8009088:	6878      	ldr	r0, [r7, #4]
 800908a:	4798      	blx	r3
 800908c:	e007      	b.n	800909e <UART_RxISR_8BIT+0x1b2>
 800908e:	687b      	ldr	r3, [r7, #4]
 8009090:	681b      	ldr	r3, [r3, #0]
 8009092:	699a      	ldr	r2, [r3, #24]
 8009094:	687b      	ldr	r3, [r7, #4]
 8009096:	681b      	ldr	r3, [r3, #0]
 8009098:	f042 0208 	orr.w	r2, r2, #8
 800909c:	619a      	str	r2, [r3, #24]
 800909e:	bf00      	nop
 80090a0:	3770      	adds	r7, #112	@ 0x70
 80090a2:	46bd      	mov	sp, r7
 80090a4:	bd80      	pop	{r7, pc}
 80090a6:	bf00      	nop
 80090a8:	40008000 	.word	0x40008000

080090ac <UART_RxISR_16BIT>:
 80090ac:	b580      	push	{r7, lr}
 80090ae:	b09c      	sub	sp, #112	@ 0x70
 80090b0:	af00      	add	r7, sp, #0
 80090b2:	6078      	str	r0, [r7, #4]
 80090b4:	687b      	ldr	r3, [r7, #4]
 80090b6:	f8b3 3060 	ldrh.w	r3, [r3, #96]	@ 0x60
 80090ba:	f8a7 306e 	strh.w	r3, [r7, #110]	@ 0x6e
 80090be:	687b      	ldr	r3, [r7, #4]
 80090c0:	f8d3 308c 	ldr.w	r3, [r3, #140]	@ 0x8c
 80090c4:	2b22      	cmp	r3, #34	@ 0x22
 80090c6:	f040 80c2 	bne.w	800924e <UART_RxISR_16BIT+0x1a2>
 80090ca:	687b      	ldr	r3, [r7, #4]
 80090cc:	681b      	ldr	r3, [r3, #0]
 80090ce:	6a5b      	ldr	r3, [r3, #36]	@ 0x24
 80090d0:	f8a7 306c 	strh.w	r3, [r7, #108]	@ 0x6c
 80090d4:	687b      	ldr	r3, [r7, #4]
 80090d6:	6d9b      	ldr	r3, [r3, #88]	@ 0x58
 80090d8:	66bb      	str	r3, [r7, #104]	@ 0x68
 80090da:	f8b7 206c 	ldrh.w	r2, [r7, #108]	@ 0x6c
 80090de:	f8b7 306e 	ldrh.w	r3, [r7, #110]	@ 0x6e
 80090e2:	4013      	ands	r3, r2
 80090e4:	b29a      	uxth	r2, r3
 80090e6:	6ebb      	ldr	r3, [r7, #104]	@ 0x68
 80090e8:	801a      	strh	r2, [r3, #0]
 80090ea:	687b      	ldr	r3, [r7, #4]
 80090ec:	6d9b      	ldr	r3, [r3, #88]	@ 0x58
 80090ee:	1c9a      	adds	r2, r3, #2
 80090f0:	687b      	ldr	r3, [r7, #4]
 80090f2:	659a      	str	r2, [r3, #88]	@ 0x58
 80090f4:	687b      	ldr	r3, [r7, #4]
 80090f6:	f8b3 305e 	ldrh.w	r3, [r3, #94]	@ 0x5e
 80090fa:	b29b      	uxth	r3, r3
 80090fc:	3b01      	subs	r3, #1
 80090fe:	b29a      	uxth	r2, r3
 8009100:	687b      	ldr	r3, [r7, #4]
 8009102:	f8a3 205e 	strh.w	r2, [r3, #94]	@ 0x5e
 8009106:	687b      	ldr	r3, [r7, #4]
 8009108:	f8b3 305e 	ldrh.w	r3, [r3, #94]	@ 0x5e
 800910c:	b29b      	uxth	r3, r3
 800910e:	2b00      	cmp	r3, #0
 8009110:	f040 80a5 	bne.w	800925e <UART_RxISR_16BIT+0x1b2>
 8009114:	687b      	ldr	r3, [r7, #4]
 8009116:	681b      	ldr	r3, [r3, #0]
 8009118:	64bb      	str	r3, [r7, #72]	@ 0x48
 800911a:	6cbb      	ldr	r3, [r7, #72]	@ 0x48
 800911c:	e853 3f00 	ldrex	r3, [r3]
 8009120:	647b      	str	r3, [r7, #68]	@ 0x44
 8009122:	6c7b      	ldr	r3, [r7, #68]	@ 0x44
 8009124:	f423 7390 	bic.w	r3, r3, #288	@ 0x120
 8009128:	667b      	str	r3, [r7, #100]	@ 0x64
 800912a:	687b      	ldr	r3, [r7, #4]
 800912c:	681b      	ldr	r3, [r3, #0]
 800912e:	461a      	mov	r2, r3
 8009130:	6e7b      	ldr	r3, [r7, #100]	@ 0x64
 8009132:	657b      	str	r3, [r7, #84]	@ 0x54
 8009134:	653a      	str	r2, [r7, #80]	@ 0x50
 8009136:	6d39      	ldr	r1, [r7, #80]	@ 0x50
 8009138:	6d7a      	ldr	r2, [r7, #84]	@ 0x54
 800913a:	e841 2300 	strex	r3, r2, [r1]
 800913e:	64fb      	str	r3, [r7, #76]	@ 0x4c
 8009140:	6cfb      	ldr	r3, [r7, #76]	@ 0x4c
 8009142:	2b00      	cmp	r3, #0
 8009144:	d1e6      	bne.n	8009114 <UART_RxISR_16BIT+0x68>
 8009146:	687b      	ldr	r3, [r7, #4]
 8009148:	681b      	ldr	r3, [r3, #0]
 800914a:	3308      	adds	r3, #8
 800914c:	637b      	str	r3, [r7, #52]	@ 0x34
 800914e:	6b7b      	ldr	r3, [r7, #52]	@ 0x34
 8009150:	e853 3f00 	ldrex	r3, [r3]
 8009154:	633b      	str	r3, [r7, #48]	@ 0x30
 8009156:	6b3b      	ldr	r3, [r7, #48]	@ 0x30
 8009158:	f023 0301 	bic.w	r3, r3, #1
 800915c:	663b      	str	r3, [r7, #96]	@ 0x60
 800915e:	687b      	ldr	r3, [r7, #4]
 8009160:	681b      	ldr	r3, [r3, #0]
 8009162:	3308      	adds	r3, #8
 8009164:	6e3a      	ldr	r2, [r7, #96]	@ 0x60
 8009166:	643a      	str	r2, [r7, #64]	@ 0x40
 8009168:	63fb      	str	r3, [r7, #60]	@ 0x3c
 800916a:	6bf9      	ldr	r1, [r7, #60]	@ 0x3c
 800916c:	6c3a      	ldr	r2, [r7, #64]	@ 0x40
 800916e:	e841 2300 	strex	r3, r2, [r1]
 8009172:	63bb      	str	r3, [r7, #56]	@ 0x38
 8009174:	6bbb      	ldr	r3, [r7, #56]	@ 0x38
 8009176:	2b00      	cmp	r3, #0
 8009178:	d1e5      	bne.n	8009146 <UART_RxISR_16BIT+0x9a>
 800917a:	687b      	ldr	r3, [r7, #4]
 800917c:	2220      	movs	r2, #32
 800917e:	f8c3 208c 	str.w	r2, [r3, #140]	@ 0x8c
 8009182:	687b      	ldr	r3, [r7, #4]
 8009184:	2200      	movs	r2, #0
 8009186:	675a      	str	r2, [r3, #116]	@ 0x74
 8009188:	687b      	ldr	r3, [r7, #4]
 800918a:	2200      	movs	r2, #0
 800918c:	671a      	str	r2, [r3, #112]	@ 0x70
 800918e:	687b      	ldr	r3, [r7, #4]
 8009190:	681b      	ldr	r3, [r3, #0]
 8009192:	4a35      	ldr	r2, [pc, #212]	@ (8009268 <UART_RxISR_16BIT+0x1bc>)
 8009194:	4293      	cmp	r3, r2
 8009196:	d01f      	beq.n	80091d8 <UART_RxISR_16BIT+0x12c>
 8009198:	687b      	ldr	r3, [r7, #4]
 800919a:	681b      	ldr	r3, [r3, #0]
 800919c:	685b      	ldr	r3, [r3, #4]
 800919e:	f403 0300 	and.w	r3, r3, #8388608	@ 0x800000
 80091a2:	2b00      	cmp	r3, #0
 80091a4:	d018      	beq.n	80091d8 <UART_RxISR_16BIT+0x12c>
 80091a6:	687b      	ldr	r3, [r7, #4]
 80091a8:	681b      	ldr	r3, [r3, #0]
 80091aa:	623b      	str	r3, [r7, #32]
 80091ac:	6a3b      	ldr	r3, [r7, #32]
 80091ae:	e853 3f00 	ldrex	r3, [r3]
 80091b2:	61fb      	str	r3, [r7, #28]
 80091b4:	69fb      	ldr	r3, [r7, #28]
 80091b6:	f023 6380 	bic.w	r3, r3, #67108864	@ 0x4000000
 80091ba:	65fb      	str	r3, [r7, #92]	@ 0x5c
 80091bc:	687b      	ldr	r3, [r7, #4]
 80091be:	681b      	ldr	r3, [r3, #0]
 80091c0:	461a      	mov	r2, r3
 80091c2:	6dfb      	ldr	r3, [r7, #92]	@ 0x5c
 80091c4:	62fb      	str	r3, [r7, #44]	@ 0x2c
 80091c6:	62ba      	str	r2, [r7, #40]	@ 0x28
 80091c8:	6ab9      	ldr	r1, [r7, #40]	@ 0x28
 80091ca:	6afa      	ldr	r2, [r7, #44]	@ 0x2c
 80091cc:	e841 2300 	strex	r3, r2, [r1]
 80091d0:	627b      	str	r3, [r7, #36]	@ 0x24
 80091d2:	6a7b      	ldr	r3, [r7, #36]	@ 0x24
 80091d4:	2b00      	cmp	r3, #0
 80091d6:	d1e6      	bne.n	80091a6 <UART_RxISR_16BIT+0xfa>
 80091d8:	687b      	ldr	r3, [r7, #4]
 80091da:	6edb      	ldr	r3, [r3, #108]	@ 0x6c
 80091dc:	2b01      	cmp	r3, #1
 80091de:	d130      	bne.n	8009242 <UART_RxISR_16BIT+0x196>
 80091e0:	687b      	ldr	r3, [r7, #4]
 80091e2:	2200      	movs	r2, #0
 80091e4:	66da      	str	r2, [r3, #108]	@ 0x6c
 80091e6:	687b      	ldr	r3, [r7, #4]
 80091e8:	681b      	ldr	r3, [r3, #0]
 80091ea:	60fb      	str	r3, [r7, #12]
 80091ec:	68fb      	ldr	r3, [r7, #12]
 80091ee:	e853 3f00 	ldrex	r3, [r3]
 80091f2:	60bb      	str	r3, [r7, #8]
 80091f4:	68bb      	ldr	r3, [r7, #8]
 80091f6:	f023 0310 	bic.w	r3, r3, #16
 80091fa:	65bb      	str	r3, [r7, #88]	@ 0x58
 80091fc:	687b      	ldr	r3, [r7, #4]
 80091fe:	681b      	ldr	r3, [r3, #0]
 8009200:	461a      	mov	r2, r3
 8009202:	6dbb      	ldr	r3, [r7, #88]	@ 0x58
 8009204:	61bb      	str	r3, [r7, #24]
 8009206:	617a      	str	r2, [r7, #20]
 8009208:	6979      	ldr	r1, [r7, #20]
 800920a:	69ba      	ldr	r2, [r7, #24]
 800920c:	e841 2300 	strex	r3, r2, [r1]
 8009210:	613b      	str	r3, [r7, #16]
 8009212:	693b      	ldr	r3, [r7, #16]
 8009214:	2b00      	cmp	r3, #0
 8009216:	d1e6      	bne.n	80091e6 <UART_RxISR_16BIT+0x13a>
 8009218:	687b      	ldr	r3, [r7, #4]
 800921a:	681b      	ldr	r3, [r3, #0]
 800921c:	69db      	ldr	r3, [r3, #28]
 800921e:	f003 0310 	and.w	r3, r3, #16
 8009222:	2b10      	cmp	r3, #16
 8009224:	d103      	bne.n	800922e <UART_RxISR_16BIT+0x182>
 8009226:	687b      	ldr	r3, [r7, #4]
 8009228:	681b      	ldr	r3, [r3, #0]
 800922a:	2210      	movs	r2, #16
 800922c:	621a      	str	r2, [r3, #32]
 800922e:	687b      	ldr	r3, [r7, #4]
 8009230:	f8d3 30c0 	ldr.w	r3, [r3, #192]	@ 0xc0
 8009234:	687a      	ldr	r2, [r7, #4]
 8009236:	f8b2 205c 	ldrh.w	r2, [r2, #92]	@ 0x5c
 800923a:	4611      	mov	r1, r2
 800923c:	6878      	ldr	r0, [r7, #4]
 800923e:	4798      	blx	r3
 8009240:	e00d      	b.n	800925e <UART_RxISR_16BIT+0x1b2>
 8009242:	687b      	ldr	r3, [r7, #4]
 8009244:	f8d3 30a0 	ldr.w	r3, [r3, #160]	@ 0xa0
 8009248:	6878      	ldr	r0, [r7, #4]
 800924a:	4798      	blx	r3
 800924c:	e007      	b.n	800925e <UART_RxISR_16BIT+0x1b2>
 800924e:	687b      	ldr	r3, [r7, #4]
 8009250:	681b      	ldr	r3, [r3, #0]
 8009252:	699a      	ldr	r2, [r3, #24]
 8009254:	687b      	ldr	r3, [r7, #4]
 8009256:	681b      	ldr	r3, [r3, #0]
 8009258:	f042 0208 	orr.w	r2, r2, #8
 800925c:	619a      	str	r2, [r3, #24]
 800925e:	bf00      	nop
 8009260:	3770      	adds	r7, #112	@ 0x70
 8009262:	46bd      	mov	sp, r7
 8009264:	bd80      	pop	{r7, pc}
 8009266:	bf00      	nop
 8009268:	40008000 	.word	0x40008000

0800926c <UART_RxISR_8BIT_FIFOEN>:
 800926c:	b580      	push	{r7, lr}
 800926e:	b0ac      	sub	sp, #176	@ 0xb0
 8009270:	af00      	add	r7, sp, #0
 8009272:	6078      	str	r0, [r7, #4]
 8009274:	687b      	ldr	r3, [r7, #4]
 8009276:	f8b3 3060 	ldrh.w	r3, [r3, #96]	@ 0x60
 800927a:	f8a7 30aa 	strh.w	r3, [r7, #170]	@ 0xaa
 800927e:	687b      	ldr	r3, [r7, #4]
 8009280:	681b      	ldr	r3, [r3, #0]
 8009282:	69db      	ldr	r3, [r3, #28]
 8009284:	f8c7 30ac 	str.w	r3, [r7, #172]	@ 0xac
 8009288:	687b      	ldr	r3, [r7, #4]
 800928a:	681b      	ldr	r3, [r3, #0]
 800928c:	681b      	ldr	r3, [r3, #0]
 800928e:	f8c7 30a4 	str.w	r3, [r7, #164]	@ 0xa4
 8009292:	687b      	ldr	r3, [r7, #4]
 8009294:	681b      	ldr	r3, [r3, #0]
 8009296:	689b      	ldr	r3, [r3, #8]
 8009298:	f8c7 30a0 	str.w	r3, [r7, #160]	@ 0xa0
 800929c:	687b      	ldr	r3, [r7, #4]
 800929e:	f8d3 308c 	ldr.w	r3, [r3, #140]	@ 0x8c
 80092a2:	2b22      	cmp	r3, #34	@ 0x22
 80092a4:	f040 8189 	bne.w	80095ba <UART_RxISR_8BIT_FIFOEN+0x34e>
 80092a8:	687b      	ldr	r3, [r7, #4]
 80092aa:	f8b3 3068 	ldrh.w	r3, [r3, #104]	@ 0x68
 80092ae:	f8a7 309e 	strh.w	r3, [r7, #158]	@ 0x9e
 80092b2:	e12c      	b.n	800950e <UART_RxISR_8BIT_FIFOEN+0x2a2>
 80092b4:	687b      	ldr	r3, [r7, #4]
 80092b6:	681b      	ldr	r3, [r3, #0]
 80092b8:	6a5b      	ldr	r3, [r3, #36]	@ 0x24
 80092ba:	f8a7 309c 	strh.w	r3, [r7, #156]	@ 0x9c
 80092be:	f8b7 309c 	ldrh.w	r3, [r7, #156]	@ 0x9c
 80092c2:	b2d9      	uxtb	r1, r3
 80092c4:	f8b7 30aa 	ldrh.w	r3, [r7, #170]	@ 0xaa
 80092c8:	b2da      	uxtb	r2, r3
 80092ca:	687b      	ldr	r3, [r7, #4]
 80092cc:	6d9b      	ldr	r3, [r3, #88]	@ 0x58
 80092ce:	400a      	ands	r2, r1
 80092d0:	b2d2      	uxtb	r2, r2
 80092d2:	701a      	strb	r2, [r3, #0]
 80092d4:	687b      	ldr	r3, [r7, #4]
 80092d6:	6d9b      	ldr	r3, [r3, #88]	@ 0x58
 80092d8:	1c5a      	adds	r2, r3, #1
 80092da:	687b      	ldr	r3, [r7, #4]
 80092dc:	659a      	str	r2, [r3, #88]	@ 0x58
 80092de:	687b      	ldr	r3, [r7, #4]
 80092e0:	f8b3 305e 	ldrh.w	r3, [r3, #94]	@ 0x5e
 80092e4:	b29b      	uxth	r3, r3
 80092e6:	3b01      	subs	r3, #1
 80092e8:	b29a      	uxth	r2, r3
 80092ea:	687b      	ldr	r3, [r7, #4]
 80092ec:	f8a3 205e 	strh.w	r2, [r3, #94]	@ 0x5e
 80092f0:	687b      	ldr	r3, [r7, #4]
 80092f2:	681b      	ldr	r3, [r3, #0]
 80092f4:	69db      	ldr	r3, [r3, #28]
 80092f6:	f8c7 30ac 	str.w	r3, [r7, #172]	@ 0xac
 80092fa:	f8d7 30ac 	ldr.w	r3, [r7, #172]	@ 0xac
 80092fe:	f003 0307 	and.w	r3, r3, #7
 8009302:	2b00      	cmp	r3, #0
 8009304:	d055      	beq.n	80093b2 <UART_RxISR_8BIT_FIFOEN+0x146>
 8009306:	f8d7 30ac 	ldr.w	r3, [r7, #172]	@ 0xac
 800930a:	f003 0301 	and.w	r3, r3, #1
 800930e:	2b00      	cmp	r3, #0
 8009310:	d011      	beq.n	8009336 <UART_RxISR_8BIT_FIFOEN+0xca>
 8009312:	f8d7 30a4 	ldr.w	r3, [r7, #164]	@ 0xa4
 8009316:	f403 7380 	and.w	r3, r3, #256	@ 0x100
 800931a:	2b00      	cmp	r3, #0
 800931c:	d00b      	beq.n	8009336 <UART_RxISR_8BIT_FIFOEN+0xca>
 800931e:	687b      	ldr	r3, [r7, #4]
 8009320:	681b      	ldr	r3, [r3, #0]
 8009322:	2201      	movs	r2, #1
 8009324:	621a      	str	r2, [r3, #32]
 8009326:	687b      	ldr	r3, [r7, #4]
 8009328:	f8d3 3090 	ldr.w	r3, [r3, #144]	@ 0x90
 800932c:	f043 0201 	orr.w	r2, r3, #1
 8009330:	687b      	ldr	r3, [r7, #4]
 8009332:	f8c3 2090 	str.w	r2, [r3, #144]	@ 0x90
 8009336:	f8d7 30ac 	ldr.w	r3, [r7, #172]	@ 0xac
 800933a:	f003 0302 	and.w	r3, r3, #2
 800933e:	2b00      	cmp	r3, #0
 8009340:	d011      	beq.n	8009366 <UART_RxISR_8BIT_FIFOEN+0xfa>
 8009342:	f8d7 30a0 	ldr.w	r3, [r7, #160]	@ 0xa0
 8009346:	f003 0301 	and.w	r3, r3, #1
 800934a:	2b00      	cmp	r3, #0
 800934c:	d00b      	beq.n	8009366 <UART_RxISR_8BIT_FIFOEN+0xfa>
 800934e:	687b      	ldr	r3, [r7, #4]
 8009350:	681b      	ldr	r3, [r3, #0]
 8009352:	2202      	movs	r2, #2
 8009354:	621a      	str	r2, [r3, #32]
 8009356:	687b      	ldr	r3, [r7, #4]
 8009358:	f8d3 3090 	ldr.w	r3, [r3, #144]	@ 0x90
 800935c:	f043 0204 	orr.w	r2, r3, #4
 8009360:	687b      	ldr	r3, [r7, #4]
 8009362:	f8c3 2090 	str.w	r2, [r3, #144]	@ 0x90
 8009366:	f8d7 30ac 	ldr.w	r3, [r7, #172]	@ 0xac
 800936a:	f003 0304 	and.w	r3, r3, #4
 800936e:	2b00      	cmp	r3, #0
 8009370:	d011      	beq.n	8009396 <UART_RxISR_8BIT_FIFOEN+0x12a>
 8009372:	f8d7 30a0 	ldr.w	r3, [r7, #160]	@ 0xa0
 8009376:	f003 0301 	and.w	r3, r3, #1
 800937a:	2b00      	cmp	r3, #0
 800937c:	d00b      	beq.n	8009396 <UART_RxISR_8BIT_FIFOEN+0x12a>
 800937e:	687b      	ldr	r3, [r7, #4]
 8009380:	681b      	ldr	r3, [r3, #0]
 8009382:	2204      	movs	r2, #4
 8009384:	621a      	str	r2, [r3, #32]
 8009386:	687b      	ldr	r3, [r7, #4]
 8009388:	f8d3 3090 	ldr.w	r3, [r3, #144]	@ 0x90
 800938c:	f043 0202 	orr.w	r2, r3, #2
 8009390:	687b      	ldr	r3, [r7, #4]
 8009392:	f8c3 2090 	str.w	r2, [r3, #144]	@ 0x90
 8009396:	687b      	ldr	r3, [r7, #4]
 8009398:	f8d3 3090 	ldr.w	r3, [r3, #144]	@ 0x90
 800939c:	2b00      	cmp	r3, #0
 800939e:	d008      	beq.n	80093b2 <UART_RxISR_8BIT_FIFOEN+0x146>
 80093a0:	687b      	ldr	r3, [r7, #4]
 80093a2:	f8d3 30a4 	ldr.w	r3, [r3, #164]	@ 0xa4
 80093a6:	6878      	ldr	r0, [r7, #4]
 80093a8:	4798      	blx	r3
 80093aa:	687b      	ldr	r3, [r7, #4]
 80093ac:	2200      	movs	r2, #0
 80093ae:	f8c3 2090 	str.w	r2, [r3, #144]	@ 0x90
 80093b2:	687b      	ldr	r3, [r7, #4]
 80093b4:	f8b3 305e 	ldrh.w	r3, [r3, #94]	@ 0x5e
 80093b8:	b29b      	uxth	r3, r3
 80093ba:	2b00      	cmp	r3, #0
 80093bc:	f040 80a7 	bne.w	800950e <UART_RxISR_8BIT_FIFOEN+0x2a2>
 80093c0:	687b      	ldr	r3, [r7, #4]
 80093c2:	681b      	ldr	r3, [r3, #0]
 80093c4:	673b      	str	r3, [r7, #112]	@ 0x70
 80093c6:	6f3b      	ldr	r3, [r7, #112]	@ 0x70
 80093c8:	e853 3f00 	ldrex	r3, [r3]
 80093cc:	66fb      	str	r3, [r7, #108]	@ 0x6c
 80093ce:	6efb      	ldr	r3, [r7, #108]	@ 0x6c
 80093d0:	f423 7380 	bic.w	r3, r3, #256	@ 0x100
 80093d4:	f8c7 3098 	str.w	r3, [r7, #152]	@ 0x98
 80093d8:	687b      	ldr	r3, [r7, #4]
 80093da:	681b      	ldr	r3, [r3, #0]
 80093dc:	461a      	mov	r2, r3
 80093de:	f8d7 3098 	ldr.w	r3, [r7, #152]	@ 0x98
 80093e2:	67fb      	str	r3, [r7, #124]	@ 0x7c
 80093e4:	67ba      	str	r2, [r7, #120]	@ 0x78
 80093e6:	6fb9      	ldr	r1, [r7, #120]	@ 0x78
 80093e8:	6ffa      	ldr	r2, [r7, #124]	@ 0x7c
 80093ea:	e841 2300 	strex	r3, r2, [r1]
 80093ee:	677b      	str	r3, [r7, #116]	@ 0x74
 80093f0:	6f7b      	ldr	r3, [r7, #116]	@ 0x74
 80093f2:	2b00      	cmp	r3, #0
 80093f4:	d1e4      	bne.n	80093c0 <UART_RxISR_8BIT_FIFOEN+0x154>
 80093f6:	687b      	ldr	r3, [r7, #4]
 80093f8:	681b      	ldr	r3, [r3, #0]
 80093fa:	3308      	adds	r3, #8
 80093fc:	65fb      	str	r3, [r7, #92]	@ 0x5c
 80093fe:	6dfb      	ldr	r3, [r7, #92]	@ 0x5c
 8009400:	e853 3f00 	ldrex	r3, [r3]
 8009404:	65bb      	str	r3, [r7, #88]	@ 0x58
 8009406:	6dbb      	ldr	r3, [r7, #88]	@ 0x58
 8009408:	f023 5380 	bic.w	r3, r3, #268435456	@ 0x10000000
 800940c:	f023 0301 	bic.w	r3, r3, #1
 8009410:	f8c7 3094 	str.w	r3, [r7, #148]	@ 0x94
 8009414:	687b      	ldr	r3, [r7, #4]
 8009416:	681b      	ldr	r3, [r3, #0]
 8009418:	3308      	adds	r3, #8
 800941a:	f8d7 2094 	ldr.w	r2, [r7, #148]	@ 0x94
 800941e:	66ba      	str	r2, [r7, #104]	@ 0x68
 8009420:	667b      	str	r3, [r7, #100]	@ 0x64
 8009422:	6e79      	ldr	r1, [r7, #100]	@ 0x64
 8009424:	6eba      	ldr	r2, [r7, #104]	@ 0x68
 8009426:	e841 2300 	strex	r3, r2, [r1]
 800942a:	663b      	str	r3, [r7, #96]	@ 0x60
 800942c:	6e3b      	ldr	r3, [r7, #96]	@ 0x60
 800942e:	2b00      	cmp	r3, #0
 8009430:	d1e1      	bne.n	80093f6 <UART_RxISR_8BIT_FIFOEN+0x18a>
 8009432:	687b      	ldr	r3, [r7, #4]
 8009434:	2220      	movs	r2, #32
 8009436:	f8c3 208c 	str.w	r2, [r3, #140]	@ 0x8c
 800943a:	687b      	ldr	r3, [r7, #4]
 800943c:	2200      	movs	r2, #0
 800943e:	675a      	str	r2, [r3, #116]	@ 0x74
 8009440:	687b      	ldr	r3, [r7, #4]
 8009442:	2200      	movs	r2, #0
 8009444:	671a      	str	r2, [r3, #112]	@ 0x70
 8009446:	687b      	ldr	r3, [r7, #4]
 8009448:	681b      	ldr	r3, [r3, #0]
 800944a:	4a62      	ldr	r2, [pc, #392]	@ (80095d4 <UART_RxISR_8BIT_FIFOEN+0x368>)
 800944c:	4293      	cmp	r3, r2
 800944e:	d021      	beq.n	8009494 <UART_RxISR_8BIT_FIFOEN+0x228>
 8009450:	687b      	ldr	r3, [r7, #4]
 8009452:	681b      	ldr	r3, [r3, #0]
 8009454:	685b      	ldr	r3, [r3, #4]
 8009456:	f403 0300 	and.w	r3, r3, #8388608	@ 0x800000
 800945a:	2b00      	cmp	r3, #0
 800945c:	d01a      	beq.n	8009494 <UART_RxISR_8BIT_FIFOEN+0x228>
 800945e:	687b      	ldr	r3, [r7, #4]
 8009460:	681b      	ldr	r3, [r3, #0]
 8009462:	64bb      	str	r3, [r7, #72]	@ 0x48
 8009464:	6cbb      	ldr	r3, [r7, #72]	@ 0x48
 8009466:	e853 3f00 	ldrex	r3, [r3]
 800946a:	647b      	str	r3, [r7, #68]	@ 0x44
 800946c:	6c7b      	ldr	r3, [r7, #68]	@ 0x44
 800946e:	f023 6380 	bic.w	r3, r3, #67108864	@ 0x4000000
 8009472:	f8c7 3090 	str.w	r3, [r7, #144]	@ 0x90
 8009476:	687b      	ldr	r3, [r7, #4]
 8009478:	681b      	ldr	r3, [r3, #0]
 800947a:	461a      	mov	r2, r3
 800947c:	f8d7 3090 	ldr.w	r3, [r7, #144]	@ 0x90
 8009480:	657b      	str	r3, [r7, #84]	@ 0x54
 8009482:	653a      	str	r2, [r7, #80]	@ 0x50
 8009484:	6d39      	ldr	r1, [r7, #80]	@ 0x50
 8009486:	6d7a      	ldr	r2, [r7, #84]	@ 0x54
 8009488:	e841 2300 	strex	r3, r2, [r1]
 800948c:	64fb      	str	r3, [r7, #76]	@ 0x4c
 800948e:	6cfb      	ldr	r3, [r7, #76]	@ 0x4c
 8009490:	2b00      	cmp	r3, #0
 8009492:	d1e4      	bne.n	800945e <UART_RxISR_8BIT_FIFOEN+0x1f2>
 8009494:	687b      	ldr	r3, [r7, #4]
 8009496:	6edb      	ldr	r3, [r3, #108]	@ 0x6c
 8009498:	2b01      	cmp	r3, #1
 800949a:	d132      	bne.n	8009502 <UART_RxISR_8BIT_FIFOEN+0x296>
 800949c:	687b      	ldr	r3, [r7, #4]
 800949e:	2200      	movs	r2, #0
 80094a0:	66da      	str	r2, [r3, #108]	@ 0x6c
 80094a2:	687b      	ldr	r3, [r7, #4]
 80094a4:	681b      	ldr	r3, [r3, #0]
 80094a6:	637b      	str	r3, [r7, #52]	@ 0x34
 80094a8:	6b7b      	ldr	r3, [r7, #52]	@ 0x34
 80094aa:	e853 3f00 	ldrex	r3, [r3]
 80094ae:	633b      	str	r3, [r7, #48]	@ 0x30
 80094b0:	6b3b      	ldr	r3, [r7, #48]	@ 0x30
 80094b2:	f023 0310 	bic.w	r3, r3, #16
 80094b6:	f8c7 308c 	str.w	r3, [r7, #140]	@ 0x8c
 80094ba:	687b      	ldr	r3, [r7, #4]
 80094bc:	681b      	ldr	r3, [r3, #0]
 80094be:	461a      	mov	r2, r3
 80094c0:	f8d7 308c 	ldr.w	r3, [r7, #140]	@ 0x8c
 80094c4:	643b      	str	r3, [r7, #64]	@ 0x40
 80094c6:	63fa      	str	r2, [r7, #60]	@ 0x3c
 80094c8:	6bf9      	ldr	r1, [r7, #60]	@ 0x3c
 80094ca:	6c3a      	ldr	r2, [r7, #64]	@ 0x40
 80094cc:	e841 2300 	strex	r3, r2, [r1]
 80094d0:	63bb      	str	r3, [r7, #56]	@ 0x38
 80094d2:	6bbb      	ldr	r3, [r7, #56]	@ 0x38
 80094d4:	2b00      	cmp	r3, #0
 80094d6:	d1e4      	bne.n	80094a2 <UART_RxISR_8BIT_FIFOEN+0x236>
 80094d8:	687b      	ldr	r3, [r7, #4]
 80094da:	681b      	ldr	r3, [r3, #0]
 80094dc:	69db      	ldr	r3, [r3, #28]
 80094de:	f003 0310 	and.w	r3, r3, #16
 80094e2:	2b10      	cmp	r3, #16
 80094e4:	d103      	bne.n	80094ee <UART_RxISR_8BIT_FIFOEN+0x282>
 80094e6:	687b      	ldr	r3, [r7, #4]
 80094e8:	681b      	ldr	r3, [r3, #0]
 80094ea:	2210      	movs	r2, #16
 80094ec:	621a      	str	r2, [r3, #32]
 80094ee:	687b      	ldr	r3, [r7, #4]
 80094f0:	f8d3 30c0 	ldr.w	r3, [r3, #192]	@ 0xc0
 80094f4:	687a      	ldr	r2, [r7, #4]
 80094f6:	f8b2 205c 	ldrh.w	r2, [r2, #92]	@ 0x5c
 80094fa:	4611      	mov	r1, r2
 80094fc:	6878      	ldr	r0, [r7, #4]
 80094fe:	4798      	blx	r3
 8009500:	e010      	b.n	8009524 <UART_RxISR_8BIT_FIFOEN+0x2b8>
 8009502:	687b      	ldr	r3, [r7, #4]
 8009504:	f8d3 30a0 	ldr.w	r3, [r3, #160]	@ 0xa0
 8009508:	6878      	ldr	r0, [r7, #4]
 800950a:	4798      	blx	r3
 800950c:	e00a      	b.n	8009524 <UART_RxISR_8BIT_FIFOEN+0x2b8>
 800950e:	f8b7 309e 	ldrh.w	r3, [r7, #158]	@ 0x9e
 8009512:	2b00      	cmp	r3, #0
 8009514:	d006      	beq.n	8009524 <UART_RxISR_8BIT_FIFOEN+0x2b8>
 8009516:	f8d7 30ac 	ldr.w	r3, [r7, #172]	@ 0xac
 800951a:	f003 0320 	and.w	r3, r3, #32
 800951e:	2b00      	cmp	r3, #0
 8009520:	f47f aec8 	bne.w	80092b4 <UART_RxISR_8BIT_FIFOEN+0x48>
 8009524:	687b      	ldr	r3, [r7, #4]
 8009526:	f8b3 305e 	ldrh.w	r3, [r3, #94]	@ 0x5e
 800952a:	f8a7 308a 	strh.w	r3, [r7, #138]	@ 0x8a
 800952e:	f8b7 308a 	ldrh.w	r3, [r7, #138]	@ 0x8a
 8009532:	2b00      	cmp	r3, #0
 8009534:	d049      	beq.n	80095ca <UART_RxISR_8BIT_FIFOEN+0x35e>
 8009536:	687b      	ldr	r3, [r7, #4]
 8009538:	f8b3 3068 	ldrh.w	r3, [r3, #104]	@ 0x68
 800953c:	f8b7 208a 	ldrh.w	r2, [r7, #138]	@ 0x8a
 8009540:	429a      	cmp	r2, r3
 8009542:	d242      	bcs.n	80095ca <UART_RxISR_8BIT_FIFOEN+0x35e>
 8009544:	687b      	ldr	r3, [r7, #4]
 8009546:	681b      	ldr	r3, [r3, #0]
 8009548:	3308      	adds	r3, #8
 800954a:	623b      	str	r3, [r7, #32]
 800954c:	6a3b      	ldr	r3, [r7, #32]
 800954e:	e853 3f00 	ldrex	r3, [r3]
 8009552:	61fb      	str	r3, [r7, #28]
 8009554:	69fb      	ldr	r3, [r7, #28]
 8009556:	f023 5380 	bic.w	r3, r3, #268435456	@ 0x10000000
 800955a:	f8c7 3084 	str.w	r3, [r7, #132]	@ 0x84
 800955e:	687b      	ldr	r3, [r7, #4]
 8009560:	681b      	ldr	r3, [r3, #0]
 8009562:	3308      	adds	r3, #8
 8009564:	f8d7 2084 	ldr.w	r2, [r7, #132]	@ 0x84
 8009568:	62fa      	str	r2, [r7, #44]	@ 0x2c
 800956a:	62bb      	str	r3, [r7, #40]	@ 0x28
 800956c:	6ab9      	ldr	r1, [r7, #40]	@ 0x28
 800956e:	6afa      	ldr	r2, [r7, #44]	@ 0x2c
 8009570:	e841 2300 	strex	r3, r2, [r1]
 8009574:	627b      	str	r3, [r7, #36]	@ 0x24
 8009576:	6a7b      	ldr	r3, [r7, #36]	@ 0x24
 8009578:	2b00      	cmp	r3, #0
 800957a:	d1e3      	bne.n	8009544 <UART_RxISR_8BIT_FIFOEN+0x2d8>
 800957c:	687b      	ldr	r3, [r7, #4]
 800957e:	4a16      	ldr	r2, [pc, #88]	@ (80095d8 <UART_RxISR_8BIT_FIFOEN+0x36c>)
 8009580:	675a      	str	r2, [r3, #116]	@ 0x74
 8009582:	687b      	ldr	r3, [r7, #4]
 8009584:	681b      	ldr	r3, [r3, #0]
 8009586:	60fb      	str	r3, [r7, #12]
 8009588:	68fb      	ldr	r3, [r7, #12]
 800958a:	e853 3f00 	ldrex	r3, [r3]
 800958e:	60bb      	str	r3, [r7, #8]
 8009590:	68bb      	ldr	r3, [r7, #8]
 8009592:	f043 0320 	orr.w	r3, r3, #32
 8009596:	f8c7 3080 	str.w	r3, [r7, #128]	@ 0x80
 800959a:	687b      	ldr	r3, [r7, #4]
 800959c:	681b      	ldr	r3, [r3, #0]
 800959e:	461a      	mov	r2, r3
 80095a0:	f8d7 3080 	ldr.w	r3, [r7, #128]	@ 0x80
 80095a4:	61bb      	str	r3, [r7, #24]
 80095a6:	617a      	str	r2, [r7, #20]
 80095a8:	6979      	ldr	r1, [r7, #20]
 80095aa:	69ba      	ldr	r2, [r7, #24]
 80095ac:	e841 2300 	strex	r3, r2, [r1]
 80095b0:	613b      	str	r3, [r7, #16]
 80095b2:	693b      	ldr	r3, [r7, #16]
 80095b4:	2b00      	cmp	r3, #0
 80095b6:	d1e4      	bne.n	8009582 <UART_RxISR_8BIT_FIFOEN+0x316>
 80095b8:	e007      	b.n	80095ca <UART_RxISR_8BIT_FIFOEN+0x35e>
 80095ba:	687b      	ldr	r3, [r7, #4]
 80095bc:	681b      	ldr	r3, [r3, #0]
 80095be:	699a      	ldr	r2, [r3, #24]
 80095c0:	687b      	ldr	r3, [r7, #4]
 80095c2:	681b      	ldr	r3, [r3, #0]
 80095c4:	f042 0208 	orr.w	r2, r2, #8
 80095c8:	619a      	str	r2, [r3, #24]
 80095ca:	bf00      	nop
 80095cc:	37b0      	adds	r7, #176	@ 0xb0
 80095ce:	46bd      	mov	sp, r7
 80095d0:	bd80      	pop	{r7, pc}
 80095d2:	bf00      	nop
 80095d4:	40008000 	.word	0x40008000
 80095d8:	08008eed 	.word	0x08008eed

080095dc <UART_RxISR_16BIT_FIFOEN>:
 80095dc:	b580      	push	{r7, lr}
 80095de:	b0ae      	sub	sp, #184	@ 0xb8
 80095e0:	af00      	add	r7, sp, #0
 80095e2:	6078      	str	r0, [r7, #4]
 80095e4:	687b      	ldr	r3, [r7, #4]
 80095e6:	f8b3 3060 	ldrh.w	r3, [r3, #96]	@ 0x60
 80095ea:	f8a7 30b2 	strh.w	r3, [r7, #178]	@ 0xb2
 80095ee:	687b      	ldr	r3, [r7, #4]
 80095f0:	681b      	ldr	r3, [r3, #0]
 80095f2:	69db      	ldr	r3, [r3, #28]
 80095f4:	f8c7 30b4 	str.w	r3, [r7, #180]	@ 0xb4
 80095f8:	687b      	ldr	r3, [r7, #4]
 80095fa:	681b      	ldr	r3, [r3, #0]
 80095fc:	681b      	ldr	r3, [r3, #0]
 80095fe:	f8c7 30ac 	str.w	r3, [r7, #172]	@ 0xac
 8009602:	687b      	ldr	r3, [r7, #4]
 8009604:	681b      	ldr	r3, [r3, #0]
 8009606:	689b      	ldr	r3, [r3, #8]
 8009608:	f8c7 30a8 	str.w	r3, [r7, #168]	@ 0xa8
 800960c:	687b      	ldr	r3, [r7, #4]
 800960e:	f8d3 308c 	ldr.w	r3, [r3, #140]	@ 0x8c
 8009612:	2b22      	cmp	r3, #34	@ 0x22
 8009614:	f040 818d 	bne.w	8009932 <UART_RxISR_16BIT_FIFOEN+0x356>
 8009618:	687b      	ldr	r3, [r7, #4]
 800961a:	f8b3 3068 	ldrh.w	r3, [r3, #104]	@ 0x68
 800961e:	f8a7 30a6 	strh.w	r3, [r7, #166]	@ 0xa6
 8009622:	e130      	b.n	8009886 <UART_RxISR_16BIT_FIFOEN+0x2aa>
 8009624:	687b      	ldr	r3, [r7, #4]
 8009626:	681b      	ldr	r3, [r3, #0]
 8009628:	6a5b      	ldr	r3, [r3, #36]	@ 0x24
 800962a:	f8a7 30a4 	strh.w	r3, [r7, #164]	@ 0xa4
 800962e:	687b      	ldr	r3, [r7, #4]
 8009630:	6d9b      	ldr	r3, [r3, #88]	@ 0x58
 8009632:	f8c7 30a0 	str.w	r3, [r7, #160]	@ 0xa0
 8009636:	f8b7 20a4 	ldrh.w	r2, [r7, #164]	@ 0xa4
 800963a:	f8b7 30b2 	ldrh.w	r3, [r7, #178]	@ 0xb2
 800963e:	4013      	ands	r3, r2
 8009640:	b29a      	uxth	r2, r3
 8009642:	f8d7 30a0 	ldr.w	r3, [r7, #160]	@ 0xa0
 8009646:	801a      	strh	r2, [r3, #0]
 8009648:	687b      	ldr	r3, [r7, #4]
 800964a:	6d9b      	ldr	r3, [r3, #88]	@ 0x58
 800964c:	1c9a      	adds	r2, r3, #2
 800964e:	687b      	ldr	r3, [r7, #4]
 8009650:	659a      	str	r2, [r3, #88]	@ 0x58
 8009652:	687b      	ldr	r3, [r7, #4]
 8009654:	f8b3 305e 	ldrh.w	r3, [r3, #94]	@ 0x5e
 8009658:	b29b      	uxth	r3, r3
 800965a:	3b01      	subs	r3, #1
 800965c:	b29a      	uxth	r2, r3
 800965e:	687b      	ldr	r3, [r7, #4]
 8009660:	f8a3 205e 	strh.w	r2, [r3, #94]	@ 0x5e
 8009664:	687b      	ldr	r3, [r7, #4]
 8009666:	681b      	ldr	r3, [r3, #0]
 8009668:	69db      	ldr	r3, [r3, #28]
 800966a:	f8c7 30b4 	str.w	r3, [r7, #180]	@ 0xb4
 800966e:	f8d7 30b4 	ldr.w	r3, [r7, #180]	@ 0xb4
 8009672:	f003 0307 	and.w	r3, r3, #7
 8009676:	2b00      	cmp	r3, #0
 8009678:	d055      	beq.n	8009726 <UART_RxISR_16BIT_FIFOEN+0x14a>
 800967a:	f8d7 30b4 	ldr.w	r3, [r7, #180]	@ 0xb4
 800967e:	f003 0301 	and.w	r3, r3, #1
 8009682:	2b00      	cmp	r3, #0
 8009684:	d011      	beq.n	80096aa <UART_RxISR_16BIT_FIFOEN+0xce>
 8009686:	f8d7 30ac 	ldr.w	r3, [r7, #172]	@ 0xac
 800968a:	f403 7380 	and.w	r3, r3, #256	@ 0x100
 800968e:	2b00      	cmp	r3, #0
 8009690:	d00b      	beq.n	80096aa <UART_RxISR_16BIT_FIFOEN+0xce>
 8009692:	687b      	ldr	r3, [r7, #4]
 8009694:	681b      	ldr	r3, [r3, #0]
 8009696:	2201      	movs	r2, #1
 8009698:	621a      	str	r2, [r3, #32]
 800969a:	687b      	ldr	r3, [r7, #4]
 800969c:	f8d3 3090 	ldr.w	r3, [r3, #144]	@ 0x90
 80096a0:	f043 0201 	orr.w	r2, r3, #1
 80096a4:	687b      	ldr	r3, [r7, #4]
 80096a6:	f8c3 2090 	str.w	r2, [r3, #144]	@ 0x90
 80096aa:	f8d7 30b4 	ldr.w	r3, [r7, #180]	@ 0xb4
 80096ae:	f003 0302 	and.w	r3, r3, #2
 80096b2:	2b00      	cmp	r3, #0
 80096b4:	d011      	beq.n	80096da <UART_RxISR_16BIT_FIFOEN+0xfe>
 80096b6:	f8d7 30a8 	ldr.w	r3, [r7, #168]	@ 0xa8
 80096ba:	f003 0301 	and.w	r3, r3, #1
 80096be:	2b00      	cmp	r3, #0
 80096c0:	d00b      	beq.n	80096da <UART_RxISR_16BIT_FIFOEN+0xfe>
 80096c2:	687b      	ldr	r3, [r7, #4]
 80096c4:	681b      	ldr	r3, [r3, #0]
 80096c6:	2202      	movs	r2, #2
 80096c8:	621a      	str	r2, [r3, #32]
 80096ca:	687b      	ldr	r3, [r7, #4]
 80096cc:	f8d3 3090 	ldr.w	r3, [r3, #144]	@ 0x90
 80096d0:	f043 0204 	orr.w	r2, r3, #4
 80096d4:	687b      	ldr	r3, [r7, #4]
 80096d6:	f8c3 2090 	str.w	r2, [r3, #144]	@ 0x90
 80096da:	f8d7 30b4 	ldr.w	r3, [r7, #180]	@ 0xb4
 80096de:	f003 0304 	and.w	r3, r3, #4
 80096e2:	2b00      	cmp	r3, #0
 80096e4:	d011      	beq.n	800970a <UART_RxISR_16BIT_FIFOEN+0x12e>
 80096e6:	f8d7 30a8 	ldr.w	r3, [r7, #168]	@ 0xa8
 80096ea:	f003 0301 	and.w	r3, r3, #1
 80096ee:	2b00      	cmp	r3, #0
 80096f0:	d00b      	beq.n	800970a <UART_RxISR_16BIT_FIFOEN+0x12e>
 80096f2:	687b      	ldr	r3, [r7, #4]
 80096f4:	681b      	ldr	r3, [r3, #0]
 80096f6:	2204      	movs	r2, #4
 80096f8:	621a      	str	r2, [r3, #32]
 80096fa:	687b      	ldr	r3, [r7, #4]
 80096fc:	f8d3 3090 	ldr.w	r3, [r3, #144]	@ 0x90
 8009700:	f043 0202 	orr.w	r2, r3, #2
 8009704:	687b      	ldr	r3, [r7, #4]
 8009706:	f8c3 2090 	str.w	r2, [r3, #144]	@ 0x90
 800970a:	687b      	ldr	r3, [r7, #4]
 800970c:	f8d3 3090 	ldr.w	r3, [r3, #144]	@ 0x90
 8009710:	2b00      	cmp	r3, #0
 8009712:	d008      	beq.n	8009726 <UART_RxISR_16BIT_FIFOEN+0x14a>
 8009714:	687b      	ldr	r3, [r7, #4]
 8009716:	f8d3 30a4 	ldr.w	r3, [r3, #164]	@ 0xa4
 800971a:	6878      	ldr	r0, [r7, #4]
 800971c:	4798      	blx	r3
 800971e:	687b      	ldr	r3, [r7, #4]
 8009720:	2200      	movs	r2, #0
 8009722:	f8c3 2090 	str.w	r2, [r3, #144]	@ 0x90
 8009726:	687b      	ldr	r3, [r7, #4]
 8009728:	f8b3 305e 	ldrh.w	r3, [r3, #94]	@ 0x5e
 800972c:	b29b      	uxth	r3, r3
 800972e:	2b00      	cmp	r3, #0
 8009730:	f040 80a9 	bne.w	8009886 <UART_RxISR_16BIT_FIFOEN+0x2aa>
 8009734:	687b      	ldr	r3, [r7, #4]
 8009736:	681b      	ldr	r3, [r3, #0]
 8009738:	677b      	str	r3, [r7, #116]	@ 0x74
 800973a:	6f7b      	ldr	r3, [r7, #116]	@ 0x74
 800973c:	e853 3f00 	ldrex	r3, [r3]
 8009740:	673b      	str	r3, [r7, #112]	@ 0x70
 8009742:	6f3b      	ldr	r3, [r7, #112]	@ 0x70
 8009744:	f423 7380 	bic.w	r3, r3, #256	@ 0x100
 8009748:	f8c7 309c 	str.w	r3, [r7, #156]	@ 0x9c
 800974c:	687b      	ldr	r3, [r7, #4]
 800974e:	681b      	ldr	r3, [r3, #0]
 8009750:	461a      	mov	r2, r3
 8009752:	f8d7 309c 	ldr.w	r3, [r7, #156]	@ 0x9c
 8009756:	f8c7 3080 	str.w	r3, [r7, #128]	@ 0x80
 800975a:	67fa      	str	r2, [r7, #124]	@ 0x7c
 800975c:	6ff9      	ldr	r1, [r7, #124]	@ 0x7c
 800975e:	f8d7 2080 	ldr.w	r2, [r7, #128]	@ 0x80
 8009762:	e841 2300 	strex	r3, r2, [r1]
 8009766:	67bb      	str	r3, [r7, #120]	@ 0x78
 8009768:	6fbb      	ldr	r3, [r7, #120]	@ 0x78
 800976a:	2b00      	cmp	r3, #0
 800976c:	d1e2      	bne.n	8009734 <UART_RxISR_16BIT_FIFOEN+0x158>
 800976e:	687b      	ldr	r3, [r7, #4]
 8009770:	681b      	ldr	r3, [r3, #0]
 8009772:	3308      	adds	r3, #8
 8009774:	663b      	str	r3, [r7, #96]	@ 0x60
 8009776:	6e3b      	ldr	r3, [r7, #96]	@ 0x60
 8009778:	e853 3f00 	ldrex	r3, [r3]
 800977c:	65fb      	str	r3, [r7, #92]	@ 0x5c
 800977e:	6dfb      	ldr	r3, [r7, #92]	@ 0x5c
 8009780:	f023 5380 	bic.w	r3, r3, #268435456	@ 0x10000000
 8009784:	f023 0301 	bic.w	r3, r3, #1
 8009788:	f8c7 3098 	str.w	r3, [r7, #152]	@ 0x98
 800978c:	687b      	ldr	r3, [r7, #4]
 800978e:	681b      	ldr	r3, [r3, #0]
 8009790:	3308      	adds	r3, #8
 8009792:	f8d7 2098 	ldr.w	r2, [r7, #152]	@ 0x98
 8009796:	66fa      	str	r2, [r7, #108]	@ 0x6c
 8009798:	66bb      	str	r3, [r7, #104]	@ 0x68
 800979a:	6eb9      	ldr	r1, [r7, #104]	@ 0x68
 800979c:	6efa      	ldr	r2, [r7, #108]	@ 0x6c
 800979e:	e841 2300 	strex	r3, r2, [r1]
 80097a2:	667b      	str	r3, [r7, #100]	@ 0x64
 80097a4:	6e7b      	ldr	r3, [r7, #100]	@ 0x64
 80097a6:	2b00      	cmp	r3, #0
 80097a8:	d1e1      	bne.n	800976e <UART_RxISR_16BIT_FIFOEN+0x192>
 80097aa:	687b      	ldr	r3, [r7, #4]
 80097ac:	2220      	movs	r2, #32
 80097ae:	f8c3 208c 	str.w	r2, [r3, #140]	@ 0x8c
 80097b2:	687b      	ldr	r3, [r7, #4]
 80097b4:	2200      	movs	r2, #0
 80097b6:	675a      	str	r2, [r3, #116]	@ 0x74
 80097b8:	687b      	ldr	r3, [r7, #4]
 80097ba:	2200      	movs	r2, #0
 80097bc:	671a      	str	r2, [r3, #112]	@ 0x70
 80097be:	687b      	ldr	r3, [r7, #4]
 80097c0:	681b      	ldr	r3, [r3, #0]
 80097c2:	4a62      	ldr	r2, [pc, #392]	@ (800994c <UART_RxISR_16BIT_FIFOEN+0x370>)
 80097c4:	4293      	cmp	r3, r2
 80097c6:	d021      	beq.n	800980c <UART_RxISR_16BIT_FIFOEN+0x230>
 80097c8:	687b      	ldr	r3, [r7, #4]
 80097ca:	681b      	ldr	r3, [r3, #0]
 80097cc:	685b      	ldr	r3, [r3, #4]
 80097ce:	f403 0300 	and.w	r3, r3, #8388608	@ 0x800000
 80097d2:	2b00      	cmp	r3, #0
 80097d4:	d01a      	beq.n	800980c <UART_RxISR_16BIT_FIFOEN+0x230>
 80097d6:	687b      	ldr	r3, [r7, #4]
 80097d8:	681b      	ldr	r3, [r3, #0]
 80097da:	64fb      	str	r3, [r7, #76]	@ 0x4c
 80097dc:	6cfb      	ldr	r3, [r7, #76]	@ 0x4c
 80097de:	e853 3f00 	ldrex	r3, [r3]
 80097e2:	64bb      	str	r3, [r7, #72]	@ 0x48
 80097e4:	6cbb      	ldr	r3, [r7, #72]	@ 0x48
 80097e6:	f023 6380 	bic.w	r3, r3, #67108864	@ 0x4000000
 80097ea:	f8c7 3094 	str.w	r3, [r7, #148]	@ 0x94
 80097ee:	687b      	ldr	r3, [r7, #4]
 80097f0:	681b      	ldr	r3, [r3, #0]
 80097f2:	461a      	mov	r2, r3
 80097f4:	f8d7 3094 	ldr.w	r3, [r7, #148]	@ 0x94
 80097f8:	65bb      	str	r3, [r7, #88]	@ 0x58
 80097fa:	657a      	str	r2, [r7, #84]	@ 0x54
 80097fc:	6d79      	ldr	r1, [r7, #84]	@ 0x54
 80097fe:	6dba      	ldr	r2, [r7, #88]	@ 0x58
 8009800:	e841 2300 	strex	r3, r2, [r1]
 8009804:	653b      	str	r3, [r7, #80]	@ 0x50
 8009806:	6d3b      	ldr	r3, [r7, #80]	@ 0x50
 8009808:	2b00      	cmp	r3, #0
 800980a:	d1e4      	bne.n	80097d6 <UART_RxISR_16BIT_FIFOEN+0x1fa>
 800980c:	687b      	ldr	r3, [r7, #4]
 800980e:	6edb      	ldr	r3, [r3, #108]	@ 0x6c
 8009810:	2b01      	cmp	r3, #1
 8009812:	d132      	bne.n	800987a <UART_RxISR_16BIT_FIFOEN+0x29e>
 8009814:	687b      	ldr	r3, [r7, #4]
 8009816:	2200      	movs	r2, #0
 8009818:	66da      	str	r2, [r3, #108]	@ 0x6c
 800981a:	687b      	ldr	r3, [r7, #4]
 800981c:	681b      	ldr	r3, [r3, #0]
 800981e:	63bb      	str	r3, [r7, #56]	@ 0x38
 8009820:	6bbb      	ldr	r3, [r7, #56]	@ 0x38
 8009822:	e853 3f00 	ldrex	r3, [r3]
 8009826:	637b      	str	r3, [r7, #52]	@ 0x34
 8009828:	6b7b      	ldr	r3, [r7, #52]	@ 0x34
 800982a:	f023 0310 	bic.w	r3, r3, #16
 800982e:	f8c7 3090 	str.w	r3, [r7, #144]	@ 0x90
 8009832:	687b      	ldr	r3, [r7, #4]
 8009834:	681b      	ldr	r3, [r3, #0]
 8009836:	461a      	mov	r2, r3
 8009838:	f8d7 3090 	ldr.w	r3, [r7, #144]	@ 0x90
 800983c:	647b      	str	r3, [r7, #68]	@ 0x44
 800983e:	643a      	str	r2, [r7, #64]	@ 0x40
 8009840:	6c39      	ldr	r1, [r7, #64]	@ 0x40
 8009842:	6c7a      	ldr	r2, [r7, #68]	@ 0x44
 8009844:	e841 2300 	strex	r3, r2, [r1]
 8009848:	63fb      	str	r3, [r7, #60]	@ 0x3c
 800984a:	6bfb      	ldr	r3, [r7, #60]	@ 0x3c
 800984c:	2b00      	cmp	r3, #0
 800984e:	d1e4      	bne.n	800981a <UART_RxISR_16BIT_FIFOEN+0x23e>
 8009850:	687b      	ldr	r3, [r7, #4]
 8009852:	681b      	ldr	r3, [r3, #0]
 8009854:	69db      	ldr	r3, [r3, #28]
 8009856:	f003 0310 	and.w	r3, r3, #16
 800985a:	2b10      	cmp	r3, #16
 800985c:	d103      	bne.n	8009866 <UART_RxISR_16BIT_FIFOEN+0x28a>
 800985e:	687b      	ldr	r3, [r7, #4]
 8009860:	681b      	ldr	r3, [r3, #0]
 8009862:	2210      	movs	r2, #16
 8009864:	621a      	str	r2, [r3, #32]
 8009866:	687b      	ldr	r3, [r7, #4]
 8009868:	f8d3 30c0 	ldr.w	r3, [r3, #192]	@ 0xc0
 800986c:	687a      	ldr	r2, [r7, #4]
 800986e:	f8b2 205c 	ldrh.w	r2, [r2, #92]	@ 0x5c
 8009872:	4611      	mov	r1, r2
 8009874:	6878      	ldr	r0, [r7, #4]
 8009876:	4798      	blx	r3
 8009878:	e010      	b.n	800989c <UART_RxISR_16BIT_FIFOEN+0x2c0>
 800987a:	687b      	ldr	r3, [r7, #4]
 800987c:	f8d3 30a0 	ldr.w	r3, [r3, #160]	@ 0xa0
 8009880:	6878      	ldr	r0, [r7, #4]
 8009882:	4798      	blx	r3
 8009884:	e00a      	b.n	800989c <UART_RxISR_16BIT_FIFOEN+0x2c0>
 8009886:	f8b7 30a6 	ldrh.w	r3, [r7, #166]	@ 0xa6
 800988a:	2b00      	cmp	r3, #0
 800988c:	d006      	beq.n	800989c <UART_RxISR_16BIT_FIFOEN+0x2c0>
 800988e:	f8d7 30b4 	ldr.w	r3, [r7, #180]	@ 0xb4
 8009892:	f003 0320 	and.w	r3, r3, #32
 8009896:	2b00      	cmp	r3, #0
 8009898:	f47f aec4 	bne.w	8009624 <UART_RxISR_16BIT_FIFOEN+0x48>
 800989c:	687b      	ldr	r3, [r7, #4]
 800989e:	f8b3 305e 	ldrh.w	r3, [r3, #94]	@ 0x5e
 80098a2:	f8a7 308e 	strh.w	r3, [r7, #142]	@ 0x8e
 80098a6:	f8b7 308e 	ldrh.w	r3, [r7, #142]	@ 0x8e
 80098aa:	2b00      	cmp	r3, #0
 80098ac:	d049      	beq.n	8009942 <UART_RxISR_16BIT_FIFOEN+0x366>
 80098ae:	687b      	ldr	r3, [r7, #4]
 80098b0:	f8b3 3068 	ldrh.w	r3, [r3, #104]	@ 0x68
 80098b4:	f8b7 208e 	ldrh.w	r2, [r7, #142]	@ 0x8e
 80098b8:	429a      	cmp	r2, r3
 80098ba:	d242      	bcs.n	8009942 <UART_RxISR_16BIT_FIFOEN+0x366>
 80098bc:	687b      	ldr	r3, [r7, #4]
 80098be:	681b      	ldr	r3, [r3, #0]
 80098c0:	3308      	adds	r3, #8
 80098c2:	627b      	str	r3, [r7, #36]	@ 0x24
 80098c4:	6a7b      	ldr	r3, [r7, #36]	@ 0x24
 80098c6:	e853 3f00 	ldrex	r3, [r3]
 80098ca:	623b      	str	r3, [r7, #32]
 80098cc:	6a3b      	ldr	r3, [r7, #32]
 80098ce:	f023 5380 	bic.w	r3, r3, #268435456	@ 0x10000000
 80098d2:	f8c7 3088 	str.w	r3, [r7, #136]	@ 0x88
 80098d6:	687b      	ldr	r3, [r7, #4]
 80098d8:	681b      	ldr	r3, [r3, #0]
 80098da:	3308      	adds	r3, #8
 80098dc:	f8d7 2088 	ldr.w	r2, [r7, #136]	@ 0x88
 80098e0:	633a      	str	r2, [r7, #48]	@ 0x30
 80098e2:	62fb      	str	r3, [r7, #44]	@ 0x2c
 80098e4:	6af9      	ldr	r1, [r7, #44]	@ 0x2c
 80098e6:	6b3a      	ldr	r2, [r7, #48]	@ 0x30
 80098e8:	e841 2300 	strex	r3, r2, [r1]
 80098ec:	62bb      	str	r3, [r7, #40]	@ 0x28
 80098ee:	6abb      	ldr	r3, [r7, #40]	@ 0x28
 80098f0:	2b00      	cmp	r3, #0
 80098f2:	d1e3      	bne.n	80098bc <UART_RxISR_16BIT_FIFOEN+0x2e0>
 80098f4:	687b      	ldr	r3, [r7, #4]
 80098f6:	4a16      	ldr	r2, [pc, #88]	@ (8009950 <UART_RxISR_16BIT_FIFOEN+0x374>)
 80098f8:	675a      	str	r2, [r3, #116]	@ 0x74
 80098fa:	687b      	ldr	r3, [r7, #4]
 80098fc:	681b      	ldr	r3, [r3, #0]
 80098fe:	613b      	str	r3, [r7, #16]
 8009900:	693b      	ldr	r3, [r7, #16]
 8009902:	e853 3f00 	ldrex	r3, [r3]
 8009906:	60fb      	str	r3, [r7, #12]
 8009908:	68fb      	ldr	r3, [r7, #12]
 800990a:	f043 0320 	orr.w	r3, r3, #32
 800990e:	f8c7 3084 	str.w	r3, [r7, #132]	@ 0x84
 8009912:	687b      	ldr	r3, [r7, #4]
 8009914:	681b      	ldr	r3, [r3, #0]
 8009916:	461a      	mov	r2, r3
 8009918:	f8d7 3084 	ldr.w	r3, [r7, #132]	@ 0x84
 800991c:	61fb      	str	r3, [r7, #28]
 800991e:	61ba      	str	r2, [r7, #24]
 8009920:	69b9      	ldr	r1, [r7, #24]
 8009922:	69fa      	ldr	r2, [r7, #28]
 8009924:	e841 2300 	strex	r3, r2, [r1]
 8009928:	617b      	str	r3, [r7, #20]
 800992a:	697b      	ldr	r3, [r7, #20]
 800992c:	2b00      	cmp	r3, #0
 800992e:	d1e4      	bne.n	80098fa <UART_RxISR_16BIT_FIFOEN+0x31e>
 8009930:	e007      	b.n	8009942 <UART_RxISR_16BIT_FIFOEN+0x366>
 8009932:	687b      	ldr	r3, [r7, #4]
 8009934:	681b      	ldr	r3, [r3, #0]
 8009936:	699a      	ldr	r2, [r3, #24]
 8009938:	687b      	ldr	r3, [r7, #4]
 800993a:	681b      	ldr	r3, [r3, #0]
 800993c:	f042 0208 	orr.w	r2, r2, #8
 8009940:	619a      	str	r2, [r3, #24]
 8009942:	bf00      	nop
 8009944:	37b8      	adds	r7, #184	@ 0xb8
 8009946:	46bd      	mov	sp, r7
 8009948:	bd80      	pop	{r7, pc}
 800994a:	bf00      	nop
 800994c:	40008000 	.word	0x40008000
 8009950:	080090ad 	.word	0x080090ad

08009954 <HAL_UARTEx_WakeupCallback>:
 8009954:	b480      	push	{r7}
 8009956:	b083      	sub	sp, #12
 8009958:	af00      	add	r7, sp, #0
 800995a:	6078      	str	r0, [r7, #4]
 800995c:	bf00      	nop
 800995e:	370c      	adds	r7, #12
 8009960:	46bd      	mov	sp, r7
 8009962:	f85d 7b04 	ldr.w	r7, [sp], #4
 8009966:	4770      	bx	lr

08009968 <HAL_UARTEx_RxFifoFullCallback>:
 8009968:	b480      	push	{r7}
 800996a:	b083      	sub	sp, #12
 800996c:	af00      	add	r7, sp, #0
 800996e:	6078      	str	r0, [r7, #4]
 8009970:	bf00      	nop
 8009972:	370c      	adds	r7, #12
 8009974:	46bd      	mov	sp, r7
 8009976:	f85d 7b04 	ldr.w	r7, [sp], #4
 800997a:	4770      	bx	lr

0800997c <HAL_UARTEx_TxFifoEmptyCallback>:
 800997c:	b480      	push	{r7}
 800997e:	b083      	sub	sp, #12
 8009980:	af00      	add	r7, sp, #0
 8009982:	6078      	str	r0, [r7, #4]
 8009984:	bf00      	nop
 8009986:	370c      	adds	r7, #12
 8009988:	46bd      	mov	sp, r7
 800998a:	f85d 7b04 	ldr.w	r7, [sp], #4
 800998e:	4770      	bx	lr

08009990 <HAL_UARTEx_DisableFifoMode>:
 8009990:	b480      	push	{r7}
 8009992:	b085      	sub	sp, #20
 8009994:	af00      	add	r7, sp, #0
 8009996:	6078      	str	r0, [r7, #4]
 8009998:	687b      	ldr	r3, [r7, #4]
 800999a:	f893 3084 	ldrb.w	r3, [r3, #132]	@ 0x84
 800999e:	2b01      	cmp	r3, #1
 80099a0:	d101      	bne.n	80099a6 <HAL_UARTEx_DisableFifoMode+0x16>
 80099a2:	2302      	movs	r3, #2
 80099a4:	e027      	b.n	80099f6 <HAL_UARTEx_DisableFifoMode+0x66>
 80099a6:	687b      	ldr	r3, [r7, #4]
 80099a8:	2201      	movs	r2, #1
 80099aa:	f883 2084 	strb.w	r2, [r3, #132]	@ 0x84
 80099ae:	687b      	ldr	r3, [r7, #4]
 80099b0:	2224      	movs	r2, #36	@ 0x24
 80099b2:	f8c3 2088 	str.w	r2, [r3, #136]	@ 0x88
 80099b6:	687b      	ldr	r3, [r7, #4]
 80099b8:	681b      	ldr	r3, [r3, #0]
 80099ba:	681b      	ldr	r3, [r3, #0]
 80099bc:	60fb      	str	r3, [r7, #12]
 80099be:	687b      	ldr	r3, [r7, #4]
 80099c0:	681b      	ldr	r3, [r3, #0]
 80099c2:	681a      	ldr	r2, [r3, #0]
 80099c4:	687b      	ldr	r3, [r7, #4]
 80099c6:	681b      	ldr	r3, [r3, #0]
 80099c8:	f022 0201 	bic.w	r2, r2, #1
 80099cc:	601a      	str	r2, [r3, #0]
 80099ce:	68fb      	ldr	r3, [r7, #12]
 80099d0:	f023 5300 	bic.w	r3, r3, #536870912	@ 0x20000000
 80099d4:	60fb      	str	r3, [r7, #12]
 80099d6:	687b      	ldr	r3, [r7, #4]
 80099d8:	2200      	movs	r2, #0
 80099da:	665a      	str	r2, [r3, #100]	@ 0x64
 80099dc:	687b      	ldr	r3, [r7, #4]
 80099de:	681b      	ldr	r3, [r3, #0]
 80099e0:	68fa      	ldr	r2, [r7, #12]
 80099e2:	601a      	str	r2, [r3, #0]
 80099e4:	687b      	ldr	r3, [r7, #4]
 80099e6:	2220      	movs	r2, #32
 80099e8:	f8c3 2088 	str.w	r2, [r3, #136]	@ 0x88
 80099ec:	687b      	ldr	r3, [r7, #4]
 80099ee:	2200      	movs	r2, #0
 80099f0:	f883 2084 	strb.w	r2, [r3, #132]	@ 0x84
 80099f4:	2300      	movs	r3, #0
 80099f6:	4618      	mov	r0, r3
 80099f8:	3714      	adds	r7, #20
 80099fa:	46bd      	mov	sp, r7
 80099fc:	f85d 7b04 	ldr.w	r7, [sp], #4
 8009a00:	4770      	bx	lr

08009a02 <HAL_UARTEx_SetTxFifoThreshold>:
 8009a02:	b580      	push	{r7, lr}
 8009a04:	b084      	sub	sp, #16
 8009a06:	af00      	add	r7, sp, #0
 8009a08:	6078      	str	r0, [r7, #4]
 8009a0a:	6039      	str	r1, [r7, #0]
 8009a0c:	687b      	ldr	r3, [r7, #4]
 8009a0e:	f893 3084 	ldrb.w	r3, [r3, #132]	@ 0x84
 8009a12:	2b01      	cmp	r3, #1
 8009a14:	d101      	bne.n	8009a1a <HAL_UARTEx_SetTxFifoThreshold+0x18>
 8009a16:	2302      	movs	r3, #2
 8009a18:	e02d      	b.n	8009a76 <HAL_UARTEx_SetTxFifoThreshold+0x74>
 8009a1a:	687b      	ldr	r3, [r7, #4]
 8009a1c:	2201      	movs	r2, #1
 8009a1e:	f883 2084 	strb.w	r2, [r3, #132]	@ 0x84
 8009a22:	687b      	ldr	r3, [r7, #4]
 8009a24:	2224      	movs	r2, #36	@ 0x24
 8009a26:	f8c3 2088 	str.w	r2, [r3, #136]	@ 0x88
 8009a2a:	687b      	ldr	r3, [r7, #4]
 8009a2c:	681b      	ldr	r3, [r3, #0]
 8009a2e:	681b      	ldr	r3, [r3, #0]
 8009a30:	60fb      	str	r3, [r7, #12]
 8009a32:	687b      	ldr	r3, [r7, #4]
 8009a34:	681b      	ldr	r3, [r3, #0]
 8009a36:	681a      	ldr	r2, [r3, #0]
 8009a38:	687b      	ldr	r3, [r7, #4]
 8009a3a:	681b      	ldr	r3, [r3, #0]
 8009a3c:	f022 0201 	bic.w	r2, r2, #1
 8009a40:	601a      	str	r2, [r3, #0]
 8009a42:	687b      	ldr	r3, [r7, #4]
 8009a44:	681b      	ldr	r3, [r3, #0]
 8009a46:	689b      	ldr	r3, [r3, #8]
 8009a48:	f023 4160 	bic.w	r1, r3, #3758096384	@ 0xe0000000
 8009a4c:	687b      	ldr	r3, [r7, #4]
 8009a4e:	681b      	ldr	r3, [r3, #0]
 8009a50:	683a      	ldr	r2, [r7, #0]
 8009a52:	430a      	orrs	r2, r1
 8009a54:	609a      	str	r2, [r3, #8]
 8009a56:	6878      	ldr	r0, [r7, #4]
 8009a58:	f000 f850 	bl	8009afc <UARTEx_SetNbDataToProcess>
 8009a5c:	687b      	ldr	r3, [r7, #4]
 8009a5e:	681b      	ldr	r3, [r3, #0]
 8009a60:	68fa      	ldr	r2, [r7, #12]
 8009a62:	601a      	str	r2, [r3, #0]
 8009a64:	687b      	ldr	r3, [r7, #4]
 8009a66:	2220      	movs	r2, #32
 8009a68:	f8c3 2088 	str.w	r2, [r3, #136]	@ 0x88
 8009a6c:	687b      	ldr	r3, [r7, #4]
 8009a6e:	2200      	movs	r2, #0
 8009a70:	f883 2084 	strb.w	r2, [r3, #132]	@ 0x84
 8009a74:	2300      	movs	r3, #0
 8009a76:	4618      	mov	r0, r3
 8009a78:	3710      	adds	r7, #16
 8009a7a:	46bd      	mov	sp, r7
 8009a7c:	bd80      	pop	{r7, pc}

08009a7e <HAL_UARTEx_SetRxFifoThreshold>:
 8009a7e:	b580      	push	{r7, lr}
 8009a80:	b084      	sub	sp, #16
 8009a82:	af00      	add	r7, sp, #0
 8009a84:	6078      	str	r0, [r7, #4]
 8009a86:	6039      	str	r1, [r7, #0]
 8009a88:	687b      	ldr	r3, [r7, #4]
 8009a8a:	f893 3084 	ldrb.w	r3, [r3, #132]	@ 0x84
 8009a8e:	2b01      	cmp	r3, #1
 8009a90:	d101      	bne.n	8009a96 <HAL_UARTEx_SetRxFifoThreshold+0x18>
 8009a92:	2302      	movs	r3, #2
 8009a94:	e02d      	b.n	8009af2 <HAL_UARTEx_SetRxFifoThreshold+0x74>
 8009a96:	687b      	ldr	r3, [r7, #4]
 8009a98:	2201      	movs	r2, #1
 8009a9a:	f883 2084 	strb.w	r2, [r3, #132]	@ 0x84
 8009a9e:	687b      	ldr	r3, [r7, #4]
 8009aa0:	2224      	movs	r2, #36	@ 0x24
 8009aa2:	f8c3 2088 	str.w	r2, [r3, #136]	@ 0x88
 8009aa6:	687b      	ldr	r3, [r7, #4]
 8009aa8:	681b      	ldr	r3, [r3, #0]
 8009aaa:	681b      	ldr	r3, [r3, #0]
 8009aac:	60fb      	str	r3, [r7, #12]
 8009aae:	687b      	ldr	r3, [r7, #4]
 8009ab0:	681b      	ldr	r3, [r3, #0]
 8009ab2:	681a      	ldr	r2, [r3, #0]
 8009ab4:	687b      	ldr	r3, [r7, #4]
 8009ab6:	681b      	ldr	r3, [r3, #0]
 8009ab8:	f022 0201 	bic.w	r2, r2, #1
 8009abc:	601a      	str	r2, [r3, #0]
 8009abe:	687b      	ldr	r3, [r7, #4]
 8009ac0:	681b      	ldr	r3, [r3, #0]
 8009ac2:	689b      	ldr	r3, [r3, #8]
 8009ac4:	f023 6160 	bic.w	r1, r3, #234881024	@ 0xe000000
 8009ac8:	687b      	ldr	r3, [r7, #4]
 8009aca:	681b      	ldr	r3, [r3, #0]
 8009acc:	683a      	ldr	r2, [r7, #0]
 8009ace:	430a      	orrs	r2, r1
 8009ad0:	609a      	str	r2, [r3, #8]
 8009ad2:	6878      	ldr	r0, [r7, #4]
 8009ad4:	f000 f812 	bl	8009afc <UARTEx_SetNbDataToProcess>
 8009ad8:	687b      	ldr	r3, [r7, #4]
 8009ada:	681b      	ldr	r3, [r3, #0]
 8009adc:	68fa      	ldr	r2, [r7, #12]
 8009ade:	601a      	str	r2, [r3, #0]
 8009ae0:	687b      	ldr	r3, [r7, #4]
 8009ae2:	2220      	movs	r2, #32
 8009ae4:	f8c3 2088 	str.w	r2, [r3, #136]	@ 0x88
 8009ae8:	687b      	ldr	r3, [r7, #4]
 8009aea:	2200      	movs	r2, #0
 8009aec:	f883 2084 	strb.w	r2, [r3, #132]	@ 0x84
 8009af0:	2300      	movs	r3, #0
 8009af2:	4618      	mov	r0, r3
 8009af4:	3710      	adds	r7, #16
 8009af6:	46bd      	mov	sp, r7
 8009af8:	bd80      	pop	{r7, pc}
	...

08009afc <UARTEx_SetNbDataToProcess>:
 8009afc:	b480      	push	{r7}
 8009afe:	b085      	sub	sp, #20
 8009b00:	af00      	add	r7, sp, #0
 8009b02:	6078      	str	r0, [r7, #4]
 8009b04:	687b      	ldr	r3, [r7, #4]
 8009b06:	6e5b      	ldr	r3, [r3, #100]	@ 0x64
 8009b08:	2b00      	cmp	r3, #0
 8009b0a:	d108      	bne.n	8009b1e <UARTEx_SetNbDataToProcess+0x22>
 8009b0c:	687b      	ldr	r3, [r7, #4]
 8009b0e:	2201      	movs	r2, #1
 8009b10:	f8a3 206a 	strh.w	r2, [r3, #106]	@ 0x6a
 8009b14:	687b      	ldr	r3, [r7, #4]
 8009b16:	2201      	movs	r2, #1
 8009b18:	f8a3 2068 	strh.w	r2, [r3, #104]	@ 0x68
 8009b1c:	e031      	b.n	8009b82 <UARTEx_SetNbDataToProcess+0x86>
 8009b1e:	2308      	movs	r3, #8
 8009b20:	73fb      	strb	r3, [r7, #15]
 8009b22:	2308      	movs	r3, #8
 8009b24:	73bb      	strb	r3, [r7, #14]
 8009b26:	687b      	ldr	r3, [r7, #4]
 8009b28:	681b      	ldr	r3, [r3, #0]
 8009b2a:	689b      	ldr	r3, [r3, #8]
 8009b2c:	0e5b      	lsrs	r3, r3, #25
 8009b2e:	b2db      	uxtb	r3, r3
 8009b30:	f003 0307 	and.w	r3, r3, #7
 8009b34:	737b      	strb	r3, [r7, #13]
 8009b36:	687b      	ldr	r3, [r7, #4]
 8009b38:	681b      	ldr	r3, [r3, #0]
 8009b3a:	689b      	ldr	r3, [r3, #8]
 8009b3c:	0f5b      	lsrs	r3, r3, #29
 8009b3e:	b2db      	uxtb	r3, r3
 8009b40:	f003 0307 	and.w	r3, r3, #7
 8009b44:	733b      	strb	r3, [r7, #12]
 8009b46:	7bbb      	ldrb	r3, [r7, #14]
 8009b48:	7b3a      	ldrb	r2, [r7, #12]
 8009b4a:	4911      	ldr	r1, [pc, #68]	@ (8009b90 <UARTEx_SetNbDataToProcess+0x94>)
 8009b4c:	5c8a      	ldrb	r2, [r1, r2]
 8009b4e:	fb02 f303 	mul.w	r3, r2, r3
 8009b52:	7b3a      	ldrb	r2, [r7, #12]
 8009b54:	490f      	ldr	r1, [pc, #60]	@ (8009b94 <UARTEx_SetNbDataToProcess+0x98>)
 8009b56:	5c8a      	ldrb	r2, [r1, r2]
 8009b58:	fb93 f3f2 	sdiv	r3, r3, r2
 8009b5c:	b29a      	uxth	r2, r3
 8009b5e:	687b      	ldr	r3, [r7, #4]
 8009b60:	f8a3 206a 	strh.w	r2, [r3, #106]	@ 0x6a
 8009b64:	7bfb      	ldrb	r3, [r7, #15]
 8009b66:	7b7a      	ldrb	r2, [r7, #13]
 8009b68:	4909      	ldr	r1, [pc, #36]	@ (8009b90 <UARTEx_SetNbDataToProcess+0x94>)
 8009b6a:	5c8a      	ldrb	r2, [r1, r2]
 8009b6c:	fb02 f303 	mul.w	r3, r2, r3
 8009b70:	7b7a      	ldrb	r2, [r7, #13]
 8009b72:	4908      	ldr	r1, [pc, #32]	@ (8009b94 <UARTEx_SetNbDataToProcess+0x98>)
 8009b74:	5c8a      	ldrb	r2, [r1, r2]
 8009b76:	fb93 f3f2 	sdiv	r3, r3, r2
 8009b7a:	b29a      	uxth	r2, r3
 8009b7c:	687b      	ldr	r3, [r7, #4]
 8009b7e:	f8a3 2068 	strh.w	r2, [r3, #104]	@ 0x68
 8009b82:	bf00      	nop
 8009b84:	3714      	adds	r7, #20
 8009b86:	46bd      	mov	sp, r7
 8009b88:	f85d 7b04 	ldr.w	r7, [sp], #4
 8009b8c:	4770      	bx	lr
 8009b8e:	bf00      	nop
 8009b90:	08009c54 	.word	0x08009c54
 8009b94:	08009c5c 	.word	0x08009c5c

08009b98 <memset>:
 8009b98:	4402      	add	r2, r0
 8009b9a:	4603      	mov	r3, r0
 8009b9c:	4293      	cmp	r3, r2
 8009b9e:	d100      	bne.n	8009ba2 <memset+0xa>
 8009ba0:	4770      	bx	lr
 8009ba2:	f803 1b01 	strb.w	r1, [r3], #1
 8009ba6:	e7f9      	b.n	8009b9c <memset+0x4>

08009ba8 <__libc_init_array>:
 8009ba8:	b570      	push	{r4, r5, r6, lr}
 8009baa:	4d0d      	ldr	r5, [pc, #52]	@ (8009be0 <__libc_init_array+0x38>)
 8009bac:	4c0d      	ldr	r4, [pc, #52]	@ (8009be4 <__libc_init_array+0x3c>)
 8009bae:	1b64      	subs	r4, r4, r5
 8009bb0:	10a4      	asrs	r4, r4, #2
 8009bb2:	2600      	movs	r6, #0
 8009bb4:	42a6      	cmp	r6, r4
 8009bb6:	d109      	bne.n	8009bcc <__libc_init_array+0x24>
 8009bb8:	4d0b      	ldr	r5, [pc, #44]	@ (8009be8 <__libc_init_array+0x40>)
 8009bba:	4c0c      	ldr	r4, [pc, #48]	@ (8009bec <__libc_init_array+0x44>)
 8009bbc:	f000 f826 	bl	8009c0c <_init>
 8009bc0:	1b64      	subs	r4, r4, r5
 8009bc2:	10a4      	asrs	r4, r4, #2
 8009bc4:	2600      	movs	r6, #0
 8009bc6:	42a6      	cmp	r6, r4
 8009bc8:	d105      	bne.n	8009bd6 <__libc_init_array+0x2e>
 8009bca:	bd70      	pop	{r4, r5, r6, pc}
 8009bcc:	f855 3b04 	ldr.w	r3, [r5], #4
 8009bd0:	4798      	blx	r3
 8009bd2:	3601      	adds	r6, #1
 8009bd4:	e7ee      	b.n	8009bb4 <__libc_init_array+0xc>
 8009bd6:	f855 3b04 	ldr.w	r3, [r5], #4
 8009bda:	4798      	blx	r3
 8009bdc:	3601      	adds	r6, #1
 8009bde:	e7f2      	b.n	8009bc6 <__libc_init_array+0x1e>
 8009be0:	08009c6c 	.word	0x08009c6c
 8009be4:	08009c6c 	.word	0x08009c6c
 8009be8:	08009c6c 	.word	0x08009c6c
 8009bec:	08009c70 	.word	0x08009c70

08009bf0 <memcpy>:
 8009bf0:	440a      	add	r2, r1
 8009bf2:	4291      	cmp	r1, r2
 8009bf4:	f100 33ff 	add.w	r3, r0, #4294967295
 8009bf8:	d100      	bne.n	8009bfc <memcpy+0xc>
 8009bfa:	4770      	bx	lr
 8009bfc:	b510      	push	{r4, lr}
 8009bfe:	f811 4b01 	ldrb.w	r4, [r1], #1
 8009c02:	f803 4f01 	strb.w	r4, [r3, #1]!
 8009c06:	4291      	cmp	r1, r2
 8009c08:	d1f9      	bne.n	8009bfe <memcpy+0xe>
 8009c0a:	bd10      	pop	{r4, pc}

08009c0c <_init>:
 8009c0c:	b5f8      	push	{r3, r4, r5, r6, r7, lr}
 8009c0e:	bf00      	nop
 8009c10:	bcf8      	pop	{r3, r4, r5, r6, r7}
 8009c12:	bc08      	pop	{r3}
 8009c14:	469e      	mov	lr, r3
 8009c16:	4770      	bx	lr

08009c18 <_fini>:
 8009c18:	b5f8      	push	{r3, r4, r5, r6, r7, lr}
 8009c1a:	bf00      	nop
 8009c1c:	bcf8      	pop	{r3, r4, r5, r6, r7}
 8009c1e:	bc08      	pop	{r3}
 8009c20:	469e      	mov	lr, r3
 8009c22:	4770      	bx	lr
